(dp0
S'fentiazac'
p1
NsS'mls_0454339.0002'
p2
NsS'brd_k38625260'
p3
NsS'telmisartan'
p4
((F1.0
S'telmisartan'
p5
tp6
S"(st) matching: ratio , lcs, (key,drug) (keynorm,drugnorm 1.0 telmisartan ('telmisartan', 'telmisartan') ('telmisartan', 'telmisartan')"
p7
tp8
sS'brd_k70918941'
p9
NsS's(_)_carbidopa'
p10
NsS'nitrazepam'
p11
NsS'brd_k66254772'
p12
NsS'ici_162_846'
p13
NsS'zm_336372'
p14
NsS'monorden'
p15
NsS'h_89_dihydrochloride'
p16
NsS'r3904'
p17
NsS'ha_1004'
p18
NsS'brd_k43620258'
p19
NsS'hy_10161'
p20
NsS'idelalisib'
p21
NsS'pantoprazole'
p22
((F1.0
S'pantoprazole_sodium'
p23
tp24
S"Suffix-based-exact-matching ('pantoprazole', 'pantoprazole sodium') ('pantoprazole', 'pantoprazole_sodium')"
p25
tp26
sS'brd_k45205755'
p27
NsS'dichlorvos'
p28
NsS'nvp_tae684'
p29
NsS'lawsone'
p30
NsS'brd_k88551539'
p31
NsS'brd_k94325918'
p32
NsS'brd_k01868942'
p33
NsS'ncgc00167094_01'
p34
NsS'sodium_nitroprusside'
p35
((F1.0
S'sodium_nitroprusside'
p36
tp37
S"(st) matching: ratio , lcs, (key,drug) (keynorm,drugnorm 1.0 sodium_nitroprusside ('sodium_nitroprusside', 'sodium nitroprusside') ('sodium_nitroprusside', 'sodium_nitroprusside')"
p38
tp39
sS'citalopram'
p40
((F1.0
S'citalopram_hydrobromide'
p41
tp42
S"Suffix-based-exact-matching ('citalopram', 'citalopram hydrobromide') ('citalopram', 'citalopram_hydrobromide')"
p43
tp44
sS'brd_a52193669'
p45
NsS'glimepiride'
p46
((F1.0
S'glimepiride'
p47
tp48
S"(st) matching: ratio , lcs, (key,drug) (keynorm,drugnorm 1.0 glimepiride ('glimepiride', 'glimepiride') ('glimepiride', 'glimepiride')"
p49
tp50
sS'lincomycin'
p51
((F1.0
S'lincomycin_hcl'
p52
tp53
S"Suffix-based-exact-matching ('lincomycin', 'lincomycin hcl') ('lincomycin', 'lincomycin_hcl')"
p54
tp55
sS'brd_k85318537_(obaa)'
p56
NsS'brd_a47816767'
p57
NsS'lofepramine'
p58
NsS'o_1918'
p59
NsS'ncgc00186101_01'
p60
NsS'gw_7647'
p61
NsS'pifithrin__a_hydrobromide'
p62
NsS'procarbazine'
p63
NsS'stock1s_03920'
p64
NsS'way_213613'
p65
NsS'np_001821'
p66
NsS'vincristine_sulfate'
p67
((F1.0
S'vincristine_sulfate'
p68
tp69
S"Suffix-based-exact-matching ('vincristine_sulfate', 'vincristine sulfate') ('vincristine_sulfate', 'vincristine_sulfate')"
p70
tp71
sS'np_009169'
p72
NsS'phenamil'
p73
NsS'pentobarbital'
p74
((F1.0
S'pentobarbital_sodium'
p75
tp76
S"Suffix-based-exact-matching ('pentobarbital', 'pentobarbital sodium') ('pentobarbital', 'pentobarbital_sodium')"
p77
tp78
sS'brd_k19540840'
p79
NsS'trastuzumab'
p80
NsS'selumetinib'
p81
NsS'alpha_naphthoflavone'
p82
NsS'brd_k41859756'
p83
NsS'lomustine'
p84
NsS'vu0415556_1'
p85
NsS'brd_k78385490'
p86
NsS'hg_14_10_04'
p87
NsS'brd_k18726304'
p88
NsS'sch_351591'
p89
NsS'levosulpiride'
p90
NsS'brd_k86574132'
p91
NsS'vu0365114_2'
p92
NsS'brd_k20123385'
p93
NsS'gefitinib'
p94
NsS'gsk_461364'
p95
NsS'brd_k81795824'
p96
NsS'su11652'
p97
NsS'ethanol'
p98
NsS'secobarbital'
p99
((F1.0
S'secobarbital_sodium'
p100
tp101
S"Suffix-based-exact-matching ('secobarbital', 'secobarbital sodium') ('secobarbital', 'secobarbital_sodium')"
p102
tp103
sS'tanespimycin'
p104
NsS'km00799'
p105
NsS'procainamide'
p106
((F1.0
S'procainamide_hydrochloride'
p107
tp108
S"Suffix-based-exact-matching ('procainamide', 'procainamide hydrochloride') ('procainamide', 'procainamide_hydrochloride')"
p109
tp110
sS'phenelzine'
p111
((F1.0
S'phenelzine_sulfate'
p112
tp113
S"Suffix-based-exact-matching ('phenelzine', 'phenelzine sulfate') ('phenelzine', 'phenelzine_sulfate')"
p114
tp115
sS'prima_1_met'
p116
NsS'malonoben'
p117
NsS'r406'
p118
NsS'brd_k56111351'
p119
NsS'gsk_3_inhibitor_ii'
p120
NsS'phenacemide'
p121
NsS'sisomicin'
p122
NsS'tg101348'
p123
NsS'ncgc00182378_01'
p124
NsS'clonidine'
p125
((F1.0
S'clonidine_hydrochloride'
p126
tp127
S"Suffix-based-exact-matching ('clonidine', 'clonidine hydrochloride') ('clonidine', 'clonidine_hydrochloride')"
p128
tp129
sS'streptozotocin'
p130
NsS'15_deoxy_?12_14_prostaglandin_j2'
p131
NsS'epalrestat'
p132
NsS'sulfinpyrazone'
p133
((F1.0
S'sulfinpyrazone'
p134
tp135
S"(st) matching: ratio , lcs, (key,drug) (keynorm,drugnorm 1.0 sulfinpyrazone ('sulfinpyrazone', 'sulfinpyrazone') ('sulfinpyrazone', 'sulfinpyrazone')"
p136
tp137
sS'nsc_663284'
p138
NsS'brd_k91701654'
p139
NsS'brd_k86086851'
p140
NsS'alitretinoin'
p141
NsS'brd_k03122949'
p142
NsS'kuc104495_kuc104495n'
p143
NsS'leucovorin'
p144
((F1.0
S'leucovorin_calcium'
p145
tp146
S"Suffix-based-exact-matching ('leucovorin', 'leucovorin calcium') ('leucovorin', 'leucovorin_calcium')"
p147
tp148
sS'gdc_0941'
p149
NsS'brd_k59962020'
p150
NsS'trimeprazine_tartrate'
p151
((F1.0
S'trimeprazine_tartrate'
p152
tp153
S"(st) matching: ratio , lcs, (key,drug) (keynorm,drugnorm 1.0 trimeprazine_tartrate ('trimeprazine_tartrate', 'trimeprazine tartrate') ('trimeprazine_tartrate', 'trimeprazine_tartrate')"
p154
tp155
sS'doxofylline'
p156
NsS'brd_k77480336'
p157
NsS'hy_70061'
p158
NsS'bosutinib'
p159
NsS'cgp_71683_hydrochloride'
p160
NsS'meloxicam'
p161
((F1.0
S'meloxicam'
p162
tp163
S"(st) matching: ratio , lcs, (key,drug) (keynorm,drugnorm 1.0 meloxicam ('meloxicam', 'meloxicam') ('meloxicam', 'meloxicam')"
p164
tp165
sS'pd_173074'
p166
NsS'chlorpromazine'
p167
((F1.0
S'chlorpromazine_hydrochloride'
p168
tp169
S"Suffix-based-exact-matching ('chlorpromazine', 'chlorpromazine hydrochloride') ('chlorpromazine', 'chlorpromazine_hydrochloride')"
p170
tp171
sS'brd_k52911425'
p172
NsS'n_nitrosodimethylamine'
p173
NsS'penciclovir'
p174
NsS'a443654'
p175
NsS'bu_239_hydrochloride'
p176
NsS'tegaserod'
p177
NsS'm_3m3fbs'
p178
NsS'serdemetan'
p179
NsS'azasetron'
p180
NsS'medrysone'
p181
NsS'mgcd_265'
p182
NsS'3_methylcholanthrene'
p183
NsS't0516_4420'
p184
NsS'chlorzoxazone'
p185
((F1.0
S'chlorzoxazone'
p186
tp187
S"(st) matching: ratio , lcs, (key,drug) (keynorm,drugnorm 1.0 chlorzoxazone ('chlorzoxazone', 'chlorzoxazone') ('chlorzoxazone', 'chlorzoxazone')"
p188
tp189
sS't_0901317'
p190
NsS'capsaicin'
p191
NsS'lead_(ii)_acetate'
p192
NsS'chlormadinone_acetate'
p193
NsS'ncgc00181799_01'
p194
NsS'sid_26681509'
p195
NsS'tivozanib'
p196
NsS'brd_k49865102'
p197
NsS'fludarabine'
p198
((F1.0
S'fludarabine_phosphate'
p199
tp200
S"Suffix-based-exact-matching ('fludarabine', 'fludarabine phosphate') ('fludarabine', 'fludarabine_phosphate')"
p201
tp202
sS'quetiapine'
p203
((F1.0
S'quetiapine_fumarate'
p204
tp205
S"Suffix-based-exact-matching ('quetiapine', 'quetiapine fumarate') ('quetiapine', 'quetiapine_fumarate')"
p206
tp207
sS'vu0418939_2'
p208
NsS'cinobufagin'
p209
NsS'brd_k83972459'
p210
NsS'bms_345541'
p211
NsS's1154'
p212
NsS's1152'
p213
NsS'mercaptopurine'
p214
((F1.0
S'mercaptopurine'
p215
tp216
S"(st) matching: ratio , lcs, (key,drug) (keynorm,drugnorm 1.0 mercaptopurine ('mercaptopurine', 'mercaptopurine') ('mercaptopurine', 'mercaptopurine')"
p217
tp218
sS'griseofulvin'
p219
((F1.0
S'griseofulvin'
p220
tp221
S"(st) matching: ratio , lcs, (key,drug) (keynorm,drugnorm 1.0 griseofulvin ('griseofulvin', 'griseofulvin') ('griseofulvin', 'griseofulvin')"
p222
tp223
sS'gatifloxacin'
p224
((F1.0
S'gatifloxacin'
p225
tp226
S"(st) matching: ratio , lcs, (key,drug) (keynorm,drugnorm 1.0 gatifloxacin ('gatifloxacin', 'gatifloxacin') ('gatifloxacin', 'gatifloxacin')"
p227
tp228
sS'brd_k38340366'
p229
NsS'latanoprost'
p230
((F1.0
S'latanoprost'
p231
tp232
S"(st) matching: ratio , lcs, (key,drug) (keynorm,drugnorm 1.0 latanoprost ('latanoprost', 'latanoprost') ('latanoprost', 'latanoprost')"
p233
tp234
sS'netilmicin'
p235
NsS'calcitriol'
p236
((F1.0
S'calcitriol'
p237
tp238
S"(st) matching: ratio , lcs, (key,drug) (keynorm,drugnorm 1.0 calcitriol ('calcitriol', 'calcitriol') ('calcitriol', 'calcitriol')"
p239
tp240
sS'brd_a19248578'
p241
NsS'niguldipine'
p242
NsS'tpca_1'
p243
NsS'brd_k39829853'
p244
NsS'sb_525334'
p245
NsS'at_mlpcn_csc_006'
p246
NsS'brd_k31706415'
p247
NsS'brd_k17953061'
p248
NsS'gr_79236'
p249
NsS'triacetin'
p250
NsS'brd_k02558072'
p251
NsS'scoulerine'
p252
NsS'enalapril_maleate'
p253
((F1.0
S'enalapril_maleate'
p254
tp255
S"Suffix-based-exact-matching ('enalapril_maleate', 'enalapril maleate') ('enalapril_maleate', 'enalapril_maleate')"
p256
tp257
sS'pd_00735'
p258
NsS'brd_k98824517'
p259
NsS'dihydroergocristine_mesylate'
p260
NsS'letrozole'
p261
((F1.0
S'letrozole'
p262
tp263
S"(st) matching: ratio , lcs, (key,drug) (keynorm,drugnorm 1.0 letrozole ('letrozole', 'letrozole') ('letrozole', 'letrozole')"
p264
tp265
sS'ag_9'
p266
NsS'temafloxacin'
p267
NsS'sulfathiazole'
p268
NsS'bufalin'
p269
NsS'st4062971'
p270
NsS'epinephrine'
p271
((F1.0
S'epinephrine_bitartrate'
p272
tp273
S"Suffix-based-exact-matching ('epinephrine', 'epinephrine bitartrate') ('epinephrine', 'epinephrine_bitartrate')"
p274
tp275
sS'ingenol_3__20_dibenzoate'
p276
NsS'mitomycin_c'
p277
NsS'brd_k45399554'
p278
NsS'brd_a16820783'
p279
NsS'd_galactosamine'
p280
NsS'a_275'
p281
NsS'brd_k41845021'
p282
NsS'c1386'
p283
NsS'brd_k96274284'
p284
NsS'nsc_95397'
p285
NsS'bcl_2_inhibitor'
p286
NsS'roxarsone'
p287
NsS'brl_37344__sodium_salt'
p288
NsS'brd_k22322324'
p289
NsS'u_18666a'
p290
NsS'clofibric_acid'
p291
NsS'9_amino_1_2_3_4_tetrahydroacridine'
p292
NsS'dmp_543'
p293
NsS'dexamethasone_acetate'
p294
((F1.0
S'dexamethasone'
p295
tp296
S"Suffix-based-exact-matching ('dexamethasone_acetate', 'dexamethasone') ('dexamethasone_acetate', 'dexamethasone')"
p297
tp298
sS'celecoxib'
p299
((F1.0
S'celecoxib'
p300
tp301
S"(st) matching: ratio , lcs, (key,drug) (keynorm,drugnorm 1.0 celecoxib ('celecoxib', 'celecoxib') ('celecoxib', 'celecoxib')"
p302
tp303
sS'gabexate'
p304
NsS'brd_k12105018'
p305
NsS'flurandrenolide'
p306
((F1.0
S'flurandrenolide'
p307
tp308
S"(st) matching: ratio , lcs, (key,drug) (keynorm,drugnorm 1.0 flurandrenolide ('flurandrenolide', 'flurandrenolide') ('flurandrenolide', 'flurandrenolide')"
p309
tp310
sS'ofloxacin'
p311
((F1.0
S'ofloxacin'
p312
tp313
S"(st) matching: ratio , lcs, (key,drug) (keynorm,drugnorm 1.0 ofloxacin ('ofloxacin', 'ofloxacin') ('ofloxacin', 'ofloxacin')"
p314
tp315
sS'd_4476'
p316
NsS'praziquantel'
p317
((F1.0
S'praziquantel'
p318
tp319
S"(st) matching: ratio , lcs, (key,drug) (keynorm,drugnorm 1.0 praziquantel ('praziquantel', 'praziquantel') ('praziquantel', 'praziquantel')"
p320
tp321
sS'(e)_capsaicin'
p322
NsS'hydrocortisone_acetate'
p323
((F1.0
S'hydrocortisone_acetate'
p324
tp325
S"Suffix-based-exact-matching ('hydrocortisone_acetate', 'hydrocortisone acetate') ('hydrocortisone_acetate', 'hydrocortisone_acetate')"
p326
tp327
sS'losartan'
p328
((F1.0
S'losartan_potassium'
p329
tp330
S"Suffix-based-exact-matching ('losartan', 'losartan potassium') ('losartan', 'losartan_potassium')"
p331
tp332
sS'flubendazole'
p333
NsS'4_nonylphenol'
p334
NsS'dimenhydrinate'
p335
((F1.0
S'dimenhydrinate'
p336
tp337
S"(st) matching: ratio , lcs, (key,drug) (keynorm,drugnorm 1.0 dimenhydrinate ('dimenhydrinate', 'dimenhydrinate') ('dimenhydrinate', 'dimenhydrinate')"
p338
tp339
sS'dipivefrin_hydrochloride'
p340
((F1.0
S'dipivefrin_hydrochloride'
p341
tp342
S"Suffix-based-exact-matching ('dipivefrin_hydrochloride', 'dipivefrin hydrochloride') ('dipivefrin_hydrochloride', 'dipivefrin_hydrochloride')"
p343
tp344
sS'closantel'
p345
NsS'donepezil_hydrochloride'
p346
((F1.0
S'donepezil_hydrochloride'
p347
tp348
S"Suffix-based-exact-matching ('donepezil_hydrochloride', 'donepezil hydrochloride') ('donepezil_hydrochloride', 'donepezil_hydrochloride')"
p349
tp350
sS'np_002491'
p351
NsS'hemicholinium'
p352
NsS'ncgc00183387_01'
p353
NsS'cyclopamine'
p354
NsS'trifluoperazine'
p355
((F1.0
S'trifluoperazine_hydrochloride'
p356
tp357
S"Suffix-based-exact-matching ('trifluoperazine', 'trifluoperazine hydrochloride') ('trifluoperazine', 'trifluoperazine_hydrochloride')"
p358
tp359
sS'brd_k00313977'
p360
NsS'brd_k80346834'
p361
NsS'brd_k01436366'
p362
NsS'sdz_nkt_343'
p363
NsS'propyl_beta_carboline_3_carboxylate'
p364
NsS'brd_k62818989'
p365
NsS'amiodarone_hydrochloride'
p366
((F1.0
S'amiodarone_hydrochloride'
p367
tp368
S"Suffix-based-exact-matching ('amiodarone_hydrochloride', 'amiodarone hydrochloride') ('amiodarone_hydrochloride', 'amiodarone_hydrochloride')"
p369
tp370
sS'n_benzylnaltrindole_hydrochloride'
p371
NsS'azacitidine'
p372
((F1.0
S'azacitidine'
p373
tp374
S"(st) matching: ratio , lcs, (key,drug) (keynorm,drugnorm 1.0 azacitidine ('azacitidine', 'azacitidine') ('azacitidine', 'azacitidine')"
p375
tp376
sS'esmolol'
p377
((F1.0
S'esmolol_hydrochloride'
p378
tp379
S"Suffix-based-exact-matching ('esmolol', 'esmolol hydrochloride') ('esmolol', 'esmolol_hydrochloride')"
p380
tp381
sS'metoclopramide'
p382
((F1.0
S'metoclopramide_hydrochloride'
p383
tp384
S"Suffix-based-exact-matching ('metoclopramide', 'metoclopramide hydrochloride') ('metoclopramide', 'metoclopramide_hydrochloride')"
p385
tp386
sS'retinoic_acid'
p387
NsS'fluvastatin_sodium_salt'
p388
NsS'forskolin'
p389
NsS'brd_k66792149'
p390
NsS'arsenic_trioxide'
p391
((F1.0
S'arsenic_trioxide'
p392
tp393
S"(st) matching: ratio , lcs, (key,drug) (keynorm,drugnorm 1.0 arsenic_trioxide ('arsenic_trioxide', 'arsenic trioxide') ('arsenic_trioxide', 'arsenic_trioxide')"
p394
tp395
sS'ei_232'
p396
NsS'g5797'
p397
NsS'xmd_885'
p398
NsS'naringenine'
p399
NsS'b3063'
p400
NsS'epibatidine_(+/_)'
p401
NsS'carbimazole'
p402
NsS'isoproterenol_hydrochloride'
p403
((F1.0
S'isoproterenol_hydrochloride'
p404
tp405
S"Suffix-based-exact-matching ('isoproterenol_hydrochloride', 'isoproterenol hydrochloride') ('isoproterenol_hydrochloride', 'isoproterenol_hydrochloride')"
p406
tp407
sS'ag14361'
p408
NsS'oxolinic_acid'
p409
NsS'primaquine'
p410
((F1.0
S'primaquine_phosphate'
p411
tp412
S"Suffix-based-exact-matching ('primaquine', 'primaquine phosphate') ('primaquine', 'primaquine_phosphate')"
p413
tp414
sS'n_acetyl_dl_homocysteine_thiolactone'
p415
NsS'brd_k61776140'
p416
NsS'celastrol'
p417
NsS'ro_28_1675_?'
p418
NsS'nvp_tae226'
p419
NsS'brd_k72817452'
p420
NsS'colistin'
p421
((F0.875
S'colistimethate_sodium'
p422
tp423
S"(st) matching: ratio , lcs, (key,drug) (keynorm,drugnorm 0.875 colisti ('colistin', 'colistimethate sodium') ('colistin', 'colistimethate_sodium')"
p424
tp425
sS'bibx_1382_dihydrochloride'
p426
NsS'bh3i_1'
p427
NsS'ncgc00183696_01'
p428
NsS'c3393m50'
p429
NsS'vinorelbine'
p430
((F1.0
S'vinorelbine_tartrate'
p431
tp432
S"(st) matching: ratio , lcs, (key,drug) (keynorm,drugnorm 1.0 vinorelbine ('vinorelbine', 'vinorelbine tartrate') ('vinorelbine', 'vinorelbine_tartrate')"
p433
tp434
sS'brd_k86231656'
p435
NsS'11_deoxy_16_16_dimethylprostaglandin_e2'
p436
NsS'brd_k74761218'
p437
NsS'brd_k06436323'
p438
NsS'dy131'
p439
NsS'etidronate'
p440
((F1.0
S'etidronate_disodium'
p441
tp442
S"Suffix-based-exact-matching ('etidronate', 'etidronate disodium') ('etidronate', 'etidronate_disodium')"
p443
tp444
sS'ncgc00183691_01'
p445
NsS'cccp'
p446
NsS'pp_1'
p447
NsS'anafranil'
p448
((F1.0
S'anafranil'
p449
tp450
S"(st) matching: ratio , lcs, (key,drug) (keynorm,drugnorm 1.0 anafranil ('anafranil', 'anafranil') ('anafranil', 'anafranil')"
p451
tp452
sS'risperidone'
p453
((F1.0
S'risperidone'
p454
tp455
S"(st) matching: ratio , lcs, (key,drug) (keynorm,drugnorm 1.0 risperidone ('risperidone', 'risperidone') ('risperidone', 'risperidone')"
p456
tp457
sS'stock3s_04022'
p458
NsS'arachidonic_acid'
p459
NsS'h_9_dihydrochloride'
p460
NsS'brd_k11663430'
p461
NsS'ncgc00184716_01'
p462
NsS'sparteine'
p463
NsS'brd_k23478508_(digoxin)'
p464
NsS'ncgc00183690_01'
p465
NsS've821'
p466
NsS'tropisetron_hcl'
p467
NsS'methocarbamol'
p468
((F1.0
S'methocarbamol'
p469
tp470
S"(st) matching: ratio , lcs, (key,drug) (keynorm,drugnorm 1.0 methocarbamol ('methocarbamol', 'methocarbamol') ('methocarbamol', 'methocarbamol')"
p471
tp472
sS'akt_inhibitor_1_2'
p473
NsS'24_diaminophenol'
p474
NsS'brd_k02113016'
p475
NsS'ei_328'
p476
NsS'erythrosine_sodium'
p477
NsS'pergolide'
p478
((F1.0
S'pergolide_mesylate'
p479
tp480
S"Suffix-based-exact-matching ('pergolide', 'pergolide mesylate') ('pergolide', 'pergolide_mesylate')"
p481
tp482
sS'sulfisoxazole'
p483
((F1.0
S'sulfisoxazole_diolamine'
p484
tp485
S"Suffix-based-exact-matching ('sulfisoxazole', 'sulfisoxazole diolamine') ('sulfisoxazole', 'sulfisoxazole_diolamine')"
p486
tp487
sS'alvocidib'
p488
NsS'ncgc00180992_01'
p489
NsS'(r)_bicalutamide'
p490
NsS'brd_k39757396'
p491
NsS'norgestimate'
p492
((F1.0
S'norgestimate'
p493
tp494
S"(st) matching: ratio , lcs, (key,drug) (keynorm,drugnorm 1.0 norgestimate ('norgestimate', 'norgestimate') ('norgestimate', 'norgestimate')"
p495
tp496
sS'amitraz'
p497
NsS'chaetocin'
p498
NsS'camptothecine_(s_+)'
p499
NsS'dephostatin'
p500
NsS'bapta_am'
p501
NsS'promazine_hydrochloride'
p502
((F1.0
S'promazine_hydrochloride'
p503
tp504
S"Suffix-based-exact-matching ('promazine_hydrochloride', 'promazine hydrochloride') ('promazine_hydrochloride', 'promazine_hydrochloride')"
p505
tp506
sS'sulfachlorpyridazine'
p507
NsS'clonazepam'
p508
((F1.0
S'clonazepam'
p509
tp510
S"(st) matching: ratio , lcs, (key,drug) (keynorm,drugnorm 1.0 clonazepam ('clonazepam', 'clonazepam') ('clonazepam', 'clonazepam')"
p511
tp512
sS'ncgc00242337_01'
p513
NsS's1527'
p514
NsS'amuvatinib'
p515
NsS'norepinephrine'
p516
((F1.0
S'norepinephrine_bitartrate'
p517
tp518
S"Suffix-based-exact-matching ('norepinephrine', 'norepinephrine bitartrate') ('norepinephrine', 'norepinephrine_bitartrate')"
p519
tp520
sS'cycloheximide'
p521
NsS'furan'
p522
((F1.0
S'nitrofurantoin_macrocrystalline'
p523
tp524
S"(st) matching: ratio , lcs, (key,drug) (keynorm,drugnorm 1.0 furan ('furan', 'nitrofurantoin macrocrystalline') ('furan', 'nitrofurantoin_macrocrystalline')"
p525
tp526
sS'brd_u68942961'
p527
NsS'h_5832'
p528
NsS'brd_k70871370'
p529
NsS'brd_a49848186'
p530
NsS'puromycin_dihydrochloride'
p531
NsS'brd_k16118047'
p532
NsS's1142'
p533
NsS'xmd16_144'
p534
NsS'brd_a75931230'
p535
NsS's1455'
p536
NsS's1452'
p537
NsS'azd_7545_a'
p538
NsS'brd_k72615639'
p539
NsS'way_170523'
p540
NsS's1458'
p541
NsS'brd_k08316444'
p542
NsS'mw_ras12'
p543
NsS'piclamilast'
p544
NsS'bl_009'
p545
NsS'rosiglitazone_hydrochloride'
p546
((F1.0
S'rosiglitazone_maleate'
p547
tp548
S"Suffix-based-exact-matching ('rosiglitazone_hydrochloride', 'rosiglitazone maleate') ('rosiglitazone_hydrochloride', 'rosiglitazone_maleate')"
p549
tp550
sS'brd_k49094915'
p551
NsS'vorinostat'
p552
NsS'oxytetracycline'
p553
((F1.0
S'oxytetracycline_hydrochloride'
p554
tp555
S"Suffix-based-exact-matching ('oxytetracycline', 'oxytetracycline hydrochloride') ('oxytetracycline', 'oxytetracycline_hydrochloride')"
p556
tp557
sS'rlm_1_127'
p558
NsS's1035'
p559
NsS's1030'
p560
NsS'artemether'
p561
NsS'ncgc00182382_01'
p562
NsS'isoeugenol'
p563
NsS'wh_4_025'
p564
NsS'ici_199_441_hydrochloride'
p565
NsS'primidone'
p566
((F1.0
S'primidone'
p567
tp568
S"(st) matching: ratio , lcs, (key,drug) (keynorm,drugnorm 1.0 primidone ('primidone', 'primidone') ('primidone', 'primidone')"
p569
tp570
sS'ikk_inhibitor_x'
p571
NsS'l_733_060_hydrochloride'
p572
NsS'benazepril'
p573
((F1.0
S'benazepril_hydrochloride'
p574
tp575
S"Suffix-based-exact-matching ('benazepril', 'benazepril hydrochloride') ('benazepril', 'benazepril_hydrochloride')"
p576
tp577
sS'mls_0091943.0001'
p578
NsS'brd_k57016430'
p579
NsS'brd_k71554540'
p580
NsS'mepacrine'
p581
NsS'sl_231'
p582
NsS'papaverine'
p583
NsS'famotidine'
p584
((F1.0
S'famotidine'
p585
tp586
S"(st) matching: ratio , lcs, (key,drug) (keynorm,drugnorm 1.0 famotidine ('famotidine', 'famotidine') ('famotidine', 'famotidine')"
p587
tp588
sS'brd_k79404599'
p589
NsS'pd_0325901'
p590
NsS'diethylstilbestrol'
p591
((F1.0
S'diethylstilbestrol'
p592
tp593
S"(st) matching: ratio , lcs, (key,drug) (keynorm,drugnorm 1.0 diethylstilbestrol ('diethylstilbestrol', 'diethylstilbestrol') ('diethylstilbestrol', 'diethylstilbestrol')"
p594
tp595
sS'podophyllotoxin'
p596
NsS'16_hydroxytriptolide'
p597
NsS'mammea_a/ba_+_a/bb'
p598
NsS'gold_sodium_thiomalate'
p599
NsS'brd_a25337146'
p600
NsS'at_7519'
p601
NsS'diphemanil_methylsulfate'
p602
NsS'brd_k08448573'
p603
NsS'fu_jmbii105b'
p604
NsS'brd_k16057611'
p605
NsS'hexachloro_13_butadiene'
p606
NsS'rg_108'
p607
NsS'brd_k48803730'
p608
NsS'bay_36_7620'
p609
NsS'diflunisal'
p610
((F1.0
S'diflunisal'
p611
tp612
S"(st) matching: ratio , lcs, (key,drug) (keynorm,drugnorm 1.0 diflunisal ('diflunisal', 'diflunisal') ('diflunisal', 'diflunisal')"
p613
tp614
sS'pracinostat'
p615
NsS'betamethasone_acetate'
p616
((F1.0
S'betamethasone_dipropionate'
p617
tp618
S"Suffix-based-exact-matching ('betamethasone_acetate', 'betamethasone dipropionate') ('betamethasone_acetate', 'betamethasone_dipropionate')"
p619
tp620
sS'ag_592'
p621
NsS'amlodipine_base'
p622
NsS'ncgc00183260_01'
p623
NsS'brd_a18411371'
p624
NsS't0518_4011'
p625
NsS'as_605240'
p626
NsS'omeprazole'
p627
((F1.0
S'omeprazole_magnesium'
p628
tp629
S"Suffix-based-exact-matching ('omeprazole', 'omeprazole magnesium') ('omeprazole', 'omeprazole_magnesium')"
p630
tp631
sS'dicloxacillin_sodium_salt_hydrate'
p632
NsS'brd_k14027855'
p633
NsS'n_phenylanthranilic_acid'
p634
NsS'brd_k59470558'
p635
NsS'p233'
p636
NsS'meloxicam_sodium'
p637
((F1.0
S'meloxicam'
p638
tp639
S"Suffix-based-exact-matching ('meloxicam_sodium', 'meloxicam') ('meloxicam_sodium', 'meloxicam')"
p640
tp641
sS'ncgc00183388_01'
p642
NsS'pf3845'
p643
NsS'ym_155'
p644
NsS'miconazole'
p645
((F1.0
S'miconazole_nitrate'
p646
tp647
S"Suffix-based-exact-matching ('miconazole', 'miconazole nitrate') ('miconazole', 'miconazole_nitrate')"
p648
tp649
sS'brd_k90999434'
p650
NsS'amoxicillin'
p651
((F1.0
S'amoxicillin_pediatric'
p652
tp653
S"Suffix-based-exact-matching ('amoxicillin', 'amoxicillin pediatric') ('amoxicillin', 'amoxicillin_pediatric')"
p654
tp655
sS'vinblastine_sulfate'
p656
((F1.0
S'vinblastine_sulfate'
p657
tp658
S"Suffix-based-exact-matching ('vinblastine_sulfate', 'vinblastine sulfate') ('vinblastine_sulfate', 'vinblastine_sulfate')"
p659
tp660
sS'e3380'
p661
NsS'pifithrin__?'
p662
NsS'brd_k81814927'
p663
NsS'amethopterin_(r_s)'
p664
NsS'brd_k58547240'
p665
NsS'balsalazide'
p666
((F1.0
S'balsalazide_disodium'
p667
tp668
S"Suffix-based-exact-matching ('balsalazide', 'balsalazide disodium') ('balsalazide', 'balsalazide_disodium')"
p669
tp670
sS'brd_k32568627'
p671
NsS'brd_a61825514'
p672
NsS'linolenic_acid_(18:3_n_3)'
p673
NsS'indirubin_3?_monoxime'
p674
NsS'brd_k03015355'
p675
NsS'guanethidine'
p676
((F1.0
S'guanethidine_monosulfate'
p677
tp678
S"(st) matching: ratio , lcs, (key,drug) (keynorm,drugnorm 1.0 guanethidine ('guanethidine', 'guanethidine monosulfate') ('guanethidine', 'guanethidine_monosulfate')"
p679
tp680
sS'brd_u51951544'
p681
NsS'lomefloxacin'
p682
NsS'tetracaine'
p683
((F1.0
S'tetracaine_hydrochloride'
p684
tp685
S"Suffix-based-exact-matching ('tetracaine', 'tetracaine hydrochloride') ('tetracaine', 'tetracaine_hydrochloride')"
p686
tp687
sS'brd_k07005393'
p688
NsS'nvp_bez235'
p689
NsS'xmd_892'
p690
NsS'ibufenac'
p691
NsS'y_39983'
p692
NsS'brd_a63583287'
p693
NsS'econazole'
p694
((F1.0
S'econazole_nitrate'
p695
tp696
S"Suffix-based-exact-matching ('econazole', 'econazole nitrate') ('econazole', 'econazole_nitrate')"
p697
tp698
sS'brd_k45842176'
p699
NsS'prinomastat'
p700
NsS'phenytoin'
p701
((F1.0
S'phenytoin_sodium'
p702
tp703
S"Suffix-based-exact-matching ('phenytoin', 'phenytoin sodium') ('phenytoin', 'phenytoin_sodium')"
p704
tp705
sS'yk_4_279'
p706
NsS'pimozide'
p707
((F1.0
S'pimozide'
p708
tp709
S"(st) matching: ratio , lcs, (key,drug) (keynorm,drugnorm 1.0 pimozide ('pimozide', 'pimozide') ('pimozide', 'pimozide')"
p710
tp711
sS'sb590885'
p712
NsS'ciclosporin'
p713
NsS'carbamazepine'
p714
((F1.0
S'carbamazepine'
p715
tp716
S"(st) matching: ratio , lcs, (key,drug) (keynorm,drugnorm 1.0 carbamazepine ('carbamazepine', 'carbamazepine') ('carbamazepine', 'carbamazepine')"
p717
tp718
sS'bms_777607'
p719
NsS'methoxamine'
p720
NsS'pregnenolone_succinate'
p721
NsS'rs_504393'
p722
NsS'gsk_1059615'
p723
NsS'brd_k89224880'
p724
NsS'dichlorobenzamil'
p725
NsS'pravastatin_sodium_salt'
p726
NsS'brd_k33045404'
p727
NsS'piretanide'
p728
NsS'mitoxantrone_dihydrochloride'
p729
((F1.0
S'mitoxantrone_hydrochloride'
p730
tp731
S"Suffix-based-exact-matching ('mitoxantrone_dihydrochloride', 'mitoxantrone hydrochloride') ('mitoxantrone_dihydrochloride', 'mitoxantrone_hydrochloride')"
p732
tp733
sS'ponatinib'
p734
NsS'desloratadine'
p735
((F1.0
S'desloratadine'
p736
tp737
S"(st) matching: ratio , lcs, (key,drug) (keynorm,drugnorm 1.0 desloratadine ('desloratadine', 'desloratadine') ('desloratadine', 'desloratadine')"
p738
tp739
sS'brd_a32449311'
p740
NsS'rottlerin'
p741
NsS'ncgc00167398_02'
p742
NsS'd_64131'
p743
NsS'azathioprine'
p744
((F1.0
S'azathioprine_sodium'
p745
tp746
S"Suffix-based-exact-matching ('azathioprine', 'azathioprine sodium') ('azathioprine', 'azathioprine_sodium')"
p747
tp748
sS'ascorbic_acid'
p749
((F1.0
S'ascorbic_acid'
p750
tp751
S"(st) matching: ratio , lcs, (key,drug) (keynorm,drugnorm 1.0 ascorbic_acid ('ascorbic_acid', 'ascorbic acid') ('ascorbic_acid', 'ascorbic_acid')"
p752
tp753
sS'brd_k62310379_(fluticasone_propionate)'
p754
NsS'h7270'
p755
NsS'n_n_hexamethyleneamiloride'
p756
NsS'brd_k51454562'
p757
NsS'lfm_a13'
p758
NsS'unc0321'
p759
NsS'sodium_arsenite'
p760
NsS'curcumin'
p761
NsS'captopril'
p762
((F1.0
S'captopril'
p763
tp764
S"(st) matching: ratio , lcs, (key,drug) (keynorm,drugnorm 1.0 captopril ('captopril', 'captopril') ('captopril', 'captopril')"
p765
tp766
sS'procaine'
p767
((F1.0
S'procaine_hydrochloride'
p768
tp769
S"Suffix-based-exact-matching ('procaine', 'procaine hydrochloride') ('procaine', 'procaine_hydrochloride')"
p770
tp771
sS'brd_a68061604'
p772
NsS'aminopurvalanol_a'
p773
NsS'domperidone'
p774
NsS'ku_55933'
p775
NsS'brd_a80960055'
p776
NsS'akti_1/2'
p777
NsS'np_010914'
p778
NsS'mercuric_chloride'
p779
NsS'tyrphostin_ag_1478'
p780
NsS'bx_795'
p781
NsS'r(_)_2_11_dihydroxy_10_methoxyaporphine'
p782
NsS'arctigenin'
p783
NsS'palbociclib'
p784
NsS'verapamil'
p785
((F1.0
S'verapamil_hydrochloride'
p786
tp787
S"Suffix-based-exact-matching ('verapamil', 'verapamil hydrochloride') ('verapamil', 'verapamil_hydrochloride')"
p788
tp789
sS'nnc_05_2090_hydrochloride'
p790
NsS'gdc_0980'
p791
NsS'bml_259'
p792
NsS'sulfaphenazole'
p793
NsS'ei_332'
p794
NsS'oxymetholone'
p795
NsS'fenretinide'
p796
NsS'riluzole_hydrochloride'
p797
((F1.0
S'riluzole'
p798
tp799
S"Suffix-based-exact-matching ('riluzole_hydrochloride', 'riluzole') ('riluzole_hydrochloride', 'riluzole')"
p800
tp801
sS'ncgc00182380_01'
p802
NsS'brd_a50774520'
p803
NsS'ku_60019'
p804
NsS'brd_k79382620'
p805
NsS'zeranol'
p806
NsS'brd_k02216544'
p807
NsS'ncgc00165289_01'
p808
NsS'raf_265'
p809
NsS'cisplatin'
p810
((F1.0
S'cisplatin'
p811
tp812
S"(st) matching: ratio , lcs, (key,drug) (keynorm,drugnorm 1.0 cisplatin ('cisplatin', 'cisplatin') ('cisplatin', 'cisplatin')"
p813
tp814
sS'brd_k06666320'
p815
NsS'deoxycorticosterone'
p816
NsS'inhibitor_bec_hydrochloride'
p817
NsS'rimexolone'
p818
NsS'brd_k85853281'
p819
NsS'karakoline'
p820
NsS'ncgc00187898_02'
p821
NsS'gsk_1904529a'
p822
NsS'2_chloro_7_methoxyphenothiazine'
p823
NsS'monocrotaline'
p824
NsS'floxuridine'
p825
((F1.0
S'floxuridine'
p826
tp827
S"(st) matching: ratio , lcs, (key,drug) (keynorm,drugnorm 1.0 floxuridine ('floxuridine', 'floxuridine') ('floxuridine', 'floxuridine')"
p828
tp829
sS'jas07_004'
p830
NsS'pd_407824'
p831
NsS'jas07_003'
p832
NsS'erk_inhibitor_11e'
p833
NsS'jas07_008'
p834
NsS'saracatinib'
p835
NsS'zoxazolamine'
p836
NsS'brl_15572_hydrochloride'
p837
NsS'mls_0390943.0002'
p838
NsS'brd_k06592610'
p839
NsS'brd_k53414658'
p840
NsS'cerivastatin_na'
p841
NsS'salermide'
p842
NsS'nobiletin'
p843
NsS'fk506'
p844
NsS's1040'
p845
NsS'testosterone_propionate'
p846
((F1.0
S'testosterone'
p847
tp848
S"Suffix-based-exact-matching ('testosterone_propionate', 'testosterone') ('testosterone_propionate', 'testosterone')"
p849
tp850
sS's1042'
p851
NsS'aminolevulinic_acid'
p852
NsS'cgp_53353'
p853
NsS'brazilin'
p854
NsS'econazole_nitrate'
p855
((F1.0
S'econazole_nitrate'
p856
tp857
S"Suffix-based-exact-matching ('econazole_nitrate', 'econazole nitrate') ('econazole_nitrate', 'econazole_nitrate')"
p858
tp859
sS'brd_k64366758'
p860
NsS'akt_inhibitor_x'
p861
NsS'brd_k41925105'
p862
NsS'interleukin_1_beta'
p863
NsS'mafenide'
p864
((F1.0
S'mafenide_acetate'
p865
tp866
S"Suffix-based-exact-matching ('mafenide', 'mafenide acetate') ('mafenide', 'mafenide_acetate')"
p867
tp868
sS'brd_k94173926'
p869
NsS'brd_k15592317'
p870
NsS'trimetozine'
p871
NsS'brd_a41250203'
p872
NsS'jak3_inhibitor_vi'
p873
NsS'etiocholanolone'
p874
NsS'brd_a54632525'
p875
NsS'imodium'
p876
((F1.0
S'imodium'
p877
tp878
S"(st) matching: ratio , lcs, (key,drug) (keynorm,drugnorm 1.0 imodium ('imodium', 'imodium') ('imodium', 'imodium')"
p879
tp880
sS'atenolol'
p881
((F1.0
S'atenolol'
p882
tp883
S"(st) matching: ratio , lcs, (key,drug) (keynorm,drugnorm 1.0 atenolol ('atenolol', 'atenolol') ('atenolol', 'atenolol')"
p884
tp885
sS'hydroxyurea'
p886
((F1.0
S'hydroxyurea'
p887
tp888
S"(st) matching: ratio , lcs, (key,drug) (keynorm,drugnorm 1.0 hydroxyurea ('hydroxyurea', 'hydroxyurea') ('hydroxyurea', 'hydroxyurea')"
p889
tp890
sS'brd_k14696368'
p891
NsS's1362'
p892
NsS'aminosalicylic_acid'
p893
NsS'skf_96365_hydrochloride'
p894
NsS'brd_k18861610'
p895
NsS'ag_014699_(pf_01367338)'
p896
NsS'brd_k18724229'
p897
NsS'lipopolysaccharide_e._coli_o55:b5'
p898
NsS'tazobactam'
p899
((F1.0
S'tazobactam'
p900
tp901
S"(st) matching: ratio , lcs, (key,drug) (keynorm,drugnorm 1.0 tazobactam ('tazobactam', 'tazobactam') ('tazobactam', 'tazobactam')"
p902
tp903
sS'sgi_1776'
p904
NsS'mefloquine'
p905
((F1.0
S'mefloquine_hydrochloride'
p906
tp907
S"Suffix-based-exact-matching ('mefloquine', 'mefloquine hydrochloride') ('mefloquine', 'mefloquine_hydrochloride')"
p908
tp909
sS'tenidap'
p910
NsS'embelin'
p911
((F1.0
S'embeline'
p912
tp913
S"(st) matching: ratio , lcs, (key,drug) (keynorm,drugnorm 1.0 embelin ('embelin', 'embeline') ('embelin', 'embeline')"
p914
tp915
sS'brd_k81609421'
p916
NsS'lead(iv)_acetate'
p917
NsS'ciclopirox_ethanolamine'
p918
NsS'fenofibrate'
p919
((F1.0
S'fenofibrate'
p920
tp921
S"(st) matching: ratio , lcs, (key,drug) (keynorm,drugnorm 1.0 fenofibrate ('fenofibrate', 'fenofibrate') ('fenofibrate', 'fenofibrate')"
p922
tp923
sS'geraniol'
p924
NsS'bms_191011'
p925
NsS'cdk2/5_inhibitor'
p926
NsS'gr_237'
p927
NsS'brd_k65366129'
p928
NsS'brd_k83691318'
p929
NsS'cyt387'
p930
NsS'gallamine_triethiodide'
p931
NsS'artemisinin'
p932
NsS'ncgc00184834_01'
p933
NsS'betamethasone_17_21_dipropionate'
p934
NsS'brd_k35483542'
p935
NsS'tws_119'
p936
NsS'dinaciclib'
p937
NsS'ppt'
p938
NsS'jw_7_24_1'
p939
NsS'nvp_bgj398'
p940
NsS'brd_k13810148'
p941
NsS'colchicine'
p942
((F1.0
S'colchicine'
p943
tp944
S"(st) matching: ratio , lcs, (key,drug) (keynorm,drugnorm 1.0 colchicine ('colchicine', 'colchicine') ('colchicine', 'colchicine')"
p945
tp946
sS'brd_k59705555'
p947
NsS'brd_k72451865'
p948
NsS'sulfadimethoxine'
p949
NsS'bms_536924'
p950
NsS'reserpine'
p951
((F1.0
S'reserpine'
p952
tp953
S"(st) matching: ratio , lcs, (key,drug) (keynorm,drugnorm 1.0 reserpine ('reserpine', 'reserpine') ('reserpine', 'reserpine')"
p954
tp955
sS'ly_294002'
p956
NsS'kin001_220'
p957
NsS'brd_k94991378'
p958
NsS'lorazepam'
p959
((F1.0
S'lorazepam_intensol'
p960
tp961
S"Suffix-based-exact-matching ('lorazepam', 'lorazepam intensol') ('lorazepam', 'lorazepam_intensol')"
p962
tp963
sS'amodiaquin_dihydrochloride_dihydrate'
p964
NsS'alendronic_acid'
p965
NsS'hy_10181'
p966
NsS'pp3'
p967
NsS'brd_a93015352'
p968
NsS'vx_680'
p969
NsS'emetine_dihydrochloride_hydrate_(74)'
p970
NsS'14_dichlorobenzene'
p971
NsS'brd_k88198340'
p972
NsS'docetaxel'
p973
((F1.0
S'docetaxel'
p974
tp975
S"(st) matching: ratio , lcs, (key,drug) (keynorm,drugnorm 1.0 docetaxel ('docetaxel', 'docetaxel') ('docetaxel', 'docetaxel')"
p976
tp977
sS'sutent'
p978
((F1.0
S'sutent'
p979
tp980
S"(st) matching: ratio , lcs, (key,drug) (keynorm,drugnorm 1.0 sutent ('sutent', 'sutent') ('sutent', 'sutent')"
p981
tp982
sS'trichloroacetic_acid'
p983
NsS'enalapril'
p984
((F1.0
S'enalapril_maleate'
p985
tp986
S"Suffix-based-exact-matching ('enalapril', 'enalapril maleate') ('enalapril', 'enalapril_maleate')"
p987
tp988
sS't542500'
p989
NsS'sarmentogenin'
p990
NsS'mln4924'
p991
NsS'stannous_fluoride'
p992
NsS'ei_195'
p993
NsS'brd_k64642496'
p994
NsS'as605240'
p995
NsS'obaa'
p996
NsS'megestrol_acetate'
p997
((F1.0
S'megestrol_acetate'
p998
tp999
S"Suffix-based-exact-matching ('megestrol_acetate', 'megestrol acetate') ('megestrol_acetate', 'megestrol_acetate')"
p1000
tp1001
sS'neomycin'
p1002
((F1.0
S'neomycin_sulfate'
p1003
tp1004
S"Suffix-based-exact-matching ('neomycin', 'neomycin sulfate') ('neomycin', 'neomycin_sulfate')"
p1005
tp1006
sS'acetaminophen'
p1007
((F1.0
S'acetaminophen'
p1008
tp1009
S"(st) matching: ratio , lcs, (key,drug) (keynorm,drugnorm 1.0 acetaminophen ('acetaminophen', 'acetaminophen') ('acetaminophen', 'acetaminophen')"
p1010
tp1011
sS'clemastine'
p1012
((F1.0
S'clemastine_fumarate'
p1013
tp1014
S"Suffix-based-exact-matching ('clemastine', 'clemastine fumarate') ('clemastine', 'clemastine_fumarate')"
p1015
tp1016
sS'brd_k52678950'
p1017
NsS'methyl_benzethonium_chloride'
p1018
NsS'osi_906'
p1019
NsS'oxyphenbutazone'
p1020
((F1.0
S'oxyphenbutazone'
p1021
tp1022
S"(st) matching: ratio , lcs, (key,drug) (keynorm,drugnorm 1.0 oxyphenbutazone ('oxyphenbutazone', 'oxyphenbutazone') ('oxyphenbutazone', 'oxyphenbutazone')"
p1023
tp1024
sS'brd_k05520923'
p1025
NsS'zstk_474'
p1026
NsS'brd_k50234570'
p1027
NsS'disulfiram'
p1028
((F1.0
S'disulfiram'
p1029
tp1030
S"(st) matching: ratio , lcs, (key,drug) (keynorm,drugnorm 1.0 disulfiram ('disulfiram', 'disulfiram') ('disulfiram', 'disulfiram')"
p1031
tp1032
sS'brd_k54256913'
p1033
NsS'phenolphthalein'
p1034
NsS'brd_k17140735'
p1035
NsS'methylergometrine_maleate'
p1036
NsS'mitoxantrone'
p1037
((F1.0
S'mitoxantrone_hydrochloride'
p1038
tp1039
S"Suffix-based-exact-matching ('mitoxantrone', 'mitoxantrone hydrochloride') ('mitoxantrone', 'mitoxantrone_hydrochloride')"
p1040
tp1041
sS'nitrendipine'
p1042
NsS'urethane'
p1043
NsS'nf_kb_activation_inhibitor_ii__jsh_23'
p1044
NsS'clofibrate'
p1045
((F1.0
S'clofibrate'
p1046
tp1047
S"(st) matching: ratio , lcs, (key,drug) (keynorm,drugnorm 1.0 clofibrate ('clofibrate', 'clofibrate') ('clofibrate', 'clofibrate')"
p1048
tp1049
sS'brd_k06405410'
p1050
NsS'didanosine'
p1051
((F1.0
S'didanosine'
p1052
tp1053
S"(st) matching: ratio , lcs, (key,drug) (keynorm,drugnorm 1.0 didanosine ('didanosine', 'didanosine') ('didanosine', 'didanosine')"
p1054
tp1055
sS'ncgc00182393_01'
p1056
NsS'tamoxifen'
p1057
((F1.0
S'tamoxifen_citrate'
p1058
tp1059
S"Suffix-based-exact-matching ('tamoxifen', 'tamoxifen citrate') ('tamoxifen', 'tamoxifen_citrate')"
p1060
tp1061
sS'halcinonide'
p1062
((F1.0
S'halcinonide'
p1063
tp1064
S"(st) matching: ratio , lcs, (key,drug) (keynorm,drugnorm 1.0 halcinonide ('halcinonide', 'halcinonide') ('halcinonide', 'halcinonide')"
p1065
tp1066
sS'brd_k49010888'
p1067
NsS'terazosin'
p1068
((F1.0
S'terazosin_hydrochloride'
p1069
tp1070
S"Suffix-based-exact-matching ('terazosin', 'terazosin hydrochloride') ('terazosin', 'terazosin_hydrochloride')"
p1071
tp1072
sS'diflorasone'
p1073
((F1.0
S'diflorasone_diacetate'
p1074
tp1075
S"Suffix-based-exact-matching ('diflorasone', 'diflorasone diacetate') ('diflorasone', 'diflorasone_diacetate')"
p1076
tp1077
sS'modafinil'
p1078
((F1.0
S'modafinil'
p1079
tp1080
S"(st) matching: ratio , lcs, (key,drug) (keynorm,drugnorm 1.0 modafinil ('modafinil', 'modafinil') ('modafinil', 'modafinil')"
p1081
tp1082
sS'thiethylperazine_dimalate'
p1083
NsS'uk_356618'
p1084
NsS'np_007374'
p1085
NsS'spiperone'
p1086
NsS'cvf_csc_7_brd_a32595718'
p1087
NsS'ast1306'
p1088
NsS'brd_k06765193'
p1089
NsS'byl719'
p1090
NsS'phalloidin'
p1091
NsS'brd_a85891951'
p1092
NsS'tgx_221'
p1093
NsS'brd_u82589721'
p1094
NsS'paraquat_dichloride'
p1095
NsS'nipecotic_acid'
p1096
NsS'ethinyl_estradiol'
p1097
((F1.0
S'ethinyl_estradiol'
p1098
tp1099
S"(st) matching: ratio , lcs, (key,drug) (keynorm,drugnorm 1.0 ethinyl_estradiol ('ethinyl_estradiol', 'ethinyl estradiol') ('ethinyl_estradiol', 'ethinyl_estradiol')"
p1100
tp1101
sS'bisacodyl'
p1102
((F1.0
S'bisacodyl'
p1103
tp1104
S"(st) matching: ratio , lcs, (key,drug) (keynorm,drugnorm 1.0 bisacodyl ('bisacodyl', 'bisacodyl') ('bisacodyl', 'bisacodyl')"
p1105
tp1106
sS'api_2'
p1107
NsS'brd_k75128590'
p1108
NsS'ifosfamide'
p1109
((F1.0
S'ifosfamide'
p1110
tp1111
S"(st) matching: ratio , lcs, (key,drug) (keynorm,drugnorm 1.0 ifosfamide ('ifosfamide', 'ifosfamide') ('ifosfamide', 'ifosfamide')"
p1112
tp1113
sS'gant_58'
p1114
NsS's1297'
p1115
NsS's4002'
p1116
NsS'cholecalciferol'
p1117
NsS'daminozide'
p1118
NsS'brd_a89049230'
p1119
NsS'brd_k67090983'
p1120
NsS'brd_k37865504'
p1121
NsS'riluzole'
p1122
((F1.0
S'riluzole'
p1123
tp1124
S"(st) matching: ratio , lcs, (key,drug) (keynorm,drugnorm 1.0 riluzole ('riluzole', 'riluzole') ('riluzole', 'riluzole')"
p1125
tp1126
sS'parbendazole'
p1127
NsS'zk_164015'
p1128
NsS'acetohexamide'
p1129
((F1.0
S'acetohexamide'
p1130
tp1131
S"(st) matching: ratio , lcs, (key,drug) (keynorm,drugnorm 1.0 acetohexamide ('acetohexamide', 'acetohexamide') ('acetohexamide', 'acetohexamide')"
p1132
tp1133
sS'ethylestrenol'
p1134
NsS'brd_k91134378'
p1135
NsS'remacemide_hydrochloride'
p1136
NsS'ei_293'
p1137
NsS'dorsomorphin_dihydrochloride'
p1138
NsS'rs_17053_hydrochloride'
p1139
NsS'brd_k19220233'
p1140
NsS'plx_4720'
p1141
NsS'moclobemide'
p1142
NsS'brd_a62809825'
p1143
NsS'd_limonene'
p1144
NsS'hy_11004'
p1145
NsS'jas07_010'
p1146
NsS'mw_a1_12'
p1147
NsS'diphenidol'
p1148
NsS'mephentermine_sulfate'
p1149
NsS'brd_k77547920'
p1150
NsS'isoxsuprine_hydrochloride'
p1151
NsS'rhodomyrtoxin_b'
p1152
NsS'scriptaid'
p1153
NsS'hy_50877'
p1154
NsS'brd_k16533489'
p1155
NsS'brd_k80786583'
p1156
NsS'np_004102'
p1157
NsS'hy_50878'
p1158
NsS's1053'
p1159
NsS's1057'
p1160
NsS'mesoridazine_besylate'
p1161
NsS'fr_122047_hydrochloride'
p1162
NsS'mls_0435555.0001'
p1163
NsS'leflunomide'
p1164
((F1.0
S'leflunomide'
p1165
tp1166
S"(st) matching: ratio , lcs, (key,drug) (keynorm,drugnorm 1.0 leflunomide ('leflunomide', 'leflunomide') ('leflunomide', 'leflunomide')"
p1167
tp1168
sS'vemurafenib'
p1169
NsS'na_tosyl_lys_chloromethyl_ketone__hydrochloride'
p1170
NsS'ethinylestradiol'
p1171
NsS'brd_k68548958'
p1172
NsS'triclosan'
p1173
NsS'brd_a10330754'
p1174
NsS'baccatin_iii'
p1175
NsS'ethionamide'
p1176
NsS'salmeterol'
p1177
NsS'loteprednol'
p1178
((F1.0
S'loteprednol_etabonate'
p1179
tp1180
S"Suffix-based-exact-matching ('loteprednol', 'loteprednol etabonate') ('loteprednol', 'loteprednol_etabonate')"
p1181
tp1182
sS'myrtecaine'
p1183
NsS'ivermectin'
p1184
((F1.0
S'ivermectin'
p1185
tp1186
S"(st) matching: ratio , lcs, (key,drug) (keynorm,drugnorm 1.0 ivermectin ('ivermectin', 'ivermectin') ('ivermectin', 'ivermectin')"
p1187
tp1188
sS'le_135'
p1189
NsS'anisomycin'
p1190
NsS'mdl_29951'
p1191
NsS'pf_562271'
p1192
NsS'r2146'
p1193
NsS'vigabatrin'
p1194
((F1.0
S'vigabatrin'
p1195
tp1196
S"(st) matching: ratio , lcs, (key,drug) (keynorm,drugnorm 1.0 vigabatrin ('vigabatrin', 'vigabatrin') ('vigabatrin', 'vigabatrin')"
p1197
tp1198
sS'chrysene_1_4_quinone'
p1199
NsS'veliparib'
p1200
NsS'brd_k06750613'
p1201
NsS'emetine'
p1202
NsS'carbarsone'
p1203
NsS'aspirin'
p1204
((F1.0
S'bayer_extra_strength_aspirin'
p1205
tp1206
S"(st) matching: ratio , lcs, (key,drug) (keynorm,drugnorm 1.0 aspirin ('aspirin', 'bayer extra strength aspirin') ('aspirin', 'bayer_extra_strength_aspirin')"
p1207
tp1208
sS'anastrozole'
p1209
((F1.0
S'anastrozole'
p1210
tp1211
S"(st) matching: ratio , lcs, (key,drug) (keynorm,drugnorm 1.0 anastrozole ('anastrozole', 'anastrozole') ('anastrozole', 'anastrozole')"
p1212
tp1213
sS'brd_k27630941'
p1214
NsS'daunorubicin_hydrochloride'
p1215
((F1.0
S'daunorubicin_hydrochloride'
p1216
tp1217
S"Suffix-based-exact-matching ('daunorubicin_hydrochloride', 'daunorubicin hydrochloride') ('daunorubicin_hydrochloride', 'daunorubicin_hydrochloride')"
p1218
tp1219
sS'brd_k53308430'
p1220
NsS'brd_k60067222'
p1221
NsS'lycorine'
p1222
NsS'l_701_324'
p1223
NsS'idarubicin_hcl'
p1224
((F1.0
S'idarubicin_hydrochloride'
p1225
tp1226
S"Suffix-based-exact-matching ('idarubicin_hcl', 'idarubicin hydrochloride') ('idarubicin_hcl', 'idarubicin_hydrochloride')"
p1227
tp1228
sS'brd_k57592392'
p1229
NsS'ncgc00166395_02'
p1230
NsS'ketanserin_tartrate_hydrate'
p1231
NsS'ncgc00184830_01'
p1232
NsS'kf_38789'
p1233
NsS'tl_hras24_brd_k93060291'
p1234
NsS'brd_k60297835'
p1235
NsS'pf_750'
p1236
NsS'brd_a90643929'
p1237
NsS'ac_1121'
p1238
NsS'ampiroxicam'
p1239
NsS'brd_k51998148'
p1240
NsS'brd_k84203638'
p1241
NsS'brd_k18163752'
p1242
NsS'brd_u86922168'
p1243
NsS'brd_k64606589'
p1244
NsS'brd_k87343924_(wortmannin)'
p1245
NsS'dg_041'
p1246
NsS'titanium_dioxide'
p1247
NsS'mocetinostat'
p1248
NsS'atorvastatin'
p1249
((F1.0
S'atorvastatin_calcium'
p1250
tp1251
S"Suffix-based-exact-matching ('atorvastatin', 'atorvastatin calcium') ('atorvastatin', 'atorvastatin_calcium')"
p1252
tp1253
sS'carmustine'
p1254
((F1.0
S'carmustine'
p1255
tp1256
S"(st) matching: ratio , lcs, (key,drug) (keynorm,drugnorm 1.0 carmustine ('carmustine', 'carmustine') ('carmustine', 'carmustine')"
p1257
tp1258
sS'fulvestrant'
p1259
((F1.0
S'fulvestrant'
p1260
tp1261
S"(st) matching: ratio , lcs, (key,drug) (keynorm,drugnorm 1.0 fulvestrant ('fulvestrant', 'fulvestrant') ('fulvestrant', 'fulvestrant')"
p1262
tp1263
sS'clopidogrel'
p1264
((F1.0
S'clopidogrel_bisulfate'
p1265
tp1266
S"(st) matching: ratio , lcs, (key,drug) (keynorm,drugnorm 1.0 clopidogrel ('clopidogrel', 'clopidogrel bisulfate') ('clopidogrel', 'clopidogrel_bisulfate')"
p1267
tp1268
sS'brd_k86472598'
p1269
NsS'brd_k00541156'
p1270
NsS'ncgc00182362_01'
p1271
NsS'fluticasone'
p1272
((F1.0
S'fluticasone_propionate'
p1273
tp1274
S"Suffix-based-exact-matching ('fluticasone', 'fluticasone propionate') ('fluticasone', 'fluticasone_propionate')"
p1275
tp1276
sS'warfarin'
p1277
((F1.0
S'warfarin_sodium'
p1278
tp1279
S"Suffix-based-exact-matching ('warfarin', 'warfarin sodium') ('warfarin', 'warfarin_sodium')"
p1280
tp1281
sS'norethindrone_acetate'
p1282
((F1.0
S'norethindrone'
p1283
tp1284
S"Suffix-based-exact-matching ('norethindrone_acetate', 'norethindrone') ('norethindrone_acetate', 'norethindrone')"
p1285
tp1286
sS'pj_34_hydrochloride'
p1287
NsS'labetalol'
p1288
((F1.0
S'labetalol_hydrochloride'
p1289
tp1290
S"Suffix-based-exact-matching ('labetalol', 'labetalol hydrochloride') ('labetalol', 'labetalol_hydrochloride')"
p1291
tp1292
sS'brd_k65955264'
p1293
NsS'oxaliplatin'
p1294
((F1.0
S'oxaliplatin'
p1295
tp1296
S"(st) matching: ratio , lcs, (key,drug) (keynorm,drugnorm 1.0 oxaliplatin ('oxaliplatin', 'oxaliplatin') ('oxaliplatin', 'oxaliplatin')"
p1297
tp1298
sS'ql_xii_47'
p1299
NsS'thiabendazole'
p1300
NsS't5323840'
p1301
NsS'bis(2_ethylhexyl)phthalate'
p1302
NsS'wye_125132'
p1303
NsS'jte_907'
p1304
NsS'b4313'
p1305
NsS'n_chlorophenyl_n_hexylpiperazine'
p1306
NsS'brd_a18763547'
p1307
NsS'toremifene'
p1308
((F1.0
S'toremifene_citrate'
p1309
tp1310
S"Suffix-based-exact-matching ('toremifene', 'toremifene citrate') ('toremifene', 'toremifene_citrate')"
p1311
tp1312
sS'iodixanol'
p1313
NsS'su_11274'
p1314
NsS'ebpc'
p1315
NsS'brd_k02641134'
p1316
NsS'ncgc00185094_01'
p1317
NsS'l_sulforophane'
p1318
NsS'aloisine'
p1319
NsS'bromodichloromethane'
p1320
NsS'ag_957'
p1321
NsS'brd_k56411643'
p1322
NsS'pelitinib'
p1323
NsS'perphenazine'
p1324
((F1.0
S'perphenazine'
p1325
tp1326
S"(st) matching: ratio , lcs, (key,drug) (keynorm,drugnorm 1.0 perphenazine ('perphenazine', 'perphenazine') ('perphenazine', 'perphenazine')"
p1327
tp1328
sS'ncgc00238536_01'
p1329
NsS'dipropyldopamine'
p1330
NsS'tiapride'
p1331
NsS'vancomycin'
p1332
((F1.0
S'vancomycin_hydrochloride'
p1333
tp1334
S"Suffix-based-exact-matching ('vancomycin', 'vancomycin hydrochloride') ('vancomycin', 'vancomycin_hydrochloride')"
p1335
tp1336
sS'pha_665752'
p1337
NsS'mianserin'
p1338
NsS'ink_128'
p1339
NsS'naproxol'
p1340
NsS'dipyridamole'
p1341
((F1.0
S'dipyridamole'
p1342
tp1343
S"(st) matching: ratio , lcs, (key,drug) (keynorm,drugnorm 1.0 dipyridamole ('dipyridamole', 'dipyridamole') ('dipyridamole', 'dipyridamole')"
p1344
tp1345
sS'stock1n_35215'
p1346
NsS'abamectin'
p1347
NsS'1495_0136'
p1348
NsS'pivmecillinam_hydrochloride'
p1349
NsS'estradiol_valerate'
p1350
((F1.0
S'estradiol_valerate'
p1351
tp1352
S"(st) matching: ratio , lcs, (key,drug) (keynorm,drugnorm 1.0 estradiol_valerate ('estradiol_valerate', 'estradiol valerate') ('estradiol_valerate', 'estradiol_valerate')"
p1353
tp1354
sS'psb_36'
p1355
NsS'oxaprozin'
p1356
((F1.0
S'oxaprozin'
p1357
tp1358
S"(st) matching: ratio , lcs, (key,drug) (keynorm,drugnorm 1.0 oxaprozin ('oxaprozin', 'oxaprozin') ('oxaprozin', 'oxaprozin')"
p1359
tp1360
sS'docosahexaenoic_acid_(22:6_n_3)'
p1361
NsS'fostamatinib'
p1362
NsS'bezafibrate'
p1363
NsS'brd_k08307026'
p1364
NsS'diflorasone_diacetate'
p1365
((F1.0
S'diflorasone_diacetate'
p1366
tp1367
S"Suffix-based-exact-matching ('diflorasone_diacetate', 'diflorasone diacetate') ('diflorasone_diacetate', 'diflorasone_diacetate')"
p1368
tp1369
sS'methoprene_acid'
p1370
NsS'bix_01294'
p1371
NsS'gw_5074'
p1372
NsS'teniposide'
p1373
NsS'ezetimibe'
p1374
((F1.0
S'ezetimibe'
p1375
tp1376
S"(st) matching: ratio , lcs, (key,drug) (keynorm,drugnorm 1.0 ezetimibe ('ezetimibe', 'ezetimibe') ('ezetimibe', 'ezetimibe')"
p1377
tp1378
sS'hts_12526'
p1379
NsS'zinc_acetate'
p1380
((F1.0
S'zinc_chloride'
p1381
tp1382
S"Suffix-based-exact-matching ('zinc_acetate', 'zinc chloride') ('zinc_acetate', 'zinc_chloride')"
p1383
tp1384
sS'brd_k86899078'
p1385
NsS'brd_k97534490'
p1386
NsS'ranitidine'
p1387
((F1.0
S'ranitidine_hydrochloride'
p1388
tp1389
S"Suffix-based-exact-matching ('ranitidine', 'ranitidine hydrochloride') ('ranitidine', 'ranitidine_hydrochloride')"
p1390
tp1391
sS'44__methylenedianiline'
p1392
NsS'granisetron'
p1393
((F1.0
S'granisetron_hydrochloride'
p1394
tp1395
S"Suffix-based-exact-matching ('granisetron', 'granisetron hydrochloride') ('granisetron', 'granisetron_hydrochloride')"
p1396
tp1397
sS'c8273'
p1398
NsS'osi_027'
p1399
NsS'tozasertib'
p1400
NsS'hoechst__33342_(cell_permeable)_(bisbenzimide)'
p1401
NsS's1266'
p1402
NsS'ruxolitinib'
p1403
NsS'bibu_1361_dihydrochloride'
p1404
NsS'famciclovir'
p1405
((F1.0
S'famciclovir'
p1406
tp1407
S"(st) matching: ratio , lcs, (key,drug) (keynorm,drugnorm 1.0 famciclovir ('famciclovir', 'famciclovir') ('famciclovir', 'famciclovir')"
p1408
tp1409
sS'flavokawain_b'
p1410
NsS'sb_216763'
p1411
NsS'doxazosin'
p1412
((F1.0
S'doxazosin_mesylate'
p1413
tp1414
S"Suffix-based-exact-matching ('doxazosin', 'doxazosin mesylate') ('doxazosin', 'doxazosin_mesylate')"
p1415
tp1416
sS'vu0415108_1'
p1417
NsS'methyl_salicylate'
p1418
NsS'betulinic_acid'
p1419
NsS'pravastatin'
p1420
((F1.0
S'pravastatin_sodium'
p1421
tp1422
S"Suffix-based-exact-matching ('pravastatin', 'pravastatin sodium') ('pravastatin', 'pravastatin_sodium')"
p1423
tp1424
sS'glycopyrrolate'
p1425
((F1.0
S'glycopyrrolate'
p1426
tp1427
S"(st) matching: ratio , lcs, (key,drug) (keynorm,drugnorm 1.0 glycopyrrolate ('glycopyrrolate', 'glycopyrrolate') ('glycopyrrolate', 'glycopyrrolate')"
p1428
tp1429
sS'benzyl_acetate'
p1430
NsS'brd_k35961280'
p1431
NsS'brd_k31342827'
p1432
NsS'pf_3758309'
p1433
NsS'brd_k87964538'
p1434
NsS'beta_estradiol_3_benzoate'
p1435
NsS'brd_k80348542'
p1436
NsS'azd_8055'
p1437
NsS'kuc104488_kuc104488n'
p1438
NsS'rifapentine'
p1439
NsS'a_1065'
p1440
NsS'bleomycin_a2'
p1441
NsS'tgf_beta_1_human_recombinant'
p1442
NsS'loratadine'
p1443
((F1.0
S'loratadine'
p1444
tp1445
S"(st) matching: ratio , lcs, (key,drug) (keynorm,drugnorm 1.0 loratadine ('loratadine', 'loratadine') ('loratadine', 'loratadine')"
p1446
tp1447
sS'ly_288513'
p1448
NsS'hy_13001'
p1449
NsS'oxandrolone'
p1450
((F1.0
S'oxandrolone'
p1451
tp1452
S"(st) matching: ratio , lcs, (key,drug) (keynorm,drugnorm 1.0 oxandrolone ('oxandrolone', 'oxandrolone') ('oxandrolone', 'oxandrolone')"
p1453
tp1454
sS'a8674'
p1455
NsS's1064'
p1456
NsS'p0030'
p1457
NsS's1315'
p1458
NsS'mevastatin'
p1459
NsS'brd_k21773564'
p1460
NsS'gsk_1070916'
p1461
NsS's1085'
p1462
NsS's1080'
p1463
NsS'ncgc00182357_01'
p1464
NsS'importazole'
p1465
NsS'bromfenac'
p1466
((F1.0
S'bromfenac_sodium'
p1467
tp1468
S"Suffix-based-exact-matching ('bromfenac', 'bromfenac sodium') ('bromfenac', 'bromfenac_sodium')"
p1469
tp1470
sS'pyrogallol'
p1471
NsS'st056792'
p1472
NsS'brd_k89451433'
p1473
NsS'mefenamic_acid'
p1474
((F1.0
S'mefenamic_acid'
p1475
tp1476
S"(st) matching: ratio , lcs, (key,drug) (keynorm,drugnorm 1.0 mefenamic_acid ('mefenamic_acid', 'mefenamic acid') ('mefenamic_acid', 'mefenamic_acid')"
p1477
tp1478
sS'oxiconazole'
p1479
((F1.0
S'oxiconazole_nitrate'
p1480
tp1481
S"Suffix-based-exact-matching ('oxiconazole', 'oxiconazole nitrate') ('oxiconazole', 'oxiconazole_nitrate')"
p1482
tp1483
sS'ritonavir'
p1484
((F1.0
S'ritonavir'
p1485
tp1486
S"(st) matching: ratio , lcs, (key,drug) (keynorm,drugnorm 1.0 ritonavir ('ritonavir', 'ritonavir') ('ritonavir', 'ritonavir')"
p1487
tp1488
sS'brd_k69888333'
p1489
NsS'brd_k05649647'
p1490
NsS'ncgc00182364_01'
p1491
NsS'brd_k31484631'
p1492
NsS'brd_k55844427'
p1493
NsS'morphine'
p1494
((F1.0
S'morphine_sulfate'
p1495
tp1496
S"Suffix-based-exact-matching ('morphine', 'morphine sulfate') ('morphine', 'morphine_sulfate')"
p1497
tp1498
sS'citric_acid'
p1499
((F1.0
S'citric_acid'
p1500
tp1501
S"(st) matching: ratio , lcs, (key,drug) (keynorm,drugnorm 1.0 citric_acid ('citric_acid', 'citric acid') ('citric_acid', 'citric_acid')"
p1502
tp1503
sS'isoliquiritigenin'
p1504
NsS'brd_k67742177'
p1505
NsS'nitazoxanide'
p1506
NsS'brd_k82732294'
p1507
NsS'nifedipine'
p1508
((F1.0
S'nifedipine'
p1509
tp1510
S"(st) matching: ratio , lcs, (key,drug) (keynorm,drugnorm 1.0 nifedipine ('nifedipine', 'nifedipine') ('nifedipine', 'nifedipine')"
p1511
tp1512
sS'brd_k71726959'
p1513
NsS'cc_401'
p1514
NsS'flumazenil'
p1515
((F1.0
S'flumazenil'
p1516
tp1517
S"(st) matching: ratio , lcs, (key,drug) (keynorm,drugnorm 1.0 flumazenil ('flumazenil', 'flumazenil') ('flumazenil', 'flumazenil')"
p1518
tp1519
sS'brd_k53780220'
p1520
NsS'phenobarbital'
p1521
NsS'bms_754807'
p1522
NsS'terbutaline'
p1523
((F1.0
S'terbutaline_sulfate'
p1524
tp1525
S"Suffix-based-exact-matching ('terbutaline', 'terbutaline sulfate') ('terbutaline', 'terbutaline_sulfate')"
p1526
tp1527
sS'brd_a75409952_(wortmannin)'
p1528
NsS'norethindrone'
p1529
((F1.0
S'norethindrone_acetate'
p1530
tp1531
S"Suffix-based-exact-matching ('norethindrone', 'norethindrone acetate') ('norethindrone', 'norethindrone_acetate')"
p1532
tp1533
sS'irbesartan'
p1534
((F1.0
S'irbesartan'
p1535
tp1536
S"(st) matching: ratio , lcs, (key,drug) (keynorm,drugnorm 1.0 irbesartan ('irbesartan', 'irbesartan') ('irbesartan', 'irbesartan')"
p1537
tp1538
sS'sulfadoxine'
p1539
NsS'tg_101348'
p1540
NsS'isoniazid'
p1541
((F1.0
S'isoniazid'
p1542
tp1543
S"(st) matching: ratio , lcs, (key,drug) (keynorm,drugnorm 1.0 isoniazid ('isoniazid', 'isoniazid') ('isoniazid', 'isoniazid')"
p1544
tp1545
sS'abt_888_(veliparib)'
p1546
NsS'meprylcaine_hydrochloride'
p1547
NsS'levofloxacin'
p1548
((F1.0
S'levofloxacin'
p1549
tp1550
S"(st) matching: ratio , lcs, (key,drug) (keynorm,drugnorm 1.0 levofloxacin ('levofloxacin', 'levofloxacin') ('levofloxacin', 'levofloxacin')"
p1551
tp1552
sS'ethambutol'
p1553
((F1.0
S'ethambutol_hydrochloride'
p1554
tp1555
S"Suffix-based-exact-matching ('ethambutol', 'ethambutol hydrochloride') ('ethambutol', 'ethambutol_hydrochloride')"
p1556
tp1557
sS'ncgc00188535_01'
p1558
NsS'oxibendazole'
p1559
NsS'maprotiline_hydrochloride'
p1560
((F1.0
S'maprotiline_hydrochloride'
p1561
tp1562
S"Suffix-based-exact-matching ('maprotiline_hydrochloride', 'maprotiline hydrochloride') ('maprotiline_hydrochloride', 'maprotiline_hydrochloride')"
p1563
tp1564
sS'amantadine'
p1565
((F1.0
S'amantadine_hydrochloride'
p1566
tp1567
S"Suffix-based-exact-matching ('amantadine', 'amantadine hydrochloride') ('amantadine', 'amantadine_hydrochloride')"
p1568
tp1569
sS'btb06091sc'
p1570
NsS'ct_200783'
p1571
NsS'securinine'
p1572
NsS'brd_k46373671'
p1573
NsS'stavudine'
p1574
((F1.0
S'stavudine'
p1575
tp1576
S"(st) matching: ratio , lcs, (key,drug) (keynorm,drugnorm 1.0 stavudine ('stavudine', 'stavudine') ('stavudine', 'stavudine')"
p1577
tp1578
sS'gr_231'
p1579
NsS'alaproclate'
p1580
NsS'prothionamide'
p1581
NsS'gr_239'
p1582
NsS'brd_k20401833'
p1583
NsS'sb_203580'
p1584
NsS'thalidomide'
p1585
NsS'glipizide'
p1586
((F1.0
S'glipizide'
p1587
tp1588
S"(st) matching: ratio , lcs, (key,drug) (keynorm,drugnorm 1.0 glipizide ('glipizide', 'glipizide') ('glipizide', 'glipizide')"
p1589
tp1590
sS'brd_a40431293'
p1591
NsS'aflatoxin_b1'
p1592
NsS'clebopride_maleate'
p1593
NsS'mycophenolate_mofetil'
p1594
((F1.0
S'mycophenolate_mofetil'
p1595
tp1596
S"(st) matching: ratio , lcs, (key,drug) (keynorm,drugnorm 1.0 mycophenolate_mofetil ('mycophenolate_mofetil', 'mycophenolate mofetil') ('mycophenolate_mofetil', 'mycophenolate_mofetil')"
p1597
tp1598
sS'5_nonyloxytryptamine'
p1599
NsS'albendazole'
p1600
((F1.0
S'albendazole'
p1601
tp1602
S"(st) matching: ratio , lcs, (key,drug) (keynorm,drugnorm 1.0 albendazole ('albendazole', 'albendazole') ('albendazole', 'albendazole')"
p1603
tp1604
sS'brd_k33164466'
p1605
NsS'acemetacin'
p1606
NsS'brd_k58347372'
p1607
NsS'dmeob'
p1608
NsS'brd_k98731749'
p1609
NsS'butein'
p1610
NsS'brd_k53579868'
p1611
NsS'gmx_1778'
p1612
NsS'genistein'
p1613
NsS'brd_k70714754'
p1614
NsS'brd_k52075040'
p1615
NsS'losartan_potassium'
p1616
((F1.0
S'losartan_potassium'
p1617
tp1618
S"Suffix-based-exact-matching ('losartan_potassium', 'losartan potassium') ('losartan_potassium', 'losartan_potassium')"
p1619
tp1620
sS'ncgc00185090_03'
p1621
NsS'methapyrilene'
p1622
NsS'stk661558'
p1623
NsS'brd_k96076993'
p1624
NsS'nortriptyline_hydrochloride'
p1625
((F1.0
S'nortriptyline_hydrochloride'
p1626
tp1627
S"Suffix-based-exact-matching ('nortriptyline_hydrochloride', 'nortriptyline hydrochloride') ('nortriptyline_hydrochloride', 'nortriptyline_hydrochloride')"
p1628
tp1629
sS't_98475'
p1630
NsS'tacrine'
p1631
NsS'cay10594'
p1632
NsS'triflupromazine_hydrochloride'
p1633
NsS'spb02303'
p1634
NsS'clotrimazole'
p1635
((F1.0
S'clotrimazole'
p1636
tp1637
S"(st) matching: ratio , lcs, (key,drug) (keynorm,drugnorm 1.0 clotrimazole ('clotrimazole', 'clotrimazole') ('clotrimazole', 'clotrimazole')"
p1638
tp1639
sS'pq_401'
p1640
NsS'nateglinide'
p1641
((F1.0
S'nateglinide'
p1642
tp1643
S"(st) matching: ratio , lcs, (key,drug) (keynorm,drugnorm 1.0 nateglinide ('nateglinide', 'nateglinide') ('nateglinide', 'nateglinide')"
p1644
tp1645
sS'ly2603618'
p1646
NsS'rho_kinase_inhibitor_iii_[rockout]'
p1647
NsS'erythromycin'
p1648
((F1.0
S'erythromycin_estolate'
p1649
tp1650
S"Suffix-based-exact-matching ('erythromycin', 'erythromycin estolate') ('erythromycin', 'erythromycin_estolate')"
p1651
tp1652
sS'caffeic_acid_phenethyl_ester'
p1653
NsS'idebenone'
p1654
NsS'brd_u88878891'
p1655
NsS'irinotecan_hydrochloride_trihydrate'
p1656
NsS'nicardipine_hydrochloride'
p1657
((F1.0
S'nicardipine_hydrochloride'
p1658
tp1659
S"Suffix-based-exact-matching ('nicardipine_hydrochloride', 'nicardipine hydrochloride') ('nicardipine_hydrochloride', 'nicardipine_hydrochloride')"
p1660
tp1661
sS'ergocalciferol'
p1662
((F1.0
S'ergocalciferol'
p1663
tp1664
S"(st) matching: ratio , lcs, (key,drug) (keynorm,drugnorm 1.0 ergocalciferol ('ergocalciferol', 'ergocalciferol') ('ergocalciferol', 'ergocalciferol')"
p1665
tp1666
sS'levamisole'
p1667
NsS'withaferin_a'
p1668
NsS'torsemide'
p1669
((F1.0
S'torsemide'
p1670
tp1671
S"(st) matching: ratio , lcs, (key,drug) (keynorm,drugnorm 1.0 torsemide ('torsemide', 'torsemide') ('torsemide', 'torsemide')"
p1672
tp1673
sS'wortmannin'
p1674
NsS'17_methyltestosterone'
p1675
((F0.8571428571428571
S'methyltestosterone'
p1676
tp1677
S"(st) matching: ratio , lcs, (key,drug) (keynorm,drugnorm 0.857142857143 methyltestosterone ('17_methyltestosterone', 'methyltestosterone') ('17_methyltestosterone', 'methyltestosterone')"
p1678
tp1679
sS'brd_k60219430'
p1680
NsS'ftorafur'
p1681
NsS'afatinib'
p1682
NsS'brd_k05593511'
p1683
NsS'4_chloroaniline'
p1684
NsS'trichloroethane'
p1685
NsS'brd_k14788918'
p1686
NsS'methylene_blue'
p1687
NsS'cephalexin'
p1688
((F1.0
S'cephalexin'
p1689
tp1690
S"(st) matching: ratio , lcs, (key,drug) (keynorm,drugnorm 1.0 cephalexin ('cephalexin', 'cephalexin') ('cephalexin', 'cephalexin')"
p1691
tp1692
sS'ml_3163'
p1693
NsS'fk_888'
p1694
NsS'l_690_330'
p1695
NsS'cefotaxime_sodium_salt'
p1696
NsS'brd_k73261812'
p1697
NsS'carboplatin'
p1698
((F1.0
S'carboplatin'
p1699
tp1700
S"(st) matching: ratio , lcs, (key,drug) (keynorm,drugnorm 1.0 carboplatin ('carboplatin', 'carboplatin') ('carboplatin', 'carboplatin')"
p1701
tp1702
sS'brd_k11362964'
p1703
NsS'venlafaxine'
p1704
((F1.0
S'venlafaxine_hydrochloride'
p1705
tp1706
S"Suffix-based-exact-matching ('venlafaxine', 'venlafaxine hydrochloride') ('venlafaxine', 'venlafaxine_hydrochloride')"
p1707
tp1708
sS'tremulacin'
p1709
NsS'cgk_733'
p1710
NsS'tgx_115'
p1711
NsS'ncgc00165188_01'
p1712
NsS'amlodipine_besylate'
p1713
((F1.0
S'amlodipine_besylate'
p1714
tp1715
S"(st) matching: ratio , lcs, (key,drug) (keynorm,drugnorm 1.0 amlodipine_besylate ('amlodipine_besylate', 'amlodipine besylate') ('amlodipine_besylate', 'amlodipine_besylate')"
p1716
tp1717
sS'brd_k18761689'
p1718
NsS'l_689_560'
p1719
NsS'hemado'
p1720
NsS'brd_k88542532'
p1721
NsS'brd_k61105081'
p1722
NsS'lomatin'
p1723
NsS't7765'
p1724
NsS'qs_11'
p1725
NsS'estradiol_benzoate'
p1726
NsS'brd_k48950795'
p1727
NsS'tetrindole_mesylate'
p1728
NsS'cct_018159'
p1729
NsS'entinostat'
p1730
NsS'evodiamine'
p1731
NsS'c3930'
p1732
NsS'pnu_74654'
p1733
NsS'deprenalin'
p1734
NsS'mometasone'
p1735
((F1.0
S'mometasone_furoate'
p1736
tp1737
S"Suffix-based-exact-matching ('mometasone', 'mometasone furoate') ('mometasone', 'mometasone_furoate')"
p1738
tp1739
sS'brd_k96704648'
p1740
NsS'brd_k21672423'
p1741
NsS'w_13_hydrochloride'
p1742
NsS'pioglitazone'
p1743
((F1.0
S'pioglitazone_hydrochloride'
p1744
tp1745
S"Suffix-based-exact-matching ('pioglitazone', 'pioglitazone hydrochloride') ('pioglitazone', 'pioglitazone_hydrochloride')"
p1746
tp1747
sS'tocilizumab'
p1748
NsS'citalopram_hydrobromide'
p1749
((F1.0
S'citalopram_hydrobromide'
p1750
tp1751
S"Suffix-based-exact-matching ('citalopram_hydrobromide', 'citalopram hydrobromide') ('citalopram_hydrobromide', 'citalopram_hydrobromide')"
p1752
tp1753
sS'acrolein'
p1754
NsS'thm_i_94'
p1755
NsS'azd_8330'
p1756
NsS'amitriptyline'
p1757
((F1.0
S'amitriptyline_hydrochloride'
p1758
tp1759
S"Suffix-based-exact-matching ('amitriptyline', 'amitriptyline hydrochloride') ('amitriptyline', 'amitriptyline_hydrochloride')"
p1760
tp1761
sS's1095'
p1762
NsS's1093'
p1763
NsS'brd_k16472144'
p1764
NsS'carvedilol'
p1765
((F1.0
S'carvedilol_phosphate'
p1766
tp1767
S"Suffix-based-exact-matching ('carvedilol', 'carvedilol phosphate') ('carvedilol', 'carvedilol_phosphate')"
p1768
tp1769
sS'guanadrel'
p1770
NsS'44__diethylaminoethoxyhexestrol'
p1771
NsS'u0126'
p1772
NsS'mk_1775'
p1773
NsS'brd_k68437527'
p1774
NsS'sildenafil'
p1775
((F1.0
S'sildenafil_citrate'
p1776
tp1777
S"Suffix-based-exact-matching ('sildenafil', 'sildenafil citrate') ('sildenafil', 'sildenafil_citrate')"
p1778
tp1779
sS'dibenzyline'
p1780
((F1.0
S'dibenzyline'
p1781
tp1782
S"(st) matching: ratio , lcs, (key,drug) (keynorm,drugnorm 1.0 dibenzyline ('dibenzyline', 'dibenzyline') ('dibenzyline', 'dibenzyline')"
p1783
tp1784
sS'spironolactone'
p1785
((F1.0
S'spironolactone'
p1786
tp1787
S"(st) matching: ratio , lcs, (key,drug) (keynorm,drugnorm 1.0 spironolactone ('spironolactone', 'spironolactone') ('spironolactone', 'spironolactone')"
p1788
tp1789
sS'brd_k69496360'
p1790
NsS'33_4_5_tetrachlorosalicylanilide'
p1791
NsS'belinostat'
p1792
NsS'brd_k39687892'
p1793
NsS'cp_724714'
p1794
NsS'brd_k77830450_(forskolin)'
p1795
NsS'quercetin'
p1796
NsS'bacitracin'
p1797
((F1.0
S'bacitracin_zinc'
p1798
tp1799
S"Suffix-based-exact-matching ('bacitracin', 'bacitracin zinc') ('bacitracin', 'bacitracin_zinc')"
p1800
tp1801
sS'necrostatin_1'
p1802
NsS'(+)_isoprenaline'
p1803
NsS'hg_6_64_01'
p1804
NsS'erlotinib'
p1805
((F1.0
S'erlotinib_hydrochloride'
p1806
tp1807
S"Suffix-based-exact-matching ('erlotinib', 'erlotinib hydrochloride') ('erlotinib', 'erlotinib_hydrochloride')"
p1808
tp1809
sS'chelidonine_(+)'
p1810
NsS'brd_a94377914'
p1811
NsS'pf_431396'
p1812
NsS'trichloroethylene'
p1813
NsS'brd_k06009608'
p1814
NsS'brd_k12184916'
p1815
NsS'brd_k20000640'
p1816
NsS'brd_k22832646'
p1817
NsS'brd_k19624190'
p1818
NsS'cyt997'
p1819
NsS'mycophenolic_acid'
p1820
((F1.0
S'mycophenolic_acid'
p1821
tp1822
S"(st) matching: ratio , lcs, (key,drug) (keynorm,drugnorm 1.0 mycophenolic_acid ('mycophenolic_acid', 'mycophenolic acid') ('mycophenolic_acid', 'mycophenolic_acid')"
p1823
tp1824
sS'triamcinolone'
p1825
((F1.0
S'triamcinolone_diacetate'
p1826
tp1827
S"Suffix-based-exact-matching ('triamcinolone', 'triamcinolone diacetate') ('triamcinolone', 'triamcinolone_diacetate')"
p1828
tp1829
sS'chloroform'
p1830
NsS'neostigmine_bromide'
p1831
NsS'jtc_801'
p1832
NsS'fludrocortisone_acetate'
p1833
((F1.0
S'fludrocortisone_acetate'
p1834
tp1835
S"Suffix-based-exact-matching ('fludrocortisone_acetate', 'fludrocortisone acetate') ('fludrocortisone_acetate', 'fludrocortisone_acetate')"
p1836
tp1837
sS'fu_jmbii127b'
p1838
NsS'tak_715'
p1839
NsS'kynuramine'
p1840
NsS'amitriptyline_hydrochloride'
p1841
((F1.0
S'amitriptyline_hydrochloride'
p1842
tp1843
S"Suffix-based-exact-matching ('amitriptyline_hydrochloride', 'amitriptyline hydrochloride') ('amitriptyline_hydrochloride', 'amitriptyline_hydrochloride')"
p1844
tp1845
sS'brd_k07403598'
p1846
NsS'ethylene_glycol'
p1847
((F1.0
S'polyethylene_glycol_3350'
p1848
tp1849
S"(st) matching: ratio , lcs, (key,drug) (keynorm,drugnorm 1.0 ethylene_glycol ('ethylene_glycol', 'polyethylene glycol 3350') ('ethylene_glycol', 'polyethylene_glycol_3350')"
p1850
tp1851
sS'streptomycin'
p1852
((F1.0
S'streptomycin_sulfate'
p1853
tp1854
S"Suffix-based-exact-matching ('streptomycin', 'streptomycin sulfate') ('streptomycin', 'streptomycin_sulfate')"
p1855
tp1856
sS'sulfanilamide'
p1857
((F1.0
S'sulfanilamide'
p1858
tp1859
S"(st) matching: ratio , lcs, (key,drug) (keynorm,drugnorm 1.0 sulfanilamide ('sulfanilamide', 'sulfanilamide') ('sulfanilamide', 'sulfanilamide')"
p1860
tp1861
sS'sulindac'
p1862
((F1.0
S'sulindac'
p1863
tp1864
S"(st) matching: ratio , lcs, (key,drug) (keynorm,drugnorm 1.0 sulindac ('sulindac', 'sulindac') ('sulindac', 'sulindac')"
p1865
tp1866
sS'brd_k71142328'
p1867
NsS'brd_k78930611'
p1868
NsS'vu0418947_2'
p1869
NsS'hydrastinine_hydrochloride'
p1870
NsS'gsk_j4'
p1871
NsS'formoterol'
p1872
((F1.0
S'formoterol_fumarate'
p1873
tp1874
S"Suffix-based-exact-matching ('formoterol', 'formoterol fumarate') ('formoterol', 'formoterol_fumarate')"
p1875
tp1876
sS'gsk_j2'
p1877
NsS'brd_k92158425'
p1878
NsS'brd_k28366633'
p1879
NsS'ketamine'
p1880
((F1.0
S'ketamine_hcl'
p1881
tp1882
S"Suffix-based-exact-matching ('ketamine', 'ketamine hcl') ('ketamine', 'ketamine_hcl')"
p1883
tp1884
sS'ncgc00011606_02'
p1885
NsS'torin_2'
p1886
NsS'brd_k09485525'
p1887
NsS'ntncb_hydrochloride'
p1888
NsS'chlorambucil'
p1889
NsS'brd_a68930007_(ouabain)'
p1890
NsS'taxifolin_(+/_)'
p1891
NsS'meclocycline_sulfosalicylate'
p1892
NsS'brd_k64857848'
p1893
NsS'sch_58261'
p1894
NsS'fluorouracil'
p1895
((F1.0
S'fluorouracil'
p1896
tp1897
S"(st) matching: ratio , lcs, (key,drug) (keynorm,drugnorm 1.0 fluorouracil ('fluorouracil', 'fluorouracil') ('fluorouracil', 'fluorouracil')"
p1898
tp1899
sS'brd_a85712510'
p1900
NsS'abt_751'
p1901
NsS'brd_k61981833'
p1902
NsS's_8599'
p1903
NsS'piperlongumine'
p1904
NsS'brd_k55722623'
p1905
NsS'brd_k18595892'
p1906
NsS'wz_3105'
p1907
NsS'brd_a81541225'
p1908
NsS'2_amino_4_nitrophenol'
p1909
NsS'brd_k15716662'
p1910
NsS'jw55'
p1911
NsS'penicillin_g'
p1912
((F1.0
S'penicillin_g_potassium'
p1913
tp1914
S"(st) matching: ratio , lcs, (key,drug) (keynorm,drugnorm 1.0 penicillin_g ('penicillin_g', 'penicillin g potassium') ('penicillin_g', 'penicillin_g_potassium')"
p1915
tp1916
sS'cinnarizine'
p1917
NsS'epirubicin_hydrochloride'
p1918
((F1.0
S'epirubicin_hydrochloride'
p1919
tp1920
S"Suffix-based-exact-matching ('epirubicin_hydrochloride', 'epirubicin hydrochloride') ('epirubicin_hydrochloride', 'epirubicin_hydrochloride')"
p1921
tp1922
sS'oxcarbazepine'
p1923
((F1.0
S'oxcarbazepine'
p1924
tp1925
S"(st) matching: ratio , lcs, (key,drug) (keynorm,drugnorm 1.0 oxcarbazepine ('oxcarbazepine', 'oxcarbazepine') ('oxcarbazepine', 'oxcarbazepine')"
p1926
tp1927
sS'brd_k20112532'
p1928
NsS'brd_k00317371'
p1929
NsS'thiamphenicol'
p1930
NsS'raloxifene'
p1931
((F1.0
S'raloxifene_hydrochloride'
p1932
tp1933
S"Suffix-based-exact-matching ('raloxifene', 'raloxifene hydrochloride') ('raloxifene', 'raloxifene_hydrochloride')"
p1934
tp1935
sS'diisopropyl_fluorophosphate'
p1936
NsS'n_nitrosodiethylamine'
p1937
NsS'verteporfin'
p1938
NsS'stk397047'
p1939
NsS'digoxigenin'
p1940
NsS'brd_a81530502'
p1941
NsS'a66'
p1942
NsS'vu0418946_2'
p1943
NsS'nevirapine'
p1944
((F1.0
S'nevirapine'
p1945
tp1946
S"(st) matching: ratio , lcs, (key,drug) (keynorm,drugnorm 1.0 nevirapine ('nevirapine', 'nevirapine') ('nevirapine', 'nevirapine')"
p1947
tp1948
sS'xmd_1150'
p1949
NsS'benzocaine'
p1950
NsS'lumicolchicine_gamma'
p1951
NsS'hy_11066'
p1952
NsS'cay10618'
p1953
NsS'hy_11068'
p1954
NsS'valdecoxib'
p1955
NsS'brd_k65983740'
p1956
NsS'antipyrine'
p1957
NsS'verapamil_hydrochloride'
p1958
((F1.0
S'verapamil_hydrochloride'
p1959
tp1960
S"Suffix-based-exact-matching ('verapamil_hydrochloride', 'verapamil hydrochloride') ('verapamil_hydrochloride', 'verapamil_hydrochloride')"
p1961
tp1962
sS'bromisovalum'
p1963
NsS'htmt_dimaleate'
p1964
NsS'mifepristone'
p1965
((F1.0
S'mifepristone'
p1966
tp1967
S"(st) matching: ratio , lcs, (key,drug) (keynorm,drugnorm 1.0 mifepristone ('mifepristone', 'mifepristone') ('mifepristone', 'mifepristone')"
p1968
tp1969
sS'dictamnine'
p1970
NsS'brd_k86269644'
p1971
NsS'brd_a11702965'
p1972
NsS'1_naphthyl_isothiocyanate'
p1973
NsS'ketoprofen'
p1974
((F1.0
S'ketoprofen'
p1975
tp1976
S"(st) matching: ratio , lcs, (key,drug) (keynorm,drugnorm 1.0 ketoprofen ('ketoprofen', 'ketoprofen') ('ketoprofen', 'ketoprofen')"
p1977
tp1978
sS'brd_k82024442'
p1979
NsS'taxol'
p1980
((F1.0
S'taxol'
p1981
tp1982
S"(st) matching: ratio , lcs, (key,drug) (keynorm,drugnorm 1.0 taxol ('taxol', 'taxol') ('taxol', 'taxol')"
p1983
tp1984
sS'ncgc00182110_02'
p1985
NsS'lasalocid_sodium'
p1986
NsS'gw_441756'
p1987
NsS'brd_k19724398'
p1988
NsS'tamoxifen__4_hydroxy___(z)_'
p1989
NsS'gsk_2126458'
p1990
NsS'gdc_0879'
p1991
NsS'pramoxine'
p1992
((F1.0
S'pramoxine_hydrochloride'
p1993
tp1994
S"Suffix-based-exact-matching ('pramoxine', 'pramoxine hydrochloride') ('pramoxine', 'pramoxine_hydrochloride')"
p1995
tp1996
sS'ncgc00185684_02'
p1997
NsS's1249'
p1998
NsS'clomiphene_citrate_(z_e)'
p1999
NsS'doxapram'
p2000
((F1.0
S'doxapram_hydrochloride'
p2001
tp2002
S"Suffix-based-exact-matching ('doxapram', 'doxapram hydrochloride') ('doxapram', 'doxapram_hydrochloride')"
p2003
tp2004
sS'brd_k14749055'
p2005
NsS'deferasirox'
p2006
((F1.0
S'deferasirox'
p2007
tp2008
S"(st) matching: ratio , lcs, (key,drug) (keynorm,drugnorm 1.0 deferasirox ('deferasirox', 'deferasirox') ('deferasirox', 'deferasirox')"
p2009
tp2010
sS'cyclophosphamide'
p2011
((F1.0
S'cyclophosphamide'
p2012
tp2013
S"(st) matching: ratio , lcs, (key,drug) (keynorm,drugnorm 1.0 cyclophosphamide ('cyclophosphamide', 'cyclophosphamide') ('cyclophosphamide', 'cyclophosphamide')"
p2014
tp2015
sS'nicotine'
p2016
((F1.0
S'nicotine_polacrilex'
p2017
tp2018
S"Suffix-based-exact-matching ('nicotine', 'nicotine polacrilex') ('nicotine', 'nicotine_polacrilex')"
p2019
tp2020
sS'benzethonium_chloride'
p2021
NsS'st209453'
p2022
NsS'methylstat'
p2023
NsS'brd_a41451487'
p2024
NsS'quizartinib'
p2025
NsS'bg_fa_0953'
p2026
NsS'ei_263'
p2027
NsS'lasalocid_sodium_salt'
p2028
NsS'oxyquinoline'
p2029
NsS'ncgc00183226_01'
p2030
NsS'piroxicam'
p2031
((F1.0
S'piroxicam'
p2032
tp2033
S"(st) matching: ratio , lcs, (key,drug) (keynorm,drugnorm 1.0 piroxicam ('piroxicam', 'piroxicam') ('piroxicam', 'piroxicam')"
p2034
tp2035
sS'dasatinib'
p2036
((F1.0
S'dasatinib'
p2037
tp2038
S"(st) matching: ratio , lcs, (key,drug) (keynorm,drugnorm 1.0 dasatinib ('dasatinib', 'dasatinib') ('dasatinib', 'dasatinib')"
p2039
tp2040
sS'urapidil_hydrochloride'
p2041
NsS'brd_k03736784'
p2042
NsS'brd_k88569143'
p2043
NsS'pdgf_receptor_tyrosine_kinase_inhibitor_i'
p2044
NsS'aminoglutethimide'
p2045
NsS'nadolol'
p2046
((F1.0
S'nadolol'
p2047
tp2048
S"(st) matching: ratio , lcs, (key,drug) (keynorm,drugnorm 1.0 nadolol ('nadolol', 'nadolol') ('nadolol', 'nadolol')"
p2049
tp2050
sS'doxorubicin'
p2051
((F1.0
S'doxorubicin_hydrochloride'
p2052
tp2053
S"Suffix-based-exact-matching ('doxorubicin', 'doxorubicin hydrochloride') ('doxorubicin', 'doxorubicin_hydrochloride')"
p2054
tp2055
sS'brd_k28120860'
p2056
NsS'brd_k03176945'
p2057
NsS'hydrochlorothiazide'
p2058
((F1.0
S'hydrochlorothiazide_intensol'
p2059
tp2060
S"Suffix-based-exact-matching ('hydrochlorothiazide', 'hydrochlorothiazide intensol') ('hydrochlorothiazide', 'hydrochlorothiazide_intensol')"
p2061
tp2062
sS'brd_k34966483'
p2063
NsS'haloperidol'
p2064
((F1.0
S'haloperidol_intensol'
p2065
tp2066
S"Suffix-based-exact-matching ('haloperidol', 'haloperidol intensol') ('haloperidol', 'haloperidol_intensol')"
p2067
tp2068
sS'theophylline'
p2069
((F1.0
S'theophylline'
p2070
tp2071
S"(st) matching: ratio , lcs, (key,drug) (keynorm,drugnorm 1.0 theophylline ('theophylline', 'theophylline') ('theophylline', 'theophylline')"
p2072
tp2073
sS'robustic_acid'
p2074
NsS'carbinoxamine_maleate'
p2075
((F1.0
S'carbinoxamine_maleate'
p2076
tp2077
S"Suffix-based-exact-matching ('carbinoxamine_maleate', 'carbinoxamine maleate') ('carbinoxamine_maleate', 'carbinoxamine_maleate')"
p2078
tp2079
sS'ncgc00167107_01'
p2080
NsS'oxindole_i'
p2081
NsS'icariin'
p2082
NsS'ncgc00183412_01'
p2083
NsS'abt_737'
p2084
NsS'melatonin'
p2085
NsS'cloxacillin'
p2086
((F1.0
S'cloxacillin_sodium'
p2087
tp2088
S"Suffix-based-exact-matching ('cloxacillin', 'cloxacillin sodium') ('cloxacillin', 'cloxacillin_sodium')"
p2089
tp2090
sS'brd_k57080016'
p2091
NsS'hydralazine'
p2092
((F1.0
S'hydralazine_hydrochloride'
p2093
tp2094
S"Suffix-based-exact-matching ('hydralazine', 'hydralazine hydrochloride') ('hydralazine', 'hydralazine_hydrochloride')"
p2095
tp2096
sS'brd_k12238169'
p2097
NsS'pd_102807'
p2098
NsS'brd_k82837433'
p2099
NsS'gr_127935_hydrochloride'
p2100
NsS'nu_7441'
p2101
NsS'mebendazole'
p2102
NsS'pd_160170'
p2103
NsS'atropine'
p2104
((F1.0
S'atropine_sulfate'
p2105
tp2106
S"Suffix-based-exact-matching ('atropine', 'atropine sulfate') ('atropine', 'atropine_sulfate')"
p2107
tp2108
sS'metergoline'
p2109
NsS'brd_u00779237'
p2110
NsS'rp1782780025'
p2111
NsS'gitoxigenin'
p2112
NsS'tetracycline'
p2113
((F1.0
S'tetracycline_hydrochloride'
p2114
tp2115
S"Suffix-based-exact-matching ('tetracycline', 'tetracycline hydrochloride') ('tetracycline', 'tetracycline_hydrochloride')"
p2116
tp2117
sS'4_octylphenol'
p2118
NsS'chicago_sky_blue_6b'
p2119
NsS'2378_tetrachlorodibenzo_p_dioxin'
p2120
NsS'quinpirole'
p2121
NsS'brd_k43581698'
p2122
NsS'stanozolol'
p2123
NsS'cyproheptadine_hydrochloride'
p2124
((F1.0
S'cyproheptadine_hydrochloride'
p2125
tp2126
S"Suffix-based-exact-matching ('cyproheptadine_hydrochloride', 'cyproheptadine hydrochloride') ('cyproheptadine_hydrochloride', 'cyproheptadine_hydrochloride')"
p2127
tp2128
sS'brd_k60895275'
p2129
NsS'lonidamine'
p2130
NsS'brd_k15885023'
p2131
NsS'az_628'
p2132
NsS'ncgc00241071_01'
p2133
NsS'oxybutynin'
p2134
((F1.0
S'oxybutynin_chloride'
p2135
tp2136
S"Suffix-based-exact-matching ('oxybutynin', 'oxybutynin chloride') ('oxybutynin', 'oxybutynin_chloride')"
p2137
tp2138
sS'etomidate'
p2139
((F1.0
S'etomidate'
p2140
tp2141
S"(st) matching: ratio , lcs, (key,drug) (keynorm,drugnorm 1.0 etomidate ('etomidate', 'etomidate') ('etomidate', 'etomidate')"
p2142
tp2143
sS'beta_estradiol'
p2144
NsS'acyclovir'
p2145
((F1.0
S'acyclovir_sodium'
p2146
tp2147
S"Suffix-based-exact-matching ('acyclovir', 'acyclovir sodium') ('acyclovir', 'acyclovir_sodium')"
p2148
tp2149
sS'ldn_193189'
p2150
NsS'brd_k26664453'
p2151
NsS'bromobenzene'
p2152
NsS'brd_k89209981'
p2153
NsS'brd_k02562327'
p2154
NsS'vu0420364_1'
p2155
NsS'nitrofurantoin'
p2156
((F1.0
S'nitrofurantoin_macrocrystalline'
p2157
tp2158
S"(st) matching: ratio , lcs, (key,drug) (keynorm,drugnorm 1.0 nitrofurantoin ('nitrofurantoin', 'nitrofurantoin macrocrystalline') ('nitrofurantoin', 'nitrofurantoin_macrocrystalline')"
p2159
tp2160
sS'sildenafil_citrate'
p2161
((F1.0
S'sildenafil_citrate'
p2162
tp2163
S"Suffix-based-exact-matching ('sildenafil_citrate', 'sildenafil citrate') ('sildenafil_citrate', 'sildenafil_citrate')"
p2164
tp2165
sS'brd_k91449330'
p2166
NsS'ibrutinib'
p2167
NsS'niacin'
p2168
((F1.0
S'niacin'
p2169
tp2170
S"(st) matching: ratio , lcs, (key,drug) (keynorm,drugnorm 1.0 niacin ('niacin', 'niacin') ('niacin', 'niacin')"
p2171
tp2172
sS'prestwick_665'
p2173
NsS'phenothiazine'
p2174
NsS'px12'
p2175
NsS'brd_a59145032'
p2176
NsS'mg_132'
p2177
NsS'np_009265'
p2178
NsS'salicylic_acid'
p2179
NsS'pf_573228'
p2180
NsS'lacidipine'
p2181
NsS'bd_1047_dihydrobromide'
p2182
NsS'pt_630'
p2183
NsS'cp_94253_hydrochloride'
p2184
NsS'brd_a95445494'
p2185
NsS'rifampin'
p2186
((F1.0
S'rifampin'
p2187
tp2188
S"(st) matching: ratio , lcs, (key,drug) (keynorm,drugnorm 1.0 rifampin ('rifampin', 'rifampin') ('rifampin', 'rifampin')"
p2189
tp2190
sS'ncgc00183371_01'
p2191
NsS'5_azacytidine'
p2192
NsS'brd_k88278225'
p2193
NsS'ct_incb'
p2194
NsS'vu0418934_2'
p2195
NsS'chelerythrine_chloride'
p2196
NsS'y27632'
p2197
NsS'lubiprostone'
p2198
NsS'progesterone'
p2199
((F1.0
S'progesterone'
p2200
tp2201
S"(st) matching: ratio , lcs, (key,drug) (keynorm,drugnorm 1.0 progesterone ('progesterone', 'progesterone') ('progesterone', 'progesterone')"
p2202
tp2203
sS'clozapine'
p2204
((F1.0
S'clozapine'
p2205
tp2206
S"(st) matching: ratio , lcs, (key,drug) (keynorm,drugnorm 1.0 clozapine ('clozapine', 'clozapine') ('clozapine', 'clozapine')"
p2207
tp2208
sS'benzothiazyl_disulfide'
p2209
NsS'prochlorperazine'
p2210
((F1.0
S'prochlorperazine_maleate'
p2211
tp2212
S"Suffix-based-exact-matching ('prochlorperazine', 'prochlorperazine maleate') ('prochlorperazine', 'prochlorperazine_maleate')"
p2213
tp2214
sS'brd_k72381041'
p2215
NsS'11k_629s'
p2216
NsS'brd_k33720404'
p2217
NsS'manumycin_a'
p2218
NsS'chemistry_1735'
p2219
NsS'purvalanol_a'
p2220
NsS'brd_k05549170'
p2221
NsS'pyrantel'
p2222
NsS'thioguanine'
p2223
((F1.0
S'thioguanine'
p2224
tp2225
S"(st) matching: ratio , lcs, (key,drug) (keynorm,drugnorm 1.0 thioguanine ('thioguanine', 'thioguanine') ('thioguanine', 'thioguanine')"
p2226
tp2227
sS'sevoflurane'
p2228
((F1.0
S'sevoflurane'
p2229
tp2230
S"(st) matching: ratio , lcs, (key,drug) (keynorm,drugnorm 1.0 sevoflurane ('sevoflurane', 'sevoflurane') ('sevoflurane', 'sevoflurane')"
p2231
tp2232
sS'brd_k10649245'
p2233
NsS'diphenyleneiodonium_chloride'
p2234
NsS'brd_a83124583'
p2235
NsS'nonoxynol_9'
p2236
NsS'ferulic_acid'
p2237
NsS'zomepirac'
p2238
NsS'brd_k55116708'
p2239
NsS'brd_k33720394'
p2240
NsS'l_168_049'
p2241
NsS'unc0638'
p2242
NsS'caffeine'
p2243
((F1.0
S'caffeine_citrate'
p2244
tp2245
S"Suffix-based-exact-matching ('caffeine', 'caffeine citrate') ('caffeine', 'caffeine_citrate')"
p2246
tp2247
sS'garcinol'
p2248
NsS'ro_31_8220_mesylate'
p2249
NsS'quinapril'
p2250
((F1.0
S'quinapril_hydrochloride'
p2251
tp2252
S"Suffix-based-exact-matching ('quinapril', 'quinapril hydrochloride') ('quinapril', 'quinapril_hydrochloride')"
p2253
tp2254
sS'tw_37'
p2255
NsS'brd_k96083840'
p2256
NsS'mwp00339'
p2257
NsS'brd_k24754728'
p2258
NsS'iopanoic_acid'
p2259
NsS'sulconazole'
p2260
NsS'brd_k31856043'
p2261
NsS'brd_k78167523'
p2262
NsS'wz_7043'
p2263
NsS'i_bet151'
p2264
NsS'pentamidine'
p2265
((F1.0
S'pentamidine_isethionate'
p2266
tp2267
S"Suffix-based-exact-matching ('pentamidine', 'pentamidine isethionate') ('pentamidine', 'pentamidine_isethionate')"
p2268
tp2269
sS'gw_3965_hydrochloride'
p2270
NsS'brd_k04853698'
p2271
NsS'bisphenol_a'
p2272
NsS'(_)_jq1'
p2273
NsS'sb_415286'
p2274
NsS'nafenopin'
p2275
NsS'brd_k74126469'
p2276
NsS'ncgc00167098_01'
p2277
NsS'ebselen'
p2278
NsS'trifluridine'
p2279
((F1.0
S'trifluridine'
p2280
tp2281
S"(st) matching: ratio , lcs, (key,drug) (keynorm,drugnorm 1.0 trifluridine ('trifluridine', 'trifluridine') ('trifluridine', 'trifluridine')"
p2282
tp2283
sS'brd_k32485462'
p2284
NsS'brd_a20697603'
p2285
NsS'brd_k02458594'
p2286
NsS'gr_108'
p2287
NsS'dexamethasone'
p2288
((F1.0
S'dexamethasone_acetate'
p2289
tp2290
S"Suffix-based-exact-matching ('dexamethasone', 'dexamethasone acetate') ('dexamethasone', 'dexamethasone_acetate')"
p2291
tp2292
sS'ici_192_605'
p2293
NsS'jak3_inhibitor_ii'
p2294
NsS'5_fluorouracil'
p2295
((F0.8571428571428571
S'fluorouracil'
p2296
tp2297
S"(st) matching: ratio , lcs, (key,drug) (keynorm,drugnorm 0.857142857143 fluorouracil ('5_fluorouracil', 'fluorouracil') ('5_fluorouracil', 'fluorouracil')"
p2298
tp2299
sS'thiazolopyrimidine'
p2300
NsS'kuc104135_kuc104135n'
p2301
NsS'nu7026'
p2302
NsS'2_nitroanisole'
p2303
NsS'arg_csc_91'
p2304
NsS'mls_0435526.0001'
p2305
NsS'brd_a68065211'
p2306
NsS'v2264'
p2307
NsS'cymarin'
p2308
NsS'ranolazine'
p2309
((F1.0
S'ranolazine'
p2310
tp2311
S"(st) matching: ratio , lcs, (key,drug) (keynorm,drugnorm 1.0 ranolazine ('ranolazine', 'ranolazine') ('ranolazine', 'ranolazine')"
p2312
tp2313
sS'compound_58'
p2314
NsS'pazopanib'
p2315
NsS'sulconazole_nitrate'
p2316
NsS'decitabine'
p2317
((F1.0
S'decitabine'
p2318
tp2319
S"(st) matching: ratio , lcs, (key,drug) (keynorm,drugnorm 1.0 decitabine ('decitabine', 'decitabine') ('decitabine', 'decitabine')"
p2320
tp2321
sS'brd_k83213280'
p2322
NsS'mirtazapine'
p2323
((F1.0
S'mirtazapine'
p2324
tp2325
S"(st) matching: ratio , lcs, (key,drug) (keynorm,drugnorm 1.0 mirtazapine ('mirtazapine', 'mirtazapine') ('mirtazapine', 'mirtazapine')"
p2326
tp2327
sS'u_0126'
p2328
NsS'ursodeoxycholic_acid'
p2329
NsS'noscapine'
p2330
NsS'vu0365118_1'
p2331
NsS'ys_035_hydrochloride'
p2332
NsS'pi_103'
p2333
NsS'cimetidine'
p2334
((F1.0
S'cimetidine_hydrochloride'
p2335
tp2336
S"Suffix-based-exact-matching ('cimetidine', 'cimetidine hydrochloride') ('cimetidine', 'cimetidine_hydrochloride')"
p2337
tp2338
sS'pac_1'
p2339
NsS'ubenimex'
p2340
NsS'hli_373'
p2341
NsS'brd_k03829970'
p2342
NsS'dequalinium_chloride'
p2343
NsS'salsolinol_hydrobromide'
p2344
NsS'nvp_aew541'
p2345
NsS'npk76_ii_72_1'
p2346
NsS'itavastatin_ca'
p2347
((F1.0
S'pitavastatin_calcium'
p2348
tp2349
S"(st) matching: ratio , lcs, (key,drug) (keynorm,drugnorm 1.0 itavastatin_ca ('itavastatin_ca', 'pitavastatin calcium') ('itavastatin_ca', 'pitavastatin_calcium')"
p2350
tp2351
sS's1252'
p2352
NsS'thioguanosine'
p2353
NsS'l_690_488'
p2354
NsS'fluvastatin'
p2355
((F1.0
S'fluvastatin_sodium'
p2356
tp2357
S"Suffix-based-exact-matching ('fluvastatin', 'fluvastatin sodium') ('fluvastatin', 'fluvastatin_sodium')"
p2358
tp2359
sS'exemestane'
p2360
((F1.0
S'exemestane'
p2361
tp2362
S"(st) matching: ratio , lcs, (key,drug) (keynorm,drugnorm 1.0 exemestane ('exemestane', 'exemestane') ('exemestane', 'exemestane')"
p2363
tp2364
sS'arachidonyl_trifluoro_methyl_ketone'
p2365
NsS'roflumilast'
p2366
((F1.0
S'roflumilast'
p2367
tp2368
S"(st) matching: ratio , lcs, (key,drug) (keynorm,drugnorm 1.0 roflumilast ('roflumilast', 'roflumilast') ('roflumilast', 'roflumilast')"
p2369
tp2370
sS'maprotiline'
p2371
((F1.0
S'maprotiline_hydrochloride'
p2372
tp2373
S"Suffix-based-exact-matching ('maprotiline', 'maprotiline hydrochloride') ('maprotiline', 'maprotiline_hydrochloride')"
p2374
tp2375
sS'123_trichloropropane'
p2376
NsS'brd_k61717269'
p2377
NsS'hy_50940'
p2378
NsS'altretamine'
p2379
NsS'rlm_2_12'
p2380
NsS'tolazamide'
p2381
((F1.0
S'tolazamide'
p2382
tp2383
S"(st) matching: ratio , lcs, (key,drug) (keynorm,drugnorm 1.0 tolazamide ('tolazamide', 'tolazamide') ('tolazamide', 'tolazamide')"
p2384
tp2385
sS'brd_k99616396'
p2386
NsS'brd_k70917163'
p2387
NsS'nn_dimethylformamide'
p2388
NsS'brd_k88329126'
p2389
NsS'sertraline'
p2390
((F1.0
S'sertraline_hydrochloride'
p2391
tp2392
S"Suffix-based-exact-matching ('sertraline', 'sertraline hydrochloride') ('sertraline', 'sertraline_hydrochloride')"
p2393
tp2394
sS'arp_101'
p2395
NsS'tramadol'
p2396
((F1.0
S'tramadol_hydrochloride'
p2397
tp2398
S"Suffix-based-exact-matching ('tramadol', 'tramadol hydrochloride') ('tramadol', 'tramadol_hydrochloride')"
p2399
tp2400
sS'brd_k86492010'
p2401
NsS'pf_04217903'
p2402
NsS'brd_k65050353'
p2403
NsS'fluticasone_propionate'
p2404
((F1.0
S'fluticasone_propionate'
p2405
tp2406
S"Suffix-based-exact-matching ('fluticasone_propionate', 'fluticasone propionate') ('fluticasone_propionate', 'fluticasone_propionate')"
p2407
tp2408
sS'chir_99021'
p2409
NsS'vu0365117_1'
p2410
NsS'perhexiline_maleate'
p2411
NsS'brd_a43087975'
p2412
NsS'lisinopril'
p2413
((F1.0
S'lisinopril'
p2414
tp2415
S"(st) matching: ratio , lcs, (key,drug) (keynorm,drugnorm 1.0 lisinopril ('lisinopril', 'lisinopril') ('lisinopril', 'lisinopril')"
p2416
tp2417
sS'dipivefrine'
p2418
((F0.9090909090909091
S'dipivefrin_hydrochloride'
p2419
tp2420
S"(st) matching: ratio , lcs, (key,drug) (keynorm,drugnorm 0.909090909091 dipivefrin ('dipivefrine', 'dipivefrin hydrochloride') ('dipivefrine', 'dipivefrin_hydrochloride')"
p2421
tp2422
sS'penitrem_a'
p2423
NsS'ncgc00185087_01'
p2424
NsS'chlorpyrifos'
p2425
NsS'brd_k74980345'
p2426
NsS'sodium_selenate'
p2427
NsS'brd_a66395008'
p2428
NsS'brd_k19295594'
p2429
NsS'brd_k83336168'
p2430
NsS'nystatin'
p2431
((F1.0
S'nystatin'
p2432
tp2433
S"(st) matching: ratio , lcs, (key,drug) (keynorm,drugnorm 1.0 nystatin ('nystatin', 'nystatin') ('nystatin', 'nystatin')"
p2434
tp2435
sS'(+)_pulegone'
p2436
NsS'nsc_23766'
p2437
NsS'brd_k87909389'
p2438
NsS'w_7_hydrochloride'
p2439
NsS'mst__312'
p2440
NsS'diclofenac_sodium'
p2441
((F1.0
S'diclofenac_sodium'
p2442
tp2443
S"Suffix-based-exact-matching ('diclofenac_sodium', 'diclofenac sodium') ('diclofenac_sodium', 'diclofenac_sodium')"
p2444
tp2445
sS'niclosamide'
p2446
NsS'brd_k79779816'
p2447
NsS'brd_k44276885'
p2448
NsS'neratinib'
p2449
NsS'jwe_035'
p2450
NsS'4_methylpyrazole'
p2451
NsS'brd_k68202742_(trichostatin_a)'
p2452
NsS'pralidoxime_chloride'
p2453
((F1.0
S'pralidoxime_chloride'
p2454
tp2455
S"Suffix-based-exact-matching ('pralidoxime_chloride', 'pralidoxime chloride') ('pralidoxime_chloride', 'pralidoxime_chloride')"
p2456
tp2457
sS'pha_00745360'
p2458
NsS'brd_k86027709'
p2459
NsS'clobenpropit_dihydrobromide'
p2460
NsS'brd_k94841585'
p2461
NsS'ici_89406'
p2462
NsS'iox2'
p2463
NsS'4_chloro_2_nitroaniline'
p2464
NsS'brd_k11072542'
p2465
NsS'amikacin'
p2466
((F1.0
S'amikacin_sulfate'
p2467
tp2468
S"Suffix-based-exact-matching ('amikacin', 'amikacin sulfate') ('amikacin', 'amikacin_sulfate')"
p2469
tp2470
sS'bifemelane_hydrochloride'
p2471
NsS'brd_k09854848'
p2472
NsS'brd_k42419294'
p2473
NsS'brd_k79390395'
p2474
NsS'mls_0454415.0001'
p2475
NsS'brd_u43867373'
p2476
NsS'hycanthone'
p2477
NsS'digitoxin'
p2478
NsS'brd_k99582188'
p2479
NsS'brd_k40373196'
p2480
NsS'jte_013'
p2481
NsS'isoprenaline'
p2482
NsS'colforsin'
p2483
NsS'bithionol'
p2484
NsS'carbenoxolone'
p2485
NsS'dubinidine'
p2486
NsS'medroxyprogesterone_17_acetate'
p2487
NsS'lanatoside_c'
p2488
NsS'candesartan'
p2489
((F1.0
S'candesartan_cilexetil'
p2490
tp2491
S"(st) matching: ratio , lcs, (key,drug) (keynorm,drugnorm 1.0 candesartan ('candesartan', 'candesartan cilexetil') ('candesartan', 'candesartan_cilexetil')"
p2492
tp2493
sS'brd_a50388635'
p2494
NsS'sertraline_hydrochloride'
p2495
((F1.0
S'sertraline_hydrochloride'
p2496
tp2497
S"Suffix-based-exact-matching ('sertraline_hydrochloride', 'sertraline hydrochloride') ('sertraline_hydrochloride', 'sertraline_hydrochloride')"
p2498
tp2499
sS'topotecan_hcl'
p2500
((F1.0
S'topotecan_hydrochloride'
p2501
tp2502
S"Suffix-based-exact-matching ('topotecan_hcl', 'topotecan hydrochloride') ('topotecan_hcl', 'topotecan_hydrochloride')"
p2503
tp2504
sS'metoclopramide_monohydrochloride'
p2505
NsS'ketorolac'
p2506
((F1.0
S'ketorolac_tromethamine'
p2507
tp2508
S"(st) matching: ratio , lcs, (key,drug) (keynorm,drugnorm 1.0 ketorolac ('ketorolac', 'ketorolac tromethamine') ('ketorolac', 'ketorolac_tromethamine')"
p2509
tp2510
sS'brd_k95138506'
p2511
NsS'pirinixic_acid'
p2512
NsS'brd_k71303366'
p2513
NsS'catechol'
p2514
NsS'talniflumate'
p2515
NsS'mosapride'
p2516
NsS'bupropion'
p2517
((F1.0
S'bupropion_hydrochloride'
p2518
tp2519
S"Suffix-based-exact-matching ('bupropion', 'bupropion hydrochloride') ('bupropion', 'bupropion_hydrochloride')"
p2520
tp2521
sS'dabrafenib'
p2522
NsS'brd_a06664848'
p2523
NsS'ic_261'
p2524
NsS'sunitinib'
p2525
((F1.0
S'sunitinib_malate'
p2526
tp2527
S"(st) matching: ratio , lcs, (key,drug) (keynorm,drugnorm 1.0 sunitinib ('sunitinib', 'sunitinib malate') ('sunitinib', 'sunitinib_malate')"
p2528
tp2529
sS'azd8055'
p2530
NsS'propranolol'
p2531
((F1.0
S'propranolol_hydrochloride'
p2532
tp2533
S"Suffix-based-exact-matching ('propranolol', 'propranolol hydrochloride') ('propranolol', 'propranolol_hydrochloride')"
p2534
tp2535
sS'rabeprazole'
p2536
((F1.0
S'rabeprazole_sodium'
p2537
tp2538
S"Suffix-based-exact-matching ('rabeprazole', 'rabeprazole sodium') ('rabeprazole', 'rabeprazole_sodium')"
p2539
tp2540
sS'hy_10966'
p2541
NsS'ciprofloxacin'
p2542
((F1.0
S'ciprofloxacin_hydrochloride'
p2543
tp2544
S"Suffix-based-exact-matching ('ciprofloxacin', 'ciprofloxacin hydrochloride') ('ciprofloxacin', 'ciprofloxacin_hydrochloride')"
p2545
tp2546
sS'helveticoside'
p2547
NsS'periplocymarin'
p2548
NsS'nan_190_hydrobromide'
p2549
NsS'ly_303511'
p2550
NsS'sulfadiazine'
p2551
((F1.0
S'sulfadiazine'
p2552
tp2553
S"(st) matching: ratio , lcs, (key,drug) (keynorm,drugnorm 1.0 sulfadiazine ('sulfadiazine', 'sulfadiazine') ('sulfadiazine', 'sulfadiazine')"
p2554
tp2555
sS's1475'
p2556
NsS'brd_k16290432'
p2557
NsS'dfb'
p2558
NsS'etofylline'
p2559
NsS'l_741_742_hydrochloride'
p2560
NsS'pioglitazone_hydrochloride'
p2561
((F1.0
S'pioglitazone_hydrochloride'
p2562
tp2563
S"Suffix-based-exact-matching ('pioglitazone_hydrochloride', 'pioglitazone hydrochloride') ('pioglitazone_hydrochloride', 'pioglitazone_hydrochloride')"
p2564
tp2565
sS'dicumarol'
p2566
((F1.0
S'dicumarol'
p2567
tp2568
S"(st) matching: ratio , lcs, (key,drug) (keynorm,drugnorm 1.0 dicumarol ('dicumarol', 'dicumarol') ('dicumarol', 'dicumarol')"
p2569
tp2570
sS'danazol'
p2571
((F1.0
S'danazol'
p2572
tp2573
S"(st) matching: ratio , lcs, (key,drug) (keynorm,drugnorm 1.0 danazol ('danazol', 'danazol') ('danazol', 'danazol')"
p2574
tp2575
sS'famprofazone'
p2576
NsS'pha_767491'
p2577
NsS'bms509744'
p2578
NsS'regorafenib'
p2579
NsS'lapatinib'
p2580
((F1.0
S'lapatinib'
p2581
tp2582
S"(st) matching: ratio , lcs, (key,drug) (keynorm,drugnorm 1.0 lapatinib ('lapatinib', 'lapatinib') ('lapatinib', 'lapatinib')"
p2583
tp2584
sS'lynestrenol'
p2585
NsS'wz_4_145'
p2586
NsS'brd_k07023879'
p2587
NsS'podofilox'
p2588
((F1.0
S'podofilox'
p2589
tp2590
S"(st) matching: ratio , lcs, (key,drug) (keynorm,drugnorm 1.0 podofilox ('podofilox', 'podofilox') ('podofilox', 'podofilox')"
p2591
tp2592
sS'gemfibrozil'
p2593
((F1.0
S'gemfibrozil'
p2594
tp2595
S"(st) matching: ratio , lcs, (key,drug) (keynorm,drugnorm 1.0 gemfibrozil ('gemfibrozil', 'gemfibrozil') ('gemfibrozil', 'gemfibrozil')"
p2596
tp2597
sS'calyculin_a'
p2598
NsS'flunisolide'
p2599
((F1.0
S'flunisolide'
p2600
tp2601
S"(st) matching: ratio , lcs, (key,drug) (keynorm,drugnorm 1.0 flunisolide ('flunisolide', 'flunisolide') ('flunisolide', 'flunisolide')"
p2602
tp2603
sS'azithromycin'
p2604
((F1.0
S'azithromycin'
p2605
tp2606
S"(st) matching: ratio , lcs, (key,drug) (keynorm,drugnorm 1.0 azithromycin ('azithromycin', 'azithromycin') ('azithromycin', 'azithromycin')"
p2607
tp2608
sS'amineptine'
p2609
NsS'indirubin_3_oxime'
p2610
NsS'vinblastine'
p2611
((F1.0
S'vinblastine_sulfate'
p2612
tp2613
S"Suffix-based-exact-matching ('vinblastine', 'vinblastine sulfate') ('vinblastine', 'vinblastine_sulfate')"
p2614
tp2615
sS'ei_247'
p2616
NsS'nisoldipine'
p2617
((F1.0
S'nisoldipine'
p2618
tp2619
S"(st) matching: ratio , lcs, (key,drug) (keynorm,drugnorm 1.0 nisoldipine ('nisoldipine', 'nisoldipine') ('nisoldipine', 'nisoldipine')"
p2620
tp2621
sS'brd_k14704318'
p2622
NsS'zileuton'
p2623
((F1.0
S'zileuton'
p2624
tp2625
S"(st) matching: ratio , lcs, (key,drug) (keynorm,drugnorm 1.0 zileuton ('zileuton', 'zileuton') ('zileuton', 'zileuton')"
p2626
tp2627
sS'zolantidine_dimaleate'
p2628
NsS'tretinoin'
p2629
((F1.0
S'tretinoin'
p2630
tp2631
S"(st) matching: ratio , lcs, (key,drug) (keynorm,drugnorm 1.0 tretinoin ('tretinoin', 'tretinoin') ('tretinoin', 'tretinoin')"
p2632
tp2633
sS'nifuroxazide'
p2634
NsS'brd_k58214070'
p2635
NsS'brd_k70161581'
p2636
NsS'naproxen'
p2637
((F1.0
S'naproxen_sodium'
p2638
tp2639
S"Suffix-based-exact-matching ('naproxen', 'naproxen sodium') ('naproxen', 'naproxen_sodium')"
p2640
tp2641
sS'ncgc00182607_01'
p2642
NsS'carbidopa'
p2643
((F1.0
S'carbidopa_and_levodopa'
p2644
tp2645
S"(st) matching: ratio , lcs, (key,drug) (keynorm,drugnorm 1.0 carbidopa ('carbidopa', 'carbidopa and levodopa') ('carbidopa', 'carbidopa_and_levodopa')"
p2646
tp2647
sS'brefeldin_a'
p2648
NsS'pp_2'
p2649
NsS'triprolidine_hydrochloride'
p2650
((F1.0
S'triprolidine'
p2651
tp2652
S"Suffix-based-exact-matching ('triprolidine_hydrochloride', 'triprolidine') ('triprolidine_hydrochloride', 'triprolidine')"
p2653
tp2654
sS'tolbutamide'
p2655
((F1.0
S'tolbutamide'
p2656
tp2657
S"(st) matching: ratio , lcs, (key,drug) (keynorm,drugnorm 1.0 tolbutamide ('tolbutamide', 'tolbutamide') ('tolbutamide', 'tolbutamide')"
p2658
tp2659
sS'ouabain'
p2660
NsS's1130'
p2661
NsS'bl_010'
p2662
NsS'syk_inhibitor'
p2663
NsS'brd_k10846167'
p2664
NsS'brd_k00627859'
p2665
NsS'stk249718'
p2666
NsS'cyclosporin_a'
p2667
NsS'brd_k00366212'
p2668
NsS'lenalidomide'
p2669
NsS'tacrolimus'
p2670
((F1.0
S'tacrolimus'
p2671
tp2672
S"(st) matching: ratio , lcs, (key,drug) (keynorm,drugnorm 1.0 tacrolimus ('tacrolimus', 'tacrolimus') ('tacrolimus', 'tacrolimus')"
p2673
tp2674
sS's1222'
p2675
NsS'brd_k35716340'
p2676
NsS'brd_k02646507'
p2677
NsS'kin001_242'
p2678
NsS'azacyclonol'
p2679
NsS'indomethacin'
p2680
((F1.0
S'indomethacin_sodium'
p2681
tp2682
S"Suffix-based-exact-matching ('indomethacin', 'indomethacin sodium') ('indomethacin', 'indomethacin_sodium')"
p2683
tp2684
sS'cyproterone_acetate'
p2685
NsS'rhamnetin'
p2686
NsS'cdc'
p2687
NsS'brd_k15916856'
p2688
NsS'quinacrine_dihydrochloride_dihydrate'
p2689
NsS'(_)_gallocatechin_gallate'
p2690
NsS'brd_k57678861'
p2691
NsS'brd_k53932786'
p2692
NsS'pi_103_hydrochloride'
p2693
NsS'azd_1480'
p2694
NsS'brd_k70751730'
p2695
NsS'pd_198306'
p2696
NsS'cgs_20625'
p2697
NsS'alclometazone_dipropionate'
p2698
NsS'mls_0437633.0003'
p2699
NsS'brd_k98896788'
p2700
NsS'jak3_inhibitor_v'
p2701
NsS'2_acetylaminofluorene'
p2702
NsS'thioacetamide'
p2703
NsS'brimonidine'
p2704
((F1.0
S'brimonidine_tartrate'
p2705
tp2706
S"(st) matching: ratio , lcs, (key,drug) (keynorm,drugnorm 1.0 brimonidine ('brimonidine', 'brimonidine tartrate') ('brimonidine', 'brimonidine_tartrate')"
p2707
tp2708
sS'brd_a15010982'
p2709
NsS'cercosporin'
p2710
NsS'brd_k11611839'
p2711
NsS'3_deoxydenosine'
p2712
NsS'oxymetazoline'
p2713
NsS'digitoxigenin'
p2714
NsS'tegafur'
p2715
NsS'sb_205384'
p2716
NsS'mls_0437446.0001'
p2717
NsS'natamycin'
p2718
NsS'brd_k53423944'
p2719
NsS'brd_k25536815'
p2720
NsS'copper_sulfate'
p2721
NsS'cgp_60474'
p2722
NsS'fenbufen'
p2723
NsS'gsk_j1'
p2724
NsS'minoxidil'
p2725
((F1.0
S'minoxidil'
p2726
tp2727
S"(st) matching: ratio , lcs, (key,drug) (keynorm,drugnorm 1.0 minoxidil ('minoxidil', 'minoxidil') ('minoxidil', 'minoxidil')"
p2728
tp2729
sS'cromolyn'
p2730
((F1.0
S'cromolyn_sodium'
p2731
tp2732
S"Suffix-based-exact-matching ('cromolyn', 'cromolyn sodium') ('cromolyn', 'cromolyn_sodium')"
p2733
tp2734
sS'benzonatate'
p2735
((F1.0
S'benzonatate'
p2736
tp2737
S"(st) matching: ratio , lcs, (key,drug) (keynorm,drugnorm 1.0 benzonatate ('benzonatate', 'benzonatate') ('benzonatate', 'benzonatate')"
p2738
tp2739
sS'brd_a75301702'
p2740
NsS'brd_a51777634'
p2741
NsS'alfacalcidol'
p2742
NsS'nnc_55_0396_dihydrochloride'
p2743
NsS'heliotrine'
p2744
NsS'ticlopidine'
p2745
((F1.0
S'ticlopidine_hydrochloride'
p2746
tp2747
S"Suffix-based-exact-matching ('ticlopidine', 'ticlopidine hydrochloride') ('ticlopidine', 'ticlopidine_hydrochloride')"
p2748
tp2749
sS'doxorubicin_hydrochloride'
p2750
((F1.0
S'doxorubicin_hydrochloride'
p2751
tp2752
S"Suffix-based-exact-matching ('doxorubicin_hydrochloride', 'doxorubicin hydrochloride') ('doxorubicin_hydrochloride', 'doxorubicin_hydrochloride')"
p2753
tp2754
sS'cucurbitacin_i'
p2755
NsS'propylene_glycol'
p2756
NsS'ceramide_c2'
p2757
NsS'brd_a36630025'
p2758
NsS'v4877'
p2759
NsS'brd_k37043259'
p2760
NsS'torin_1'
p2761
NsS'clomid'
p2762
((F1.0
S'clomid'
p2763
tp2764
S"(st) matching: ratio , lcs, (key,drug) (keynorm,drugnorm 1.0 clomid ('clomid', 'clomid') ('clomid', 'clomid')"
p2765
tp2766
sS'4_demethoxydaunorubicin_hydrochloride_(65)'
p2767
NsS'mln_8054'
p2768
NsS'benoxaprofen'
p2769
NsS'hg_5_113_01'
p2770
NsS'clarithromycin'
p2771
((F1.0
S'clarithromycin'
p2772
tp2773
S"(st) matching: ratio , lcs, (key,drug) (keynorm,drugnorm 1.0 clarithromycin ('clarithromycin', 'clarithromycin') ('clarithromycin', 'clarithromycin')"
p2774
tp2775
sS'kaempferol'
p2776
NsS'bmy_45778'
p2777
NsS'brd_k54687541'
p2778
NsS'duremesin'
p2779
NsS'brd_k30647638'
p2780
NsS'foretinib'
p2781
NsS'brd_k19166598'
p2782
NsS'i_ome_ag_538'
p2783
NsS'thioproperazine'
p2784
NsS'ondansetron'
p2785
((F1.0
S'ondansetron_hydrochloride'
p2786
tp2787
S"Suffix-based-exact-matching ('ondansetron', 'ondansetron hydrochloride') ('ondansetron', 'ondansetron_hydrochloride')"
p2788
tp2789
sS'betamethasone'
p2790
((F1.0
S'betamethasone_dipropionate'
p2791
tp2792
S"Suffix-based-exact-matching ('betamethasone', 'betamethasone dipropionate') ('betamethasone', 'betamethasone_dipropionate')"
p2793
tp2794
sS'norketamine_hydrochloride'
p2795
((F0.88
S'ketamine_hydrochloride'
p2796
tp2797
S"(st) matching: ratio , lcs, (key,drug) (keynorm,drugnorm 0.88 ketamine_hydrochloride ('norketamine_hydrochloride', 'ketamine hydrochloride') ('norketamine_hydrochloride', 'ketamine_hydrochloride')"
p2798
tp2799
sS'fu_jmbii227b'
p2800
NsS'brd_k45818044'
p2801
NsS'dihydroergocristine'
p2802
NsS'lasalocid'
p2803
NsS'epirubicin'
p2804
((F1.0
S'epirubicin_hydrochloride'
p2805
tp2806
S"Suffix-based-exact-matching ('epirubicin', 'epirubicin hydrochloride') ('epirubicin', 'epirubicin_hydrochloride')"
p2807
tp2808
sS'rjf_00360'
p2809
NsS'rifabutin'
p2810
((F1.0
S'rifabutin'
p2811
tp2812
S"(st) matching: ratio , lcs, (key,drug) (keynorm,drugnorm 1.0 rifabutin ('rifabutin', 'rifabutin') ('rifabutin', 'rifabutin')"
p2813
tp2814
sS'rolipram'
p2815
NsS'arecaidine_propargyl_ester_tosylate'
p2816
NsS'cobalt_(ii)_chloride'
p2817
NsS'y_134'
p2818
NsS'finasteride'
p2819
((F1.0
S'finasteride'
p2820
tp2821
S"(st) matching: ratio , lcs, (key,drug) (keynorm,drugnorm 1.0 finasteride ('finasteride', 'finasteride') ('finasteride', 'finasteride')"
p2822
tp2823
sS'metronidazole'
p2824
((F1.0
S'metronidazole_hydrochloride'
p2825
tp2826
S"Suffix-based-exact-matching ('metronidazole', 'metronidazole hydrochloride') ('metronidazole', 'metronidazole_hydrochloride')"
p2827
tp2828
sS'brd_k88868628'
p2829
NsS'penicillamine'
p2830
((F1.0
S'penicillamine'
p2831
tp2832
S"(st) matching: ratio , lcs, (key,drug) (keynorm,drugnorm 1.0 penicillamine ('penicillamine', 'penicillamine') ('penicillamine', 'penicillamine')"
p2833
tp2834
sS'orlistat'
p2835
NsS'kuc104491_kuc104491n'
p2836
NsS'dactinomycin'
p2837
((F1.0
S'dactinomycin'
p2838
tp2839
S"(st) matching: ratio , lcs, (key,drug) (keynorm,drugnorm 1.0 dactinomycin ('dactinomycin', 'dactinomycin') ('dactinomycin', 'dactinomycin')"
p2840
tp2841
sS'chloroxylenol'
p2842
NsS'amlodipine'
p2843
((F1.0
S'amlodipine_maleate'
p2844
tp2845
S"Suffix-based-exact-matching ('amlodipine', 'amlodipine maleate') ('amlodipine', 'amlodipine_maleate')"
p2846
tp2847
sS'd163_0113'
p2848
NsS'syrosingopine'
p2849
NsS'methyldopa'
p2850
((F1.0
S'methyldopa'
p2851
tp2852
S"(st) matching: ratio , lcs, (key,drug) (keynorm,drugnorm 1.0 methyldopa ('methyldopa', 'methyldopa') ('methyldopa', 'methyldopa')"
p2853
tp2854
sS'lamotrigine'
p2855
((F1.0
S'lamotrigine'
p2856
tp2857
S"(st) matching: ratio , lcs, (key,drug) (keynorm,drugnorm 1.0 lamotrigine ('lamotrigine', 'lamotrigine') ('lamotrigine', 'lamotrigine')"
p2858
tp2859
sS'foscarnet'
p2860
((F1.0
S'foscarnet_sodium'
p2861
tp2862
S"Suffix-based-exact-matching ('foscarnet', 'foscarnet sodium') ('foscarnet', 'foscarnet_sodium')"
p2863
tp2864
sS'pkc_412'
p2865
NsS'mefloquine_hydrochloride'
p2866
((F1.0
S'mefloquine_hydrochloride'
p2867
tp2868
S"Suffix-based-exact-matching ('mefloquine_hydrochloride', 'mefloquine hydrochloride') ('mefloquine_hydrochloride', 'mefloquine_hydrochloride')"
p2869
tp2870
sS'ioversol'
p2871
NsS'brd_k38615104'
p2872
NsS'x0379'
p2873
NsS'bjm_ctd2_9'
p2874
NsS'brd_k48654774'
p2875
NsS'bntx_maleate'
p2876
NsS'brd_k41429297'
p2877
NsS'brd_k28907958'
p2878
NsS'benzoxiquine'
p2879
NsS'brd_k51443908'
p2880
NsS'16beta_bromoandrosterone'
p2881
NsS'promethazine'
p2882
((F1.0
S'promethazine_hydrochloride'
p2883
tp2884
S"Suffix-based-exact-matching ('promethazine', 'promethazine hydrochloride') ('promethazine', 'promethazine_hydrochloride')"
p2885
tp2886
sS'geldanamycin'
p2887
NsS'isotretinoin'
p2888
((F1.0
S'isotretinoin'
p2889
tp2890
S"(st) matching: ratio , lcs, (key,drug) (keynorm,drugnorm 1.0 isotretinoin ('isotretinoin', 'isotretinoin') ('isotretinoin', 'isotretinoin')"
p2891
tp2892
sS'brd_k90826279'
p2893
NsS'brd_k74133369'
p2894
NsS'manganese_(ii)_chloride'
p2895
NsS'brd_a60245366'
p2896
NsS'mestanolone'
p2897
NsS'diphenhydramine'
p2898
((F1.0
S'diphenhydramine_hydrochloride'
p2899
tp2900
S"Suffix-based-exact-matching ('diphenhydramine', 'diphenhydramine hydrochloride') ('diphenhydramine', 'diphenhydramine_hydrochloride')"
p2901
tp2902
sS'brinzolamide'
p2903
NsS'brd_k34363599'
p2904
NsS'apigenin_triacetate'
p2905
NsS'brd_k07061353'
p2906
NsS'amprenavir'
p2907
NsS'budesonide'
p2908
((F1.0
S'budesonide'
p2909
tp2910
S"(st) matching: ratio , lcs, (key,drug) (keynorm,drugnorm 1.0 budesonide ('budesonide', 'budesonide') ('budesonide', 'budesonide')"
p2911
tp2912
sS'roxithromycin'
p2913
NsS'moxonidine'
p2914
NsS'flurbiprofen'
p2915
((F1.0
S'flurbiprofen_sodium'
p2916
tp2917
S"Suffix-based-exact-matching ('flurbiprofen', 'flurbiprofen sodium') ('flurbiprofen', 'flurbiprofen_sodium')"
p2918
tp2919
sS'l_755507'
p2920
NsS'amiodarone'
p2921
((F1.0
S'amiodarone_hydrochloride'
p2922
tp2923
S"Suffix-based-exact-matching ('amiodarone', 'amiodarone hydrochloride') ('amiodarone', 'amiodarone_hydrochloride')"
p2924
tp2925
sS'trap_101'
p2926
NsS'brd_k75081836'
p2927
NsS'brd_k26831771'
p2928
NsS'brd_k78559095'
p2929
NsS'az20'
p2930
NsS'methyldopa_(l__)'
p2931
NsS'dexchlorpheniramine'
p2932
((F1.0
S'dexchlorpheniramine_maleate'
p2933
tp2934
S"Suffix-based-exact-matching ('dexchlorpheniramine', 'dexchlorpheniramine maleate') ('dexchlorpheniramine', 'dexchlorpheniramine_maleate')"
p2935
tp2936
sS'mitotane'
p2937
NsS'cam_9_026_brd_k91442916'
p2938
NsS'brd_k52522949'
p2939
NsS'trifluoperazine_dihydrochloride'
p2940
((F1.0
S'trifluoperazine_hydrochloride'
p2941
tp2942
S"Suffix-based-exact-matching ('trifluoperazine_dihydrochloride', 'trifluoperazine hydrochloride') ('trifluoperazine_dihydrochloride', 'trifluoperazine_hydrochloride')"
p2943
tp2944
sS'nrb_04155'
p2945
NsS'olanzapine'
p2946
((F1.0
S'olanzapine'
p2947
tp2948
S"(st) matching: ratio , lcs, (key,drug) (keynorm,drugnorm 1.0 olanzapine ('olanzapine', 'olanzapine') ('olanzapine', 'olanzapine')"
p2949
tp2950
sS'nnc_711'
p2951
NsS'suxamethonium_chloride'
p2952
NsS'sc_19220'
p2953
NsS's1122'
p2954
NsS's1120'
p2955
NsS'hy_11009'
p2956
NsS'brd_k05153001'
p2957
NsS'triflusal'
p2958
NsS'methylbenzethonium_chloride'
p2959
NsS'rhizocarpic_acid'
p2960
NsS'cosmosiin'
p2961
NsS'fenobam'
p2962
NsS'ei_346'
p2963
NsS'4_nitrobenzoic_acid'
p2964
NsS'brd_k73567619'
p2965
NsS'antimycin_a'
p2966
NsS'brd_k78701355'
p2967
NsS'medroxyprogesterone'
p2968
((F1.0
S'medroxyprogesterone_acetate'
p2969
tp2970
S"Suffix-based-exact-matching ('medroxyprogesterone', 'medroxyprogesterone acetate') ('medroxyprogesterone', 'medroxyprogesterone_acetate')"
p2971
tp2972
sS'11_dichloroethene'
p2973
NsS'brd_k60870698'
p2974
NsS'melphalan'
p2975
((F1.0
S'melphalan_hydrochloride'
p2976
tp2977
S"Suffix-based-exact-matching ('melphalan', 'melphalan hydrochloride') ('melphalan', 'melphalan_hydrochloride')"
p2978
tp2979
sS'er_27319_maleate'
p2980
NsS'sodium_selenite'
p2981
NsS'ncgc00182609_01'
p2982
NsS'etoposide'
p2983
((F1.0
S'etoposide'
p2984
tp2985
S"(st) matching: ratio , lcs, (key,drug) (keynorm,drugnorm 1.0 etoposide ('etoposide', 'etoposide') ('etoposide', 'etoposide')"
p2986
tp2987
sS'brd_k15519488'
p2988
NsS'l_6307'
p2989
NsS'su_5416'
p2990
NsS'mdm2_inhibitor'
p2991
NsS'otssp167'
p2992
NsS'clindamycin'
p2993
((F1.0
S'clindamycin_phosphate'
p2994
tp2995
S"Suffix-based-exact-matching ('clindamycin', 'clindamycin phosphate') ('clindamycin', 'clindamycin_phosphate')"
p2996
tp2997
sS'altrenogest'
p2998
NsS'uzi/1930680'
p2999
NsS'brd_k04534322'
p3000
NsS'elesclomol'
p3001
NsS'vu0365121_1'
p3002
NsS'methylparaben'
p3003
NsS'butenafine'
p3004
((F1.0
S'butenafine_hydrochloride'
p3005
tp3006
S"Suffix-based-exact-matching ('butenafine', 'butenafine hydrochloride') ('butenafine', 'butenafine_hydrochloride')"
p3007
tp3008
sS'brd_k74949371'
p3009
NsS'brd_k62970326'
p3010
NsS'carbazol_9_yl_p_tolyl_methanone'
p3011
NsS'strophanthidin'
p3012
NsS'diclofenac'
p3013
((F1.0
S'diclofenac_sodium'
p3014
tp3015
S"Suffix-based-exact-matching ('diclofenac', 'diclofenac sodium') ('diclofenac', 'diclofenac_sodium')"
p3016
tp3017
sS'sb_218078'
p3018
NsS'hexachlorophene'
p3019
NsS'nilotinib'
p3020
NsS'ethosuximide'
p3021
((F1.0
S'ethosuximide'
p3022
tp3023
S"(st) matching: ratio , lcs, (key,drug) (keynorm,drugnorm 1.0 ethosuximide ('ethosuximide', 'ethosuximide') ('ethosuximide', 'ethosuximide')"
p3024
tp3025
sS'brd_k40175214'
p3026
NsS'rofecoxib'
p3027
NsS'brd_k35424586'
p3028
NsS'paroxetine_hydrochloride'
p3029
((F1.0
S'paroxetine_hydrochloride'
p3030
tp3031
S"Suffix-based-exact-matching ('paroxetine_hydrochloride', 'paroxetine hydrochloride') ('paroxetine_hydrochloride', 'paroxetine_hydrochloride')"
p3032
tp3033
sS'enrofloxacin'
p3034
NsS'mdv3100'
p3035
NsS'flavoxate'
p3036
((F1.0
S'flavoxate_hydrochloride'
p3037
tp3038
S"Suffix-based-exact-matching ('flavoxate', 'flavoxate hydrochloride') ('flavoxate', 'flavoxate_hydrochloride')"
p3039
tp3040
sS'brd_k65904652'
p3041
NsS'sotalol'
p3042
((F1.0
S'sotalol_hydrochloride'
p3043
tp3044
S"Suffix-based-exact-matching ('sotalol', 'sotalol hydrochloride') ('sotalol', 'sotalol_hydrochloride')"
p3045
tp3046
sS'fenoprofen'
p3047
((F1.0
S'fenoprofen_calcium'
p3048
tp3049
S"Suffix-based-exact-matching ('fenoprofen', 'fenoprofen calcium') ('fenoprofen', 'fenoprofen_calcium')"
p3050
tp3051
sS'clofarabine'
p3052
((F1.0
S'clofarabine'
p3053
tp3054
S"(st) matching: ratio , lcs, (key,drug) (keynorm,drugnorm 1.0 clofarabine ('clofarabine', 'clofarabine') ('clofarabine', 'clofarabine')"
p3055
tp3056
sS'acetylsalicylic_acid'
p3057
NsS'vu0424182_2'
p3058
NsS'ncgc00182361_01'
p3059
NsS'brd_k53610452'
p3060
NsS'brd_k50387473'
p3061
NsS'bibr1532'
p3062
NsS'bmy_7378_dihydrochloride'
p3063
NsS'b675700.cdx'
p3064
NsS'cis_(z)_flupenthixol'
p3065
NsS'everolimus'
p3066
((F1.0
S'everolimus'
p3067
tp3068
S"(st) matching: ratio , lcs, (key,drug) (keynorm,drugnorm 1.0 everolimus ('everolimus', 'everolimus') ('everolimus', 'everolimus')"
p3069
tp3070
sS'felamidin'
p3071
NsS'brd_k00430421'
p3072
NsS'ticrynafen'
p3073
NsS'3_methyladenine'
p3074
NsS'apigenin'
p3075
NsS'stock2s_79598'
p3076
NsS'brd_k55127335'
p3077
NsS'anisindione'
p3078
NsS'imperatorin'
p3079
NsS'hg_5_88_01'
p3080
NsS'brd_k53903639'
p3081
NsS'fccp'
p3082
NsS'penfluridol'
p3083
NsS'luteolin'
p3084
NsS'brd_k56593336'
p3085
NsS'nortriptyline'
p3086
((F1.0
S'nortriptyline_hydrochloride'
p3087
tp3088
S"Suffix-based-exact-matching ('nortriptyline', 'nortriptyline hydrochloride') ('nortriptyline', 'nortriptyline_hydrochloride')"
p3089
tp3090
sS's2004'
p3091
NsS'phenacetin'
p3092
NsS'nocodazole'
p3093
NsS's2001'
p3094
NsS'brd_k56196992'
p3095
NsS'brd_k17086338'
p3096
NsS'ub_165_fumarate'
p3097
NsS'ag_538'
p3098
NsS'linsitinib'
p3099
NsS'brd_k36354764'
p3100
NsS'phorbol_12_myristate_13_acetate_(pma)'
p3101
NsS'corticosterone'
p3102
NsS'chr_2797'
p3103
NsS'capsazepine'
p3104
NsS'brivanib'
p3105
NsS'promazine'
p3106
((F1.0
S'promazine_hydrochloride'
p3107
tp3108
S"Suffix-based-exact-matching ('promazine', 'promazine hydrochloride') ('promazine', 'promazine_hydrochloride')"
p3109
tp3110
sS'tripelennamine_citrate'
p3111
((F1.0
S'tripelennamine_hydrochloride'
p3112
tp3113
S"Suffix-based-exact-matching ('tripelennamine_citrate', 'tripelennamine hydrochloride') ('tripelennamine_citrate', 'tripelennamine_hydrochloride')"
p3114
tp3115
sS'cilostamide'
p3116
NsS'phenylhydrazine'
p3117
NsS'gdc_0068'
p3118
NsS'brd_k28610502'
p3119
NsS'mln2238'
p3120
NsS'loxoprofen'
p3121
NsS'brd_k01614657'
p3122
NsS'kuc103885_kuc103885n'
p3123
NsS'st4049616'
p3124
NsS'sb_200646_hydrochloride'
p3125
NsS'azacytidine_5'
p3126
NsS'imatinib'
p3127
((F1.0
S'imatinib_mesylate'
p3128
tp3129
S"Suffix-based-exact-matching ('imatinib', 'imatinib mesylate') ('imatinib', 'imatinib_mesylate')"
p3130
tp3131
sS'paroxetine'
p3132
((F1.0
S'paroxetine_hydrochloride'
p3133
tp3134
S"Suffix-based-exact-matching ('paroxetine', 'paroxetine hydrochloride') ('paroxetine', 'paroxetine_hydrochloride')"
p3135
tp3136
sS'vu0410183_2'
p3137
NsS'hy_10992'
p3138
NsS'brd_k39944607'
p3139
NsS'ibuprofen'
p3140
((F1.0
S'ibuprofen_sodium'
p3141
tp3142
S"Suffix-based-exact-matching ('ibuprofen', 'ibuprofen sodium') ('ibuprofen', 'ibuprofen_sodium')"
p3143
tp3144
sS'cobalt(ii)_acetylacetonate'
p3145
NsS'brd_k93578426'
p3146
NsS'k784_3188'
p3147
NsS'harringtonine'
p3148
NsS'ag_556'
p3149
NsS'brd_k89692698'
p3150
NsS'emd_386088_hydrochloride'
p3151
NsS'k784_3187'
p3152
NsS'ag_825'
p3153
NsS'brd_k78524708'
p3154
NsS'ossk_645668'
p3155
NsS'lansoprazole'
p3156
((F1.0
S'lansoprazole'
p3157
tp3158
S"(st) matching: ratio , lcs, (key,drug) (keynorm,drugnorm 1.0 lansoprazole ('lansoprazole', 'lansoprazole') ('lansoprazole', 'lansoprazole')"
p3159
tp3160
sS'hki_272'
p3161
NsS'h_8'
p3162
NsS'brd_k05977823'
p3163
NsS'clobetasol_propionate'
p3164
((F1.0
S'clobetasol_propionate'
p3165
tp3166
S"Suffix-based-exact-matching ('clobetasol_propionate', 'clobetasol propionate') ('clobetasol_propionate', 'clobetasol_propionate')"
p3167
tp3168
sS'nabumetone'
p3169
((F1.0
S'nabumetone'
p3170
tp3171
S"(st) matching: ratio , lcs, (key,drug) (keynorm,drugnorm 1.0 nabumetone ('nabumetone', 'nabumetone') ('nabumetone', 'nabumetone')"
p3172
tp3173
sS'ly_364947'
p3174
NsS'temsirolimus_[ci779]'
p3175
NsS'ossk_645683'
p3176
NsS'mls_0435534.0001'
p3177
NsS'nsc_632839_hydrochloride'
p3178
NsS'kin001_265'
p3179
NsS'kin001_266'
p3180
NsS'ritodrine_hydrochloride'
p3181
((F1.0
S'ritodrine_hcl'
p3182
tp3183
S"Suffix-based-exact-matching ('ritodrine_hydrochloride', 'ritodrine hcl') ('ritodrine_hydrochloride', 'ritodrine_hcl')"
p3184
tp3185
sS'tc_2559_difumarate'
p3186
NsS'ethacrynic_acid'
p3187
((F1.0
S'ethacrynic_acid'
p3188
tp3189
S"(st) matching: ratio , lcs, (key,drug) (keynorm,drugnorm 1.0 ethacrynic_acid ('ethacrynic_acid', 'ethacrynic acid') ('ethacrynic_acid', 'ethacrynic_acid')"
p3190
tp3191
sS'brd_u25771771'
p3192
NsS'6_methoxy_2_naphthylacetic_acid'
p3193
NsS'niguldipine_hydrochloride'
p3194
NsS'gadopentetate_dimeglumine'
p3195
NsS'amphetamine'
p3196
((F1.0
S'amphetamine_sulfate'
p3197
tp3198
S"Suffix-based-exact-matching ('amphetamine', 'amphetamine sulfate') ('amphetamine', 'amphetamine_sulfate')"
p3199
tp3200
sS'st001903'
p3201
NsS'triamcinolone_acetonide'
p3202
((F1.0
S'triamcinolone_acetonide'
p3203
tp3204
S"(st) matching: ratio , lcs, (key,drug) (keynorm,drugnorm 1.0 triamcinolone_acetonide ('triamcinolone_acetonide', 'triamcinolone acetonide') ('triamcinolone_acetonide', 'triamcinolone_acetonide')"
p3205
tp3206
sS'thapsigargin'
p3207
NsS'bd_1063_dihydrochloride'
p3208
NsS'brd_k13665914'
p3209
NsS'zidovudine'
p3210
((F1.0
S'zidovudine'
p3211
tp3212
S"(st) matching: ratio , lcs, (key,drug) (keynorm,drugnorm 1.0 zidovudine ('zidovudine', 'zidovudine') ('zidovudine', 'zidovudine')"
p3213
tp3214
sS'brompheniramine_maleate'
p3215
((F1.0
S'brompheniramine_maleate'
p3216
tp3217
S"Suffix-based-exact-matching ('brompheniramine_maleate', 'brompheniramine maleate') ('brompheniramine_maleate', 'brompheniramine_maleate')"
p3218
tp3219
sS'nutlin_3'
p3220
NsS'hypericin'
p3221
NsS'nylidrin_hydrochloride'
p3222
NsS'brd_k16331660'
p3223
NsS'gp_2a'
p3224
NsS'brd_k12762134'
p3225
NsS'brd_a43155244'
p3226
NsS'flucytosine'
p3227
((F1.0
S'flucytosine'
p3228
tp3229
S"(st) matching: ratio , lcs, (key,drug) (keynorm,drugnorm 1.0 flucytosine ('flucytosine', 'flucytosine') ('flucytosine', 'flucytosine')"
p3230
tp3231
sS'dmbi'
p3232
NsS'brd_k63068307'
p3233
NsS'triciribine'
p3234
NsS'cerivastatin'
p3235
NsS'pik_93'
p3236
NsS'pik_90'
p3237
NsS'bvt_948'
p3238
NsS'sulfamethoxazole'
p3239
((F1.0
S'sulfamethoxazole'
p3240
tp3241
S"(st) matching: ratio , lcs, (key,drug) (keynorm,drugnorm 1.0 sulfamethoxazole ('sulfamethoxazole', 'sulfamethoxazole') ('sulfamethoxazole', 'sulfamethoxazole')"
p3242
tp3243
sS'ethopropazine_hydrochloride'
p3244
NsS'tocainide'
p3245
NsS'epigallocatechin'
p3246
NsS'ql_xi_92'
p3247
NsS'brd_k27484191'
p3248
NsS'ipriflavone'
p3249
NsS'cortisone'
p3250
((F1.0
S'cortisone_acetate'
p3251
tp3252
S"Suffix-based-exact-matching ('cortisone', 'cortisone acetate') ('cortisone', 'cortisone_acetate')"
p3253
tp3254
sS's1118'
p3255
NsS'bacampicillin_hydrochloride'
p3256
NsS'estradiol'
p3257
((F1.0
S'estradiol'
p3258
tp3259
S"(st) matching: ratio , lcs, (key,drug) (keynorm,drugnorm 1.0 estradiol ('estradiol', 'estradiol') ('estradiol', 'estradiol')"
p3260
tp3261
sS'fluoxetine'
p3262
((F1.0
S'fluoxetine_hydrochloride'
p3263
tp3264
S"Suffix-based-exact-matching ('fluoxetine', 'fluoxetine hydrochloride') ('fluoxetine', 'fluoxetine_hydrochloride')"
p3265
tp3266
sS'hts_10859'
p3267
NsS'auranofin'
p3268
NsS'brd_k15640888'
p3269
NsS'arachidonamide'
p3270
NsS'su_4312'
p3271
NsS'nn__diphenyl_p_phenylenediamine'
p3272
NsS'brd_k49371609'
p3273
NsS'vitamin_e'
p3274
NsS'ncgc00182371_01'
p3275
NsS'mls_0390982'
p3276
NsS'fexaramine'
p3277
NsS'cyclosporine'
p3278
((F1.0
S'cyclosporine'
p3279
tp3280
S"(st) matching: ratio , lcs, (key,drug) (keynorm,drugnorm 1.0 cyclosporine ('cyclosporine', 'cyclosporine') ('cyclosporine', 'cyclosporine')"
p3281
tp3282
sS'methimazole'
p3283
((F1.0
S'methimazole'
p3284
tp3285
S"(st) matching: ratio , lcs, (key,drug) (keynorm,drugnorm 1.0 methimazole ('methimazole', 'methimazole') ('methimazole', 'methimazole')"
p3286
tp3287
sS'brd_k92317137'
p3288
NsS'ki_8751'
p3289
NsS's1205'
p3290
NsS'cisapride'
p3291
NsS'brd_k79235952'
p3292
NsS'dibutyrylcyclic_amp'
p3293
NsS'sodium_orthovanadate'
p3294
NsS'odq'
p3295
NsS'ramipril'
p3296
((F1.0
S'ramipril'
p3297
tp3298
S"(st) matching: ratio , lcs, (key,drug) (keynorm,drugnorm 1.0 ramipril ('ramipril', 'ramipril') ('ramipril', 'ramipril')"
p3299
tp3300
sS'acacetin'
p3301
NsS'perhexiline'
p3302
NsS'bi_2536'
p3303
NsS'dhpc8_buildingblockc04'
p3304
NsS'dicyclomine'
p3305
((F1.0
S'dicyclomine_hydrochloride'
p3306
tp3307
S"Suffix-based-exact-matching ('dicyclomine', 'dicyclomine hydrochloride') ('dicyclomine', 'dicyclomine_hydrochloride')"
p3308
tp3309
sS'staurosporine'
p3310
NsS'hg_14_8_02'
p3311
NsS'interleukin_6'
p3312
NsS'alprazolam'
p3313
((F1.0
S'alprazolam'
p3314
tp3315
S"(st) matching: ratio , lcs, (key,drug) (keynorm,drugnorm 1.0 alprazolam ('alprazolam', 'alprazolam') ('alprazolam', 'alprazolam')"
p3316
tp3317
sS'jnj_10191584_maleate'
p3318
NsS'as_601245'
p3319
NsS'alw_ii_38_3'
p3320
NsS'prostaglandin_a1'
p3321
NsS'brd_a31107743'
p3322
NsS'aripiprazole'
p3323
((F1.0
S'aripiprazole'
p3324
tp3325
S"(st) matching: ratio , lcs, (key,drug) (keynorm,drugnorm 1.0 aripiprazole ('aripiprazole', 'aripiprazole') ('aripiprazole', 'aripiprazole')"
p3326
tp3327
sS'fluocinolone_acetonide'
p3328
((F1.0
S'fluocinolone_acetonide'
p3329
tp3330
S"(st) matching: ratio , lcs, (key,drug) (keynorm,drugnorm 1.0 fluocinolone_acetonide ('fluocinolone_acetonide', 'fluocinolone acetonide') ('fluocinolone_acetonide', 'fluocinolone_acetonide')"
p3331
tp3332
sS'radicicol'
p3333
NsS'baclofen'
p3334
((F1.0
S'baclofen'
p3335
tp3336
S"(st) matching: ratio , lcs, (key,drug) (keynorm,drugnorm 1.0 baclofen ('baclofen', 'baclofen') ('baclofen', 'baclofen')"
p3337
tp3338
sS'barasertib'
p3339
NsS'gentian_violet'
p3340
NsS'nizatidine'
p3341
((F1.0
S'nizatidine'
p3342
tp3343
S"(st) matching: ratio , lcs, (key,drug) (keynorm,drugnorm 1.0 nizatidine ('nizatidine', 'nizatidine') ('nizatidine', 'nizatidine')"
p3344
tp3345
sS'zopiclone'
p3346
((F1.0
S'eszopiclone'
p3347
tp3348
S"(st) matching: ratio , lcs, (key,drug) (keynorm,drugnorm 1.0 zopiclone ('zopiclone', 'eszopiclone') ('zopiclone', 'eszopiclone')"
p3349
tp3350
sS'erastin'
p3351
NsS'brd_k69852452'
p3352
NsS'beta_naphthoflavone'
p3353
NsS'droperidol'
p3354
((F1.0
S'droperidol'
p3355
tp3356
S"(st) matching: ratio , lcs, (key,drug) (keynorm,drugnorm 1.0 droperidol ('droperidol', 'droperidol') ('droperidol', 'droperidol')"
p3357
tp3358
sS'brd_k00028814'
p3359
NsS'meropenem'
p3360
((F1.0
S'meropenem'
p3361
tp3362
S"(st) matching: ratio , lcs, (key,drug) (keynorm,drugnorm 1.0 meropenem ('meropenem', 'meropenem') ('meropenem', 'meropenem')"
p3363
tp3364
sS'idarubicin'
p3365
((F1.0
S'idarubicin_hydrochloride'
p3366
tp3367
S"Suffix-based-exact-matching ('idarubicin', 'idarubicin hydrochloride') ('idarubicin', 'idarubicin_hydrochloride')"
p3368
tp3369
sS'brd_k72703948'
p3370
NsS'bendroflumethiazide'
p3371
((F1.0
S'nadolol_and_bendroflumethiazide'
p3372
tp3373
S"(st) matching: ratio , lcs, (key,drug) (keynorm,drugnorm 1.0 bendroflumethiazide ('bendroflumethiazide', 'nadolol and bendroflumethiazide') ('bendroflumethiazide', 'nadolol_and_bendroflumethiazide')"
p3374
tp3375
sS'jnk_9l'
p3376
NsS'brd_k56477805'
p3377
NsS'ctb'
p3378
NsS'alfuzosin_hydrochloride'
p3379
((F1.0
S'alfuzosin_hydrochloride'
p3380
tp3381
S"Suffix-based-exact-matching ('alfuzosin_hydrochloride', 'alfuzosin hydrochloride') ('alfuzosin_hydrochloride', 'alfuzosin_hydrochloride')"
p3382
tp3383
sS'dl_pdmp'
p3384
NsS'brd_k92301463'
p3385
NsS'ym_201636'
p3386
NsS'sulpiride'
p3387
NsS'gly_his_lys'
p3388
NsS'bucladesine'
p3389
NsS'rottlerin_ncgc00025228_11'
p3390
NsS'brd_k34508425'
p3391
NsS'puromycin_hydrochloride'
p3392
NsS'brd_a18725729'
p3393
NsS'hy_10044'
p3394
NsS'crotamiton'
p3395
NsS't5212475'
p3396
NsS'choline_chloride'
p3397
NsS'pkcbeta_inhibitor'
p3398
NsS'coumarin'
p3399
NsS'mestranol'
p3400
((F1.0
S'mestranol'
p3401
tp3402
S"(st) matching: ratio , lcs, (key,drug) (keynorm,drugnorm 1.0 mestranol ('mestranol', 'mestranol') ('mestranol', 'mestranol')"
p3403
tp3404
sS'lithocholic_acid'
p3405
NsS'tranexamic_acid'
p3406
((F1.0
S'tranexamic_acid'
p3407
tp3408
S"(st) matching: ratio , lcs, (key,drug) (keynorm,drugnorm 1.0 tranexamic_acid ('tranexamic_acid', 'tranexamic acid') ('tranexamic_acid', 'tranexamic_acid')"
p3409
tp3410
sS'ethisterone'
p3411
NsS'nimodipine'
p3412
((F1.0
S'nimodipine'
p3413
tp3414
S"(st) matching: ratio , lcs, (key,drug) (keynorm,drugnorm 1.0 nimodipine ('nimodipine', 'nimodipine') ('nimodipine', 'nimodipine')"
p3415
tp3416
sS'chloroquine'
p3417
((F1.0
S'chloroquine_phosphate'
p3418
tp3419
S"Suffix-based-exact-matching ('chloroquine', 'chloroquine phosphate') ('chloroquine', 'chloroquine_phosphate')"
p3420
tp3421
sS'np_001236'
p3422
NsS'cadmium_chloride'
p3423
NsS'lovastatin'
p3424
((F1.0
S'lovastatin'
p3425
tp3426
S"(st) matching: ratio , lcs, (key,drug) (keynorm,drugnorm 1.0 lovastatin ('lovastatin', 'lovastatin') ('lovastatin', 'lovastatin')"
p3427
tp3428
sS'indatraline'
p3429
NsS'ch_55'
p3430
NsS'brd_k96433222'
p3431
NsS'brd_k93296644'
p3432
NsS'brd_k50140147'
p3433
NsS'pp_30'
p3434
NsS'brd_k31851742'
p3435
NsS'diphenylcyclopropenone'
p3436
NsS'brd_k78373679'
p3437
NsS'brd_u04166717'
p3438
NsS'pf_477736'
p3439
NsS'camptothecin'
p3440
NsS'amoxapine'
p3441
((F1.0
S'amoxapine'
p3442
tp3443
S"(st) matching: ratio , lcs, (key,drug) (keynorm,drugnorm 1.0 amoxapine ('amoxapine', 'amoxapine') ('amoxapine', 'amoxapine')"
p3444
tp3445
sS'brd_a58924247'
p3446
NsS'brd_k10705233'
p3447
NsS'chlormezanone'
p3448
NsS'quipazine_dimaleate_salt'
p3449
NsS'nvp_bgt226'
p3450
NsS'hy_10459'
p3451
NsS'r(_)_apomorphine_hydrochloride_hemihydrate'
p3452
NsS'thioridazine_hydrochloride'
p3453
((F1.0
S'thioridazine_hydrochloride'
p3454
tp3455
S"Suffix-based-exact-matching ('thioridazine_hydrochloride', 'thioridazine hydrochloride') ('thioridazine_hydrochloride', 'thioridazine_hydrochloride')"
p3456
tp3457
sS'brd_k67870070'
p3458
NsS'dyphylline'
p3459
NsS'brd_k72307842'
p3460
NsS'digoxin'
p3461
((F1.0
S'digoxin_pediatric'
p3462
tp3463
S"Suffix-based-exact-matching ('digoxin', 'digoxin pediatric') ('digoxin', 'digoxin_pediatric')"
p3464
tp3465
sS'ketoconazole'
p3466
((F1.0
S'ketoconazole'
p3467
tp3468
S"(st) matching: ratio , lcs, (key,drug) (keynorm,drugnorm 1.0 ketoconazole ('ketoconazole', 'ketoconazole') ('ketoconazole', 'ketoconazole')"
p3469
tp3470
sS'ncgc00242340_01'
p3471
NsS'brd_u74615290'
p3472
NsS'chrysin'
p3473
NsS'sb_431542'
p3474
NsS'milrinone'
p3475
((F1.0
S'milrinone_lactate'
p3476
tp3477
S"Suffix-based-exact-matching ('milrinone', 'milrinone lactate') ('milrinone', 'milrinone_lactate')"
p3478
tp3479
sS'bo2_(inhibits_rad51)'
p3480
NsS'bay_11_7821'
p3481
NsS'brd_k74797618'
p3482
NsS'cadmium_acetate'
p3483
NsS'doramapimod'
p3484
NsS'dinoprost'
p3485
NsS'brd_k71935468'
p3486
NsS'p8624'
p3487
NsS'carbon_tetrachloride'
p3488
NsS'tosufloxacin'
p3489
NsS'brd_k52099002'
p3490
NsS'eucalyptol'
p3491
NsS's6005'
p3492
NsS'cgp_54626_hydrochloride'
p3493
NsS'jlk_6'
p3494
NsS'sorafenib'
p3495
((F1.0
S'sorafenib'
p3496
tp3497
S"(st) matching: ratio , lcs, (key,drug) (keynorm,drugnorm 1.0 sorafenib ('sorafenib', 'sorafenib') ('sorafenib', 'sorafenib')"
p3498
tp3499
sS'terbinafine'
p3500
((F1.0
S'terbinafine_hydrochloride'
p3501
tp3502
S"Suffix-based-exact-matching ('terbinafine', 'terbinafine hydrochloride') ('terbinafine', 'terbinafine_hydrochloride')"
p3503
tp3504
sS'brd_a93393712'
p3505
NsS'akt_inhibitor_iv'
p3506
NsS'skf_86002_dihydrochloride'
p3507
NsS'hdac6_inhibitor_isox'
p3508
NsS'sertaconazole_nitrate'
p3509
NsS'ncgc00165193_01'
p3510
NsS'angiogenesis_inhibitor'
p3511
NsS'ski_ii'
p3512
NsS'kin001_270'
p3513
NsS'nvp_auy922'
p3514
NsS'thiostrepton'
p3515
NsS'isoflupredone_acetate'
p3516
NsS'methotrexate'
p3517
((F1.0
S'methotrexate_sodium'
p3518
tp3519
S"Suffix-based-exact-matching ('methotrexate', 'methotrexate sodium') ('methotrexate', 'methotrexate_sodium')"
p3520
tp3521
sS'hy_50767'
p3522
NsS'1483_0018'
p3523
NsS'chlorobenzene'
p3524
NsS'brd_k56653679'
p3525
NsS'pha_793887'
p3526
NsS'selamectin'
p3527
NsS'amg_9810'
p3528
NsS'brd_k10554164'
p3529
NsS'pyrazinamide'
p3530
((F1.0
S'pyrazinamide'
p3531
tp3532
S"(st) matching: ratio , lcs, (key,drug) (keynorm,drugnorm 1.0 pyrazinamide ('pyrazinamide', 'pyrazinamide') ('pyrazinamide', 'pyrazinamide')"
p3533
tp3534
sS'pfi_1'
p3535
NsS'chemistry_2804'
p3536
NsS'brd_k06217810'
p3537
NsS'ei_215'
p3538
NsS'brd_k64517075'
p3539
NsS'mibefradil_dihydrochloride'
p3540
NsS'etynodiol'
p3541
NsS'diethanolamine'
p3542
NsS'sb_216641_hydrochloride'
p3543
NsS'mrs_1220'
p3544
NsS'evista'
p3545
((F1.0
S'evista'
p3546
tp3547
S"(st) matching: ratio , lcs, (key,drug) (keynorm,drugnorm 1.0 evista ('evista', 'evista') ('evista', 'evista')"
p3548
tp3549
sS'brd_k16618170'
p3550
NsS'naloxone'
p3551
((F1.0
S'naloxone_hydrochloride'
p3552
tp3553
S"Suffix-based-exact-matching ('naloxone', 'naloxone hydrochloride') ('naloxone', 'naloxone_hydrochloride')"
p3554
tp3555
sS'gr_46611'
p3556
NsS'brd_a77467113'
p3557
NsS'brd_k15563106'
p3558
NsS'vincristine'
p3559
((F1.0
S'vincristine_sulfate'
p3560
tp3561
S"Suffix-based-exact-matching ('vincristine', 'vincristine sulfate') ('vincristine', 'vincristine_sulfate')"
p3562
tp3563
sS'dm163_brd_k06180729'
p3564
NsS'aminopentamide'
p3565
NsS'allyl_alcohol'
p3566
NsS'brd_k26304855'
p3567
NsS'brd_k92742972'
p3568
NsS'proglumide'
p3569
NsS'allylamine'
p3570
NsS'devazepide'
p3571
NsS'tizanidine_hcl'
p3572
((F1.0
S'tizanidine_hydrochloride'
p3573
tp3574
S"Suffix-based-exact-matching ('tizanidine_hcl', 'tizanidine hydrochloride') ('tizanidine_hcl', 'tizanidine_hydrochloride')"
p3575
tp3576
sS'niridazole'
p3577
NsS'artesunate'
p3578
((F1.0
S'artesunate'
p3579
tp3580
S"(st) matching: ratio , lcs, (key,drug) (keynorm,drugnorm 1.0 artesunate ('artesunate', 'artesunate') ('artesunate', 'artesunate')"
p3581
tp3582
sS'brd_k86761848'
p3583
NsS'flunarizine'
p3584
NsS'brd_a43640821'
p3585
NsS'sparfloxacin'
p3586
NsS'azaribine'
p3587
NsS'my_5445'
p3588
NsS'brd_u33728988'
p3589
NsS's1216'
p3590
NsS'cladribine'
p3591
((F1.0
S'cladribine'
p3592
tp3593
S"(st) matching: ratio , lcs, (key,drug) (keynorm,drugnorm 1.0 cladribine ('cladribine', 'cladribine') ('cladribine', 'cladribine')"
p3594
tp3595
sS'3_acetamidophenol'
p3596
NsS'bromhexine'
p3597
NsS'kenpaullone'
p3598
NsS'dipyrone'
p3599
NsS'canertinib'
p3600
NsS's(_)_timolol'
p3601
NsS'rocilinostat'
p3602
NsS'brd_k91509126_(piceatannol)'
p3603
NsS's1104'
p3604
NsS'pyridine'
p3605
((F1.0
S'sulfapyridine'
p3606
tp3607
S"(st) matching: ratio , lcs, (key,drug) (keynorm,drugnorm 1.0 pyridine ('pyridine', 'sulfapyridine') ('pyridine', 'sulfapyridine')"
p3608
tp3609
sS'azlocillin'
p3610
NsS'homoharringtonine'
p3611
NsS'pz0004'
p3612
NsS'brd_k84106030'
p3613
NsS'brd_k55612480'
p3614
NsS'dobutamine'
p3615
((F1.0
S'dobutamine_hydrochloride'
p3616
tp3617
S"Suffix-based-exact-matching ('dobutamine', 'dobutamine hydrochloride') ('dobutamine', 'dobutamine_hydrochloride')"
p3618
tp3619
sS'gr_113808'
p3620
NsS'desoxymetasone'
p3621
NsS't3205'
p3622
NsS'ethaverine'
p3623
NsS'cgs_12066b'
p3624
NsS'5_fluoro_2__deoxyuridine'
p3625
NsS'prednisolone_hemisuccinate'
p3626
NsS'ellipticine'
p3627
NsS'clomipramine'
p3628
((F1.0
S'clomipramine_hydrochloride'
p3629
tp3630
S"Suffix-based-exact-matching ('clomipramine', 'clomipramine hydrochloride') ('clomipramine', 'clomipramine_hydrochloride')"
p3631
tp3632
sS'brd_k25979535'
p3633
NsS'unc669'
p3634
NsS's1364'
p3635
NsS's1367'
p3636
NsS'penicillin_g_potassium'
p3637
((F1.0
S'penicillin_g_potassium'
p3638
tp3639
S"(st) matching: ratio , lcs, (key,drug) (keynorm,drugnorm 1.0 penicillin_g_potassium ('penicillin_g_potassium', 'penicillin g potassium') ('penicillin_g_potassium', 'penicillin_g_potassium')"
p3640
tp3641
sS'sib_1893'
p3642
NsS'thz_2_98_01'
p3643
NsS'bleomycin'
p3644
((F1.0
S'bleomycin_sulfate'
p3645
tp3646
S"Suffix-based-exact-matching ('bleomycin', 'bleomycin sulfate') ('bleomycin', 'bleomycin_sulfate')"
p3647
tp3648
sS'brd_k82857306'
p3649
NsS'sar_245408'
p3650
NsS'tranilast'
p3651
NsS'mls_0391006'
p3652
NsS'mls_0391005'
p3653
NsS'probenecid'
p3654
((F1.0
S'probenecid'
p3655
tp3656
S"(st) matching: ratio , lcs, (key,drug) (keynorm,drugnorm 1.0 probenecid ('probenecid', 'probenecid') ('probenecid', 'probenecid')"
p3657
tp3658
sS'linifanib'
p3659
NsS'brd_k97764662'
p3660
NsS'ncgc00242267_03'
p3661
NsS'pipenzolate_bromide'
p3662
NsS'tnf_alpha'
p3663
NsS'valsartan'
p3664
((F1.0
S'valsartan'
p3665
tp3666
S"(st) matching: ratio , lcs, (key,drug) (keynorm,drugnorm 1.0 valsartan ('valsartan', 'valsartan') ('valsartan', 'valsartan')"
p3667
tp3668
sS'trimethadione'
p3669
NsS'(+)_jq1'
p3670
NsS'peitc'
p3671
NsS'mls_0435541.0001'
p3672
NsS'brd_k14939371'
p3673
NsS'flufenamic_acid'
p3674
NsS'1391_0741'
p3675
NsS'sulfamethazine_sodium_salt'
p3676
NsS'brd_k81473043'
p3677
NsS'ki20227'
p3678
NsS'brd_k36055864_(cycloheximide)'
p3679
NsS'ikk_3_inhibitor_ix'
p3680
NsS'levcromakalim'
p3681
NsS'ncgc00166375_02'
p3682
NsS'alfadolone_acetate'
p3683
NsS'beta_escin'
p3684
NsS'azd_6482'
p3685
NsS'brd_k79554012'
p3686
NsS'olaparib'
p3687
NsS'dexfenfluramine'
p3688
NsS'dihydroptaeroxylin'
p3689
NsS'fenbendazole'
p3690
NsS'diazepam'
p3691
((F1.0
S'diazepam_intensol'
p3692
tp3693
S"Suffix-based-exact-matching ('diazepam', 'diazepam intensol') ('diazepam', 'diazepam_intensol')"
p3694
tp3695
sS'brd_k04923131'
p3696
NsS'gentamicin'
p3697
((F1.0
S'gentamicin_sulfate'
p3698
tp3699
S"Suffix-based-exact-matching ('gentamicin', 'gentamicin sulfate') ('gentamicin', 'gentamicin_sulfate')"
p3700
tp3701
sS'pi_828'
p3702
NsS'brd_k85660637'
p3703
NsS'benzopurpurin_(b)'
p3704
NsS'brd_k00551481'
p3705
NsS'homosalate'
p3706
NsS'pepstatin_a'
p3707
NsS'aldosterone'
p3708
NsS'etodolac'
p3709
((F1.0
S'etodolac'
p3710
tp3711
S"(st) matching: ratio , lcs, (key,drug) (keynorm,drugnorm 1.0 etodolac ('etodolac', 'etodolac') ('etodolac', 'etodolac')"
p3712
tp3713
sS'prednisone'
p3714
((F1.0
S'prednisone_intensol'
p3715
tp3716
S"Suffix-based-exact-matching ('prednisone', 'prednisone intensol') ('prednisone', 'prednisone_intensol')"
p3717
tp3718
sS'troglitazone'
p3719
NsS'brd_k39866321'
p3720
NsS'lidocaine'
p3721
((F1.0
S'lidocaine_hydrochloride'
p3722
tp3723
S"Suffix-based-exact-matching ('lidocaine', 'lidocaine hydrochloride') ('lidocaine', 'lidocaine_hydrochloride')"
p3724
tp3725
sS'mesna'
p3726
((F1.0
S'mesna'
p3727
tp3728
S"(st) matching: ratio , lcs, (key,drug) (keynorm,drugnorm 1.0 mesna ('mesna', 'mesna') ('mesna', 'mesna')"
p3729
tp3730
sS'acarbose'
p3731
((F1.0
S'acarbose'
p3732
tp3733
S"(st) matching: ratio , lcs, (key,drug) (keynorm,drugnorm 1.0 acarbose ('acarbose', 'acarbose') ('acarbose', 'acarbose')"
p3734
tp3735
sS'brd_k58853583'
p3736
NsS's1011'
p3737
NsS'brd_a98444709'
p3738
NsS'brd_k43913647'
p3739
NsS'brd_k56515112_(medrysone)'
p3740
NsS'brd_k85275009'
p3741
NsS'brd_k23149109'
p3742
NsS'brd_k90543092'
p3743
NsS'brd_u73238814'
p3744
NsS'beclomethasone'
p3745
NsS'brd_k91145395'
p3746
NsS'dimethyl_methylphosphonate'
p3747
NsS'at7867'
p3748
NsS'cinanserin'
p3749
NsS'daunorubicin'
p3750
((F1.0
S'daunorubicin_hydrochloride'
p3751
tp3752
S"Suffix-based-exact-matching ('daunorubicin', 'daunorubicin hydrochloride') ('daunorubicin', 'daunorubicin_hydrochloride')"
p3753
tp3754
sS'bithionate_sodium'
p3755
NsS'saquinavir'
p3756
NsS'trametinib'
p3757
NsS'gelsemine'
p3758
NsS'hy_11001'
p3759
NsS'hy_11006'
p3760
NsS'hy_11007'
p3761
NsS'ncgc00241726_01'
p3762
NsS'hy_11005'
p3763
NsS'brd_k89059493'
p3764
NsS'ncgc00188536_01'
p3765
NsS'dienestrol'
p3766
((F1.0
S'dienestrol'
p3767
tp3768
S"(st) matching: ratio , lcs, (key,drug) (keynorm,drugnorm 1.0 dienestrol ('dienestrol', 'dienestrol') ('dienestrol', 'dienestrol')"
p3769
tp3770
sS'stock1s_53863'
p3771
NsS'brd_u29336476'
p3772
NsS'pemoline'
p3773
((F1.0
S'pemoline'
p3774
tp3775
S"(st) matching: ratio , lcs, (key,drug) (keynorm,drugnorm 1.0 pemoline ('pemoline', 'pemoline') ('pemoline', 'pemoline')"
p3776
tp3777
sS'clomiphene'
p3778
((F1.0
S'clomiphene_citrate'
p3779
tp3780
S"Suffix-based-exact-matching ('clomiphene', 'clomiphene citrate') ('clomiphene', 'clomiphene_citrate')"
p3781
tp3782
sS'menadione'
p3783
((F1.0
S'menadione'
p3784
tp3785
S"(st) matching: ratio , lcs, (key,drug) (keynorm,drugnorm 1.0 menadione ('menadione', 'menadione') ('menadione', 'menadione')"
p3786
tp3787
sS'brd_k68588778'
p3788
NsS'ritodrine'
p3789
((F1.0
S'ritodrine_hcl'
p3790
tp3791
S"Suffix-based-exact-matching ('ritodrine', 'ritodrine hcl') ('ritodrine', 'ritodrine_hcl')"
p3792
tp3793
sS'd3943'
p3794
NsS'trovafloxacin'
p3795
NsS'deferiprone'
p3796
((F1.0
S'deferiprone'
p3797
tp3798
S"(st) matching: ratio , lcs, (key,drug) (keynorm,drugnorm 1.0 deferiprone ('deferiprone', 'deferiprone') ('deferiprone', 'deferiprone')"
p3799
tp3800
sS'gemcitabine'
p3801
((F1.0
S'gemcitabine_hydrochloride'
p3802
tp3803
S"Suffix-based-exact-matching ('gemcitabine', 'gemcitabine hydrochloride') ('gemcitabine', 'gemcitabine_hydrochloride')"
p3804
tp3805
sS'pheniramine'
p3806
((F1.0
S'pheniramine_maleate'
p3807
tp3808
S"Suffix-based-exact-matching ('pheniramine', 'pheniramine maleate') ('pheniramine', 'pheniramine_maleate')"
p3809
tp3810
sS'tobramycin'
p3811
((F1.0
S'tobramycin_sulfate'
p3812
tp3813
S"Suffix-based-exact-matching ('tobramycin', 'tobramycin sulfate') ('tobramycin', 'tobramycin_sulfate')"
p3814
tp3815
sS'fluphenazine'
p3816
((F1.0
S'fluphenazine_hydrochloride'
p3817
tp3818
S"Suffix-based-exact-matching ('fluphenazine', 'fluphenazine hydrochloride') ('fluphenazine', 'fluphenazine_hydrochloride')"
p3819
tp3820
sS'brd_k63175663'
p3821
NsS'ei_148'
p3822
NsS'brd_k11795542'
p3823
NsS'kin001_043'
p3824
NsS'aminocaproic_acid'
p3825
((F1.0
S'aminocaproic_acid'
p3826
tp3827
S"(st) matching: ratio , lcs, (key,drug) (keynorm,drugnorm 1.0 aminocaproic_acid ('aminocaproic_acid', 'aminocaproic acid') ('aminocaproic_acid', 'aminocaproic_acid')"
p3828
tp3829
sS'dexibuprofen'
p3830
NsS'brd_k94390040'
p3831
NsS'alprostadil'
p3832
((F1.0
S'alprostadil'
p3833
tp3834
S"(st) matching: ratio , lcs, (key,drug) (keynorm,drugnorm 1.0 alprostadil ('alprostadil', 'alprostadil') ('alprostadil', 'alprostadil')"
p3835
tp3836
sS'ql_x_138'
p3837
NsS'palda'
p3838
NsS'tl_hras26_brd_k01877528'
p3839
NsS'salicylamide'
p3840
NsS'ribostamycin'
p3841
NsS'ncgc00165199_01'
p3842
NsS'kanamycin'
p3843
((F1.0
S'kanamycin_sulfate'
p3844
tp3845
S"Suffix-based-exact-matching ('kanamycin', 'kanamycin sulfate') ('kanamycin', 'kanamycin_sulfate')"
p3846
tp3847
sS'brd_a06929388'
p3848
NsS'ursolic_acid'
p3849
NsS'cilostazol'
p3850
((F1.0
S'cilostazol'
p3851
tp3852
S"(st) matching: ratio , lcs, (key,drug) (keynorm,drugnorm 1.0 cilostazol ('cilostazol', 'cilostazol') ('cilostazol', 'cilostazol')"
p3853
tp3854
sS'brd_k89009594'
p3855
NsS'methylprednisolone'
p3856
((F1.0
S'methylprednisolone_acetate'
p3857
tp3858
S"Suffix-based-exact-matching ('methylprednisolone', 'methylprednisolone acetate') ('methylprednisolone', 'methylprednisolone_acetate')"
p3859
tp3860
sS'brd_k25737009'
p3861
NsS'quinine_hemisulfate_salt_monohydrate'
p3862
NsS'pyrrolidinedithiocarbamate_ammonium'
p3863
NsS'amsacrine'
p3864
NsS'on_01910'
p3865
NsS'ncgc00183255_01'
p3866
NsS'sb_239063'
p3867
NsS'kw_2449'
p3868
NsS'hy_70044'
p3869
NsS'doxepin'
p3870
((F1.0
S'doxepin_hydrochloride'
p3871
tp3872
S"Suffix-based-exact-matching ('doxepin', 'doxepin hydrochloride') ('doxepin', 'doxepin_hydrochloride')"
p3873
tp3874
sS'fluconazole'
p3875
((F1.0
S'fluconazole'
p3876
tp3877
S"(st) matching: ratio , lcs, (key,drug) (keynorm,drugnorm 1.0 fluconazole ('fluconazole', 'fluconazole') ('fluconazole', 'fluconazole')"
p3878
tp3879
sS'nimesulide'
p3880
NsS'brd_k57037351'
p3881
NsS'aristolochic_acid'
p3882
NsS'brd_k95196255'
p3883
NsS't5247673'
p3884
NsS'6_benzylaminopurine'
p3885
NsS'brd_k09186807'
p3886
NsS'bx_912'
p3887
NsS'brd_k84450674'
p3888
NsS'triptolide'
p3889
NsS'a112550.cdx'
p3890
NsS'mek1/2_inhibitor'
p3891
NsS'brd_k52080565'
p3892
NsS'brd_k52914903'
p3893
NsS'7b_cis'
p3894
NsS'vinpocetine'
p3895
NsS'jnj_38877605'
p3896
NsS'azd_5438'
p3897
NsS'brd_k62169556'
p3898
NsS'ketorolac_tromethamine'
p3899
((F1.0
S'ketorolac_tromethamine'
p3900
tp3901
S"(st) matching: ratio , lcs, (key,drug) (keynorm,drugnorm 1.0 ketorolac_tromethamine ('ketorolac_tromethamine', 'ketorolac tromethamine') ('ketorolac_tromethamine', 'ketorolac_tromethamine')"
p3902
tp3903
sS'brd_k37798499'
p3904
NsS'timolol'
p3905
((F1.0
S'timolol_maleate'
p3906
tp3907
S"Suffix-based-exact-matching ('timolol', 'timolol maleate') ('timolol', 'timolol_maleate')"
p3908
tp3909
sS'brd_a84102390'
p3910
NsS'flumethasone'
p3911
NsS'brd_k07877311'
p3912
NsS's1003'
p3913
NsS'doxycycline'
p3914
((F1.0
S'doxycycline_hyclate'
p3915
tp3916
S"(st) matching: ratio , lcs, (key,drug) (keynorm,drugnorm 1.0 doxycycline ('doxycycline', 'doxycycline hyclate') ('doxycycline', 'doxycycline_hyclate')"
p3917
tp3918
sS'brd_k23282736'
p3919
NsS'ncgc00188530_01'
p3920
NsS'rosiglitazone'
p3921
((F1.0
S'rosiglitazone_maleate'
p3922
tp3923
S"Suffix-based-exact-matching ('rosiglitazone', 'rosiglitazone maleate') ('rosiglitazone', 'rosiglitazone_maleate')"
p3924
tp3925
sS'dibromochloromethane'
p3926
NsS's1485'
p3927
NsS'zm_447439'
p3928
NsS'rizatriptan_benzoate'
p3929
((F1.0
S'rizatriptan_benzoate'
p3930
tp3931
S"(st) matching: ratio , lcs, (key,drug) (keynorm,drugnorm 1.0 rizatriptan_benzoate ('rizatriptan_benzoate', 'rizatriptan benzoate') ('rizatriptan_benzoate', 'rizatriptan_benzoate')"
p3932
tp3933
sS'bl_052'
p3934
NsS's1170'
p3935
NsS'brd_k67619794'
p3936
NsS'brd_k70251741'
p3937
NsS'aceclofenac'
p3938
NsS's1176'
p3939
NsS'nsc_3852'
p3940
NsS'bms_387032'
p3941
NsS'rescinnamine'
p3942
NsS'levetiracetam'
p3943
((F1.0
S'levetiracetam'
p3944
tp3945
S"(st) matching: ratio , lcs, (key,drug) (keynorm,drugnorm 1.0 levetiracetam ('levetiracetam', 'levetiracetam') ('levetiracetam', 'levetiracetam')"
p3946
tp3947
sS'cefixime'
p3948
((F1.0
S'cefixime'
p3949
tp3950
S"(st) matching: ratio , lcs, (key,drug) (keynorm,drugnorm 1.0 cefixime ('cefixime', 'cefixime') ('cefixime', 'cefixime')"
p3951
tp3952
sS'hemicholinium_bromide'
p3953
NsS'azd_7762'
p3954
NsS'pz0013'
p3955
NsS'cot_10b'
p3956
NsS'cp466722'
p3957
NsS'indinavir'
p3958
NsS'hexachloroethane'
p3959
NsS'cholic_acid'
p3960
NsS'brd_k21165668'
p3961
NsS'0317956_0000'
p3962
NsS'brd_k58288048'
p3963
NsS'brd_k96704748'
p3964
NsS'gr_103'
p3965
NsS'buparlisib'
p3966
NsS'gr_105'
p3967
NsS'brd_k32896438'
p3968
NsS'gr_109'
p3969
NsS'pp_110'
p3970
NsS'chloramphenicol'
p3971
((F1.0
S'chloramphenicol'
p3972
tp3973
S"(st) matching: ratio , lcs, (key,drug) (keynorm,drugnorm 1.0 chloramphenicol ('chloramphenicol', 'chloramphenicol') ('chloramphenicol', 'chloramphenicol')"
p3974
tp3975
sS'jnk_in_5a'
p3976
NsS'enoxacin'
p3977
NsS'rapamycin'
p3978
((F1.0
S'rapamycin'
p3979
tp3980
S"(st) matching: ratio , lcs, (key,drug) (keynorm,drugnorm 1.0 rapamycin ('rapamycin', 'rapamycin') ('rapamycin', 'rapamycin')"
p3981
tp3982
sS'xylazine'
p3983
NsS'brd_k68174511'
p3984
NsS'a2478'
p3985
NsS'deferoxamine'
p3986
((F1.0
S'deferoxamine_mesylate'
p3987
tp3988
S"Suffix-based-exact-matching ('deferoxamine', 'deferoxamine mesylate') ('deferoxamine', 'deferoxamine_mesylate')"
p3989
tp3990
sS'ag_494'
p3991
NsS'ag_490'
p3992
NsS'allopurinol'
p3993
((F1.0
S'allopurinol_sodium'
p3994
tp3995
S"Suffix-based-exact-matching ('allopurinol', 'allopurinol sodium') ('allopurinol', 'allopurinol_sodium')"
p3996
tp3997
sS'sirolimus'
p3998
((F1.0
S'sirolimus'
p3999
tp4000
S"(st) matching: ratio , lcs, (key,drug) (keynorm,drugnorm 1.0 sirolimus ('sirolimus', 'sirolimus') ('sirolimus', 'sirolimus')"
p4001
tp4002
sS'benzamil'
p4003
NsS'protein_tyrosine_phosphatase_inhibitor_iv'
p4004
NsS'gsk_2334470'
p4005
NsS'lamivudine'
p4006
((F1.0
S'lamivudine'
p4007
tp4008
S"(st) matching: ratio , lcs, (key,drug) (keynorm,drugnorm 1.0 lamivudine ('lamivudine', 'lamivudine') ('lamivudine', 'lamivudine')"
p4009
tp4010
sS'darinaparsin'
p4011
NsS'vindesine'
p4012
NsS'galantamine'
p4013
((F1.0
S'galantamine_hydrobromide'
p4014
tp4015
S"Suffix-based-exact-matching ('galantamine', 'galantamine hydrobromide') ('galantamine', 'galantamine_hydrobromide')"
p4016
tp4017
sS'gabapentin'
p4018
((F1.0
S'gabapentin'
p4019
tp4020
S"(st) matching: ratio , lcs, (key,drug) (keynorm,drugnorm 1.0 gabapentin ('gabapentin', 'gabapentin') ('gabapentin', 'gabapentin')"
p4021
tp4022
sS't5220758'
p4023
NsS'6_mercaptopurine'
p4024
NsS'roscovitine'
p4025
NsS'brd_k72238567'
p4026
NsS'cetraxate'
p4027
NsS'hy_10159'
p4028
NsS'oxfendazole'
p4029
NsS'km_00927'
p4030
NsS'narciclasine'
p4031
NsS'trichostatin_a'
p4032
NsS'crizotinib'
p4033
NsS'hydroquinone'
p4034
NsS'nintedanib'
p4035
NsS'eplerenone'
p4036
((F1.0
S'eplerenone'
p4037
tp4038
S"(st) matching: ratio , lcs, (key,drug) (keynorm,drugnorm 1.0 eplerenone ('eplerenone', 'eplerenone') ('eplerenone', 'eplerenone')"
p4039
tp4040
sS'vitamin_a'
p4041
((F1.0
S'vitamin_a'
p4042
tp4043
S"(st) matching: ratio , lcs, (key,drug) (keynorm,drugnorm 1.0 vitamin_a ('vitamin_a', 'vitamin a') ('vitamin_a', 'vitamin_a')"
p4044
tp4045
sS'st4028268'
p4046
NsS'glycine'
p4047
((F1.0
S'glycine'
p4048
tp4049
S"(st) matching: ratio , lcs, (key,drug) (keynorm,drugnorm 1.0 glycine ('glycine', 'glycine') ('glycine', 'glycine')"
p4050
tp4051
sS'loracarbef'
p4052
NsS'ku_0060648_trihydrochloride'
p4053
NsS'iproniazide_phosphate'
p4054
NsS'brd_k84762162'
p4055
NsS'vecuronium_bromide'
p4056
((F1.0
S'vecuronium_bromide'
p4057
tp4058
S"(st) matching: ratio , lcs, (key,drug) (keynorm,drugnorm 1.0 vecuronium_bromide ('vecuronium_bromide', 'vecuronium bromide') ('vecuronium_bromide', 'vecuronium_bromide')"
p4059
tp4060
sS'loperamide'
p4061
((F1.0
S'loperamide_hydrochloride'
p4062
tp4063
S"Suffix-based-exact-matching ('loperamide', 'loperamide hydrochloride') ('loperamide', 'loperamide_hydrochloride')"
p4064
tp4065
sS'mls_0390818.0001'
p4066
NsS'ampicillin'
p4067
((F1.0
S'ampicillin_sodium'
p4068
tp4069
S"Suffix-based-exact-matching ('ampicillin', 'ampicillin sodium') ('ampicillin', 'ampicillin_sodium')"
p4070
tp4071
sS'brd_k05104363'
p4072
NsS'fr_139317'
p4073
NsS'4_nitrotoluene'
p4074
NsS'cabozantinib'
p4075
NsS'valacyclovir'
p4076
((F1.0
S'valacyclovir_hydrochloride'
p4077
tp4078
S"Suffix-based-exact-matching ('valacyclovir', 'valacyclovir hydrochloride') ('valacyclovir', 'valacyclovir_hydrochloride')"
p4079
tp4080
sS'brd_k56343971'
p4081
NsS'hg_9_91_01'
p4082
NsS'ncgc00183406_01'
p4083
NsS'azd7762'
p4084
NsS'proscillaridin_a'
p4085
NsS'prednisolone'
p4086
((F1.0
S'prednisolone_acetate'
p4087
tp4088
S"Suffix-based-exact-matching ('prednisolone', 'prednisolone acetate') ('prednisolone', 'prednisolone_acetate')"
p4089
tp4090
sS'trihexyphenidyl'
p4091
((F1.0
S'trihexyphenidyl_hydrochloride'
p4092
tp4093
S"Suffix-based-exact-matching ('trihexyphenidyl', 'trihexyphenidyl hydrochloride') ('trihexyphenidyl', 'trihexyphenidyl_hydrochloride')"
p4094
tp4095
sS'buflomedil'
p4096
NsS'azauridine'
p4097
NsS'ag_879'
p4098
NsS'3_chloroaniline'
p4099
NsS'teicoplanin'
p4100
NsS'norfloxacin'
p4101
NsS'paclitaxel'
p4102
((F1.0
S'paclitaxel'
p4103
tp4104
S"(st) matching: ratio , lcs, (key,drug) (keynorm,drugnorm 1.0 paclitaxel ('paclitaxel', 'paclitaxel') ('paclitaxel', 'paclitaxel')"
p4105
tp4106
sS'15_delta_prostaglandin_j2'
p4107
NsS'brd_k05114711'
p4108
NsS'cilnidipine'
p4109
NsS'l_phenylephrine'
p4110
((F0.8666666666666667
S'phenylephrine_hydrochloride'
p4111
tp4112
S"(st) matching: ratio , lcs, (key,drug) (keynorm,drugnorm 0.866666666667 phenylephrine ('l_phenylephrine', 'phenylephrine hydrochloride') ('l_phenylephrine', 'phenylephrine_hydrochloride')"
p4113
tp4114
sS'prednicarbate'
p4115
((F1.0
S'prednicarbate'
p4116
tp4117
S"(st) matching: ratio , lcs, (key,drug) (keynorm,drugnorm 1.0 prednicarbate ('prednicarbate', 'prednicarbate') ('prednicarbate', 'prednicarbate')"
p4118
tp4119
sS'irinotecan'
p4120
((F1.0
S'irinotecan_hydrochloride'
p4121
tp4122
S"Suffix-based-exact-matching ('irinotecan', 'irinotecan hydrochloride') ('irinotecan', 'irinotecan_hydrochloride')"
p4123
tp4124
sS'hydrocortisone'
p4125
((F1.0
S'hydrocortisone_acetate'
p4126
tp4127
S"Suffix-based-exact-matching ('hydrocortisone', 'hydrocortisone acetate') ('hydrocortisone', 'hydrocortisone_acetate')"
p4128
tp4129
sS'hydrazine'
p4130
NsS'mk_2206'
p4131
NsS'cabergoline'
p4132
((F1.0
S'cabergoline'
p4133
tp4134
S"(st) matching: ratio , lcs, (key,drug) (keynorm,drugnorm 1.0 cabergoline ('cabergoline', 'cabergoline') ('cabergoline', 'cabergoline')"
p4135
tp4136
sS'ei_156'
p4137
NsS'kin001_055'
p4138
NsS'piplartine'
p4139
NsS'imd_0354'
p4140
NsS'n_desmethylclozapine'
p4141
NsS'brd_a80574334'
p4142
NsS'khellin'
p4143
NsS'ikk_16'
p4144
NsS'mrs_1334'
p4145
NsS'tms'
p4146
NsS'methapyrilene_hydrochloride'
p4147
NsS'brd_k89843224'
p4148
NsS'brd_k88832793'
p4149
NsS'pd_98059'
p4150
NsS'itraconazole'
p4151
((F1.0
S'itraconazole'
p4152
tp4153
S"(st) matching: ratio , lcs, (key,drug) (keynorm,drugnorm 1.0 itraconazole ('itraconazole', 'itraconazole') ('itraconazole', 'itraconazole')"
p4154
tp4155
sS'kuc104545n'
p4156
NsS'brd_k68007270'
p4157
NsS'busulfan'
p4158
((F1.0
S'busulfan'
p4159
tp4160
S"(st) matching: ratio , lcs, (key,drug) (keynorm,drugnorm 1.0 busulfan ('busulfan', 'busulfan') ('busulfan', 'busulfan')"
p4161
tp4162
sS'curcubitacin_i'
p4163
NsS'brd_k15467014'
p4164
NsS'strophantine_octahydrate'
p4165
NsS'hy_10518'
p4166
NsS'gyki_52466_hydrochloride'
p4167
NsS'hinokitiol'
p4168
NsS'brd_k28916077'
p4169
NsS'brd_k12393722'
p4170
NsS'i_bet'
p4171
NsS'chlortetracycline'
p4172
NsS'brd_a82238138_(budesonide)'
p4173
NsS'sb_225002'
p4174
NsS'testosterone'
p4175
((F1.0
S'testosterone_propionate'
p4176
tp4177
S"Suffix-based-exact-matching ('testosterone', 'testosterone propionate') ('testosterone', 'testosterone_propionate')"
p4178
tp4179
sS'androsta_1_4_dien_3_17_dione'
p4180
NsS'brd_k98426715'
p4181
NsS'gsk_690693'
p4182
NsS'chlorcyclizine'
p4183
NsS'gliclazide'
p4184
NsS'brd_a26199074'
p4185
NsS'chlordiazepoxide'
p4186
((F1.0
S'chlordiazepoxide_hydrochloride'
p4187
tp4188
S"Suffix-based-exact-matching ('chlordiazepoxide', 'chlordiazepoxide hydrochloride') ('chlordiazepoxide', 'chlordiazepoxide_hydrochloride')"
p4189
tp4190
sS'k784_3131'
p4191
NsS'thiothixene'
p4192
((F1.0
S'thiothixene_hydrochloride'
p4193
tp4194
S"Suffix-based-exact-matching ('thiothixene', 'thiothixene hydrochloride') ('thiothixene', 'thiothixene_hydrochloride')"
p4195
tp4196
sS'mk_0591'
p4197
NsS'brd_k46558254'
p4198
NsS'brd_k10906552'
p4199
NsS'methotrimeprazine_maleat_salt'
p4200
NsS'z_leu3_vs'
p4201
NsS'brd_k98676510'
p4202
NsS'kn_93'
p4203
NsS'brd_k52321331'
p4204
NsS'brd_k83670234'
p4205
NsS'prozac'
p4206
((F1.0
S'prozac'
p4207
tp4208
S"(st) matching: ratio , lcs, (key,drug) (keynorm,drugnorm 1.0 prozac ('prozac', 'prozac') ('prozac', 'prozac')"
p4209
tp4210
sS'brd_k47635719_(dexamethasone_acetate)'
p4211
NsS'brd_k85818861'
p4212
NsS'acetazolamide'
p4213
((F1.0
S'acetazolamide_sodium'
p4214
tp4215
S"Suffix-based-exact-matching ('acetazolamide', 'acetazolamide sodium') ('acetazolamide', 'acetazolamide_sodium')"
p4216
tp4217
sS'flutamide'
p4218
((F1.0
S'flutamide'
p4219
tp4220
S"(st) matching: ratio , lcs, (key,drug) (keynorm,drugnorm 1.0 flutamide ('flutamide', 'flutamide') ('flutamide', 'flutamide')"
p4221
tp4222
sS'fluspirilen'
p4223
NsS'tws119'
p4224
NsS'stock1n_27488'
p4225
NsS'cmpd_1'
p4226
NsS'dcc_2036'
p4227
NsS'cx_5461'
p4228
NsS'furosemide'
p4229
((F1.0
S'furosemide'
p4230
tp4231
S"(st) matching: ratio , lcs, (key,drug) (keynorm,drugnorm 1.0 furosemide ('furosemide', 'furosemide') ('furosemide', 'furosemide')"
p4232
tp4233
sS's1018'
p4234
NsS's1019'
p4235
NsS'terfenadine'
p4236
NsS's1017'
p4237
NsS's1014'
p4238
NsS'sericetin'
p4239
NsS'brd_k58479490'
p4240
NsS'triamterene'
p4241
((F1.0
S'triamterene'
p4242
tp4243
S"(st) matching: ratio , lcs, (key,drug) (keynorm,drugnorm 1.0 triamterene ('triamterene', 'triamterene') ('triamterene', 'triamterene')"
p4244
tp4245
sS'arvanil'
p4246
NsS'dilazep_dihydrochloride'
p4247
NsS'pyrvinium_pamoate'
p4248
NsS'tamoxifen_citrate'
p4249
((F1.0
S'tamoxifen_citrate'
p4250
tp4251
S"Suffix-based-exact-matching ('tamoxifen_citrate', 'tamoxifen citrate') ('tamoxifen_citrate', 'tamoxifen_citrate')"
p4252
tp4253
sS'pd_184352'
p4254
NsS'harpagoside'
p4255
NsS'ossk_647368'
p4256
NsS'cyclopropane_carboxylic_acid'
p4257
NsS'bexarotene'
p4258
((F1.0
S'bexarotene'
p4259
tp4260
S"(st) matching: ratio , lcs, (key,drug) (keynorm,drugnorm 1.0 bexarotene ('bexarotene', 'bexarotene') ('bexarotene', 'bexarotene')"
p4261
tp4262
sS'gamma_linolenic_acid_(18:3_n_6)'
p4263
NsS'phenylbutazone'
p4264
((F1.0
S'phenylbutazone'
p4265
tp4266
S"(st) matching: ratio , lcs, (key,drug) (keynorm,drugnorm 1.0 phenylbutazone ('phenylbutazone', 'phenylbutazone') ('phenylbutazone', 'phenylbutazone')"
p4267
tp4268
sS'brd_k79222491'
p4269
NsS's1169'
p4270
NsS'ku_0063794'
p4271
NsS'brd_a27640568'
p4272
NsS'parthenolide'
p4273
NsS'ferrocene'
p4274
NsS'mometasone_furoate'
p4275
((F1.0
S'mometasone_furoate'
p4276
tp4277
S"Suffix-based-exact-matching ('mometasone_furoate', 'mometasone furoate') ('mometasone_furoate', 'mometasone_furoate')"
p4278
tp4279
sS'cytarabine'
p4280
((F1.0
S'cytarabine'
p4281
tp4282
S"(st) matching: ratio , lcs, (key,drug) (keynorm,drugnorm 1.0 cytarabine ('cytarabine', 'cytarabine') ('cytarabine', 'cytarabine')"
p4283
tp4284
sS'tipifarnib_p1'
p4285
NsS'tipifarnib_p2'
p4286
NsS'amrinone'
p4287
((F1.0
S'amrinone_lactate'
p4288
tp4289
S"Suffix-based-exact-matching ('amrinone', 'amrinone lactate') ('amrinone', 'amrinone_lactate')"
p4290
tp4291
sS'brd_k68191783'
p4292
NsS'xmd11_85h'
p4293
NsS'isopropyl_alcohol'
p4294
NsS'kin236'
p4295
NsS'mls_0315871.0001'
p4296
NsS'brd_k88008216'
p4297
NsS'cefotaxime'
p4298
((F1.0
S'cefotaxime_sodium'
p4299
tp4300
S"Suffix-based-exact-matching ('cefotaxime', 'cefotaxime sodium') ('cefotaxime', 'cefotaxime_sodium')"
p4301
tp4302
sS'suloctidil'
p4303
NsS'brd_k01896723'
p4304
NsS'vitamin_c'
p4305
NsS'brd_k53592093'
p4306
NsS'brd_k77681376'
p4307
NsS'r_96544_hydrochloride'
p4308
NsS'gw_843682x'
p4309
NsS'cg_930'
p4310
NsS'simvastatin'
p4311
((F1.0
S'simvastatin'
p4312
tp4313
S"(st) matching: ratio , lcs, (key,drug) (keynorm,drugnorm 1.0 simvastatin ('simvastatin', 'simvastatin') ('simvastatin', 'simvastatin')"
p4314
tp4315
sS'naloxone_benzoylhydrazone'
p4316
NsS'methyl_methanesulfonate'
p4317
NsS'brd_k77877933'
p4318
NsS'valproic_acid'
p4319
((F1.0
S'valproic_acid'
p4320
tp4321
S"(st) matching: ratio , lcs, (key,drug) (keynorm,drugnorm 1.0 valproic_acid ('valproic acid', 'valproic acid') ('valproic_acid', 'valproic_acid')"
p4322
tp4323
sS'cjd_pla_49_3'
p4324
NsS'brd_u64289953'
p4325
NsS'aztreonam'
p4326
((F1.0
S'aztreonam'
p4327
tp4328
S"(st) matching: ratio , lcs, (key,drug) (keynorm,drugnorm 1.0 aztreonam ('aztreonam', 'aztreonam') ('aztreonam', 'aztreonam')"
p4329
tp4330
sS'brd_k71489689'
p4331
NsS'gsk_3b_inhibitor_viii'
p4332
NsS'calcipotriol'
p4333
NsS'dovitinib'
p4334
NsS'atovaquone'
p4335
((F1.0
S'atovaquone'
p4336
tp4337
S"(st) matching: ratio , lcs, (key,drug) (keynorm,drugnorm 1.0 atovaquone ('atovaquone', 'atovaquone') ('atovaquone', 'atovaquone')"
p4338
tp4339
sS'brd_k19181733'
p4340
NsS'brd_a37735495'
p4341
NsS'mls_0327420.0002'
p4342
NsS'prestwick_983'
p4343
NsS'estriol'
p4344
Ns.