(dp0
S'prestwick_691'
p1
NsS'nitrazepam'
p2
NsS'brd_k70918941'
p3
NsS's(_)_carbidopa'
p4
NsS'trastuzumab'
p5
NsS'procainamide'
p6
NsS'brd_k43620258'
p7
NsS'idelalisib'
p8
NsS'pantoprazole'
p9
NsS'dichlorvos'
p10
NsS'nvp_tae684'
p11
NsS'brd_k94325918'
p12
NsS'sodium_nitroprusside'
p13
NsS'citalopram'
p14
NsS'brd_a52193669'
p15
NsS'glimepiride'
p16
NsS'lincomycin'
p17
NsS'microcystin_lr'
p18
NsS'procarbazine'
p19
NsS'stock1s_03920'
p20
NsS'pentobarbital'
p21
NsS'zm_336372'
p22
NsS'selumetinib'
p23
NsS'alpha_naphthoflavone'
p24
NsS'brd_k41859756'
p25
NsS'chaetocin'
p26
NsS'fr_180204'
p27
NsS'brd_a49848186'
p28
NsS'hg_14_10_04'
p29
NsS'brd_k18726304'
p30
NsS'sch_351591'
p31
NsS'levosulpiride'
p32
NsS'brd_k86574132'
p33
NsS'byssochlamic_acid'
p34
NsS'gefitinib'
p35
NsS'gsk_461364'
p36
NsS'secobarbital'
p37
NsS'tanespimycin'
p38
NsS'amiloride'
p39
NsS'phenelzine'
p40
NsS'xylometazoline'
p41
NsS'r406'
p42
NsS'gsk_3_inhibitor_ii'
p43
NsS'phenacemide'
p44
NsS'sisomicin'
p45
NsS'tg101348'
p46
NsS'sporidesmin_a'
p47
NsS'clonidine'
p48
NsS'streptozotocin'
p49
NsS'brd_k57080016'
p50
NsS'epalrestat'
p51
NsS'sulfinpyrazone'
p52
NsS'brd_k91701654'
p53
NsS'brd_k34387287'
p54
NsS'leucovorin'
p55
NsS'gdc_0941'
p56
NsS'doxofylline'
p57
NsS'cgp_71683_hydrochloride'
p58
NsS'meloxicam'
p59
NsS'pd_173074'
p60
NsS'chlorpromazine'
p61
NsS'n_nitrosodimethylamine'
p62
NsS'penciclovir'
p63
NsS'a443654'
p64
NsS'lapatinib'
p65
NsS'm_3m3fbs'
p66
NsS'serdemetan'
p67
NsS'azasetron'
p68
NsS'medrysone'
p69
NsS'mgcd_265'
p70
NsS'3_methylcholanthrene'
p71
NsS'chlorzoxazone'
p72
NsS'capsaicin'
p73
NsS'lead_(ii)_acetate'
p74
NsS'chlormadinone_acetate'
p75
NsS'brd_k05977823'
p76
NsS'tivozanib'
p77
NsS'quetiapine'
p78
NsS'cinobufagin'
p79
NsS'etilefrine'
p80
NsS'bms_345541'
p81
NsS'pentetrazol'
p82
NsS'griseofulvin'
p83
NsS'gatifloxacin'
p84
NsS'brd_k38340366'
p85
NsS'netilmicin'
p86
NsS'calcitriol'
p87
NsS'brd_a19248578'
p88
NsS'ncgc00182392_01'
p89
NsS'tpca_1'
p90
NsS'ch5424802'
p91
NsS'triacetin'
p92
NsS'letrozole'
p93
NsS'temafloxacin'
p94
NsS'ku_55933'
p95
NsS'bufalin'
p96
NsS'epinephrine'
p97
NsS'ingenol_3__20_dibenzoate'
p98
NsS'mitomycin_c'
p99
NsS'brd_k45399554'
p100
NsS'd_galactosamine'
p101
NsS'4_chloroaniline'
p102
NsS'c1386'
p103
NsS'hydroquinine'
p104
NsS'roxarsone'
p105
NsS'cefoperazone'
p106
NsS'clofibric_acid'
p107
NsS'prestwick_689'
p108
NsS'celecoxib'
p109
((F1.0
S'celecoxib'
p110
tp111
S"(st) matching: ratio , lcs, (key,drug) (keynorm,drugnorm 1.0 celecoxib ('celecoxib', 'celecoxib') ('celecoxib', 'celecoxib')"
p112
tp113
sS'ofloxacin'
p114
NsS'praziquantel'
p115
NsS'gentamicin'
p116
NsS'losartan'
p117
NsS'flubendazole'
p118
NsS'4_nonylphenol'
p119
NsS'dimenhydrinate'
p120
NsS'bx_795'
p121
NsS'xmd_1499'
p122
NsS'isorotenone'
p123
NsS'trifluoperazine'
p124
NsS'brd_k00313977'
p125
NsS'amiodarone_hydrochloride'
p126
NsS'n_benzylnaltrindole_hydrochloride'
p127
NsS'azacitidine'
p128
NsS'esmolol'
p129
NsS'metoclopramide'
p130
NsS'(_)_isoprenaline'
p131
NsS'rhodomyrtoxin_b'
p132
NsS'xmd_885'
p133
NsS'epibatidine_(+/_)'
p134
NsS'carbimazole'
p135
NsS'isoproterenol_hydrochloride'
p136
NsS'ag14361'
p137
NsS'sulfaphenazole'
p138
NsS'oxolinic_acid'
p139
NsS'primaquine'
p140
NsS'celastrol'
p141
NsS'ro_28_1675_?'
p142
NsS'brd_k72817452'
p143
NsS'colistin'
p144
NsS'vinorelbine'
p145
NsS'11_deoxy_16_16_dimethylprostaglandin_e2'
p146
NsS'brd_k74761218'
p147
NsS'gemfibrozil'
p148
NsS'etidronate'
p149
NsS'cccp'
p150
NsS'pp_1'
p151
NsS'risperidone'
p152
NsS'cyproterone_acetate'
p153
NsS'sparteine'
p154
NsS'brd_k23478508_(digoxin)'
p155
NsS'rimcazole_dihydrochloride'
p156
NsS'y_27632'
p157
NsS'ncgc00183690_01'
p158
NsS've821'
p159
NsS'methocarbamol'
p160
NsS'akt_inhibitor_1_2'
p161
NsS'24_diaminophenol'
p162
NsS'brd_k12168891'
p163
NsS'erythrosine_sodium'
p164
NsS'pergolide'
p165
NsS'sulfisoxazole'
p166
NsS'alvocidib'
p167
NsS'ncgc00180992_01'
p168
NsS'(r)_bicalutamide'
p169
NsS'ryuvidine'
p170
NsS'amitraz'
p171
NsS'isoxsuprine'
p172
NsS'lomustine'
p173
NsS'dephostatin'
p174
NsS'clonazepam'
p175
NsS'sotalol'
p176
NsS'disulfiram'
p177
NsS'norepinephrine'
p178
NsS'cycloheximide'
p179
NsS'furan'
p180
NsS'brd_u68942961'
p181
NsS'brd_k70871370'
p182
NsS'on_01910'
p183
NsS'tobramycin'
p184
NsS'brd_k08316444'
p185
NsS'mw_ras12'
p186
NsS'piclamilast'
p187
((F1.0
S'piclamilast'
p188
tp189
S"(st) matching: ratio , lcs, (key,drug) (keynorm,drugnorm 1.0 piclamilast ('piclamilast', 'piclamilast') ('piclamilast', 'piclamilast')"
p190
tp191
sS'suxamethonium_chloride'
p192
NsS'rilmenidine'
p193
NsS'mefexamide'
p194
NsS'vorinostat'
p195
NsS'oxytetracycline'
p196
NsS'rlm_1_127'
p197
NsS's1030'
p198
NsS'artemether'
p199
NsS'isoeugenol'
p200
NsS'wh_4_025'
p201
NsS'primidone'
p202
NsS'benazepril'
p203
NsS'eucalyptol'
p204
NsS'papaverine'
p205
NsS'famotidine'
p206
((F1.0
S'famotidine'
p207
tp208
S"(st) matching: ratio , lcs, (key,drug) (keynorm,drugnorm 1.0 famotidine ('famotidine', 'famotidine') ('famotidine', 'famotidine')"
p209
tp210
sS'pd_0325901'
p211
NsS'diethylstilbestrol'
p212
NsS'podophyllotoxin'
p213
NsS'16_hydroxytriptolide'
p214
NsS'vincristine'
p215
NsS'gsk1059615'
p216
NsS'gold_sodium_thiomalate'
p217
((F1.0
S'gold_sodium_thiomalate'
p218
tp219
S"(st) matching: ratio , lcs, (key,drug) (keynorm,drugnorm 1.0 gold_sodium_thiomalate ('gold_sodium_thiomalate', 'gold_sodium_thiomalate') ('gold_sodium_thiomalate', 'gold_sodium_thiomalate')"
p220
tp221
sS'at_7519'
p222
NsS'resveratrol'
p223
NsS'probenecid'
p224
NsS'hexachloro_13_butadiene'
p225
NsS'diflunisal'
p226
NsS'pracinostat'
p227
NsS'fenoterol_hydrobromide'
p228
NsS'dimethyl_methylphosphonate'
p229
NsS'trametinib'
p230
NsS'as_605240'
p231
NsS'deferiprone'
p232
NsS'ncgc00242344_01'
p233
NsS'src_kinase_inhibitor_ii'
p234
NsS'nabumetone'
p235
NsS'pf3845'
p236
NsS'miconazole'
p237
NsS'hyoscyamine'
p238
NsS'amoxicillin'
p239
NsS'sulconazole'
p240
NsS'allopurinol'
p241
NsS'brd_k58547240'
p242
NsS'balsalazide'
p243
NsS'chlorpropamide'
p244
NsS'brd_k03015355'
p245
NsS'guanethidine'
p246
NsS'lomefloxacin'
p247
NsS'tetracaine'
p248
NsS'busulfan'
p249
NsS'nvp_bez235'
p250
NsS'xmd_892'
p251
NsS'ibufenac'
p252
NsS'mephenesin'
p253
NsS'brd_k42687792'
p254
NsS'y_39983'
p255
NsS'econazole'
p256
NsS'prinomastat'
p257
NsS'phenytoin'
p258
NsS'etifenin'
p259
NsS'pimozide'
p260
NsS'sb590885'
p261
NsS'ncgc00183913_01'
p262
NsS'carbamazepine'
p263
NsS'bms_777607'
p264
NsS'gsk_1059615'
p265
NsS'troxipide'
p266
NsS'tropisetron'
p267
NsS'ponatinib'
p268
NsS'desloratadine'
p269
NsS'enzastaurin'
p270
NsS'd_64131'
p271
NsS'azathioprine'
p272
NsS'telenzepine_dihydrochloride'
p273
NsS'sodium_arsenite'
p274
NsS'curcumin'
p275
NsS'captopril'
p276
NsS'procaine'
p277
NsS'brd_a68061604'
p278
NsS'aminopurvalanol_a'
p279
NsS'domperidone'
p280
NsS'sulfathiazole'
p281
NsS'mercuric_chloride'
p282
NsS'tyrphostin_ag_1478'
p283
NsS'closantel'
p284
NsS'palbociclib'
p285
NsS'verapamil'
p286
NsS'nnc_05_2090_hydrochloride'
p287
NsS'gdc_0980'
p288
NsS'bml_259'
p289
NsS'isoniazid'
p290
NsS'zaleplon'
p291
NsS'nvp_tae226'
p292
NsS'oxymetholone'
p293
NsS'ei_335'
p294
NsS'betahistine'
p295
NsS'clorgiline'
p296
NsS'etoposide'
p297
NsS'ku_60019'
p298
NsS'a_769662'
p299
NsS'xmd16_144'
p300
NsS'raf_265'
p301
NsS'cisplatin'
p302
NsS'leucine_enkephalin'
p303
NsS'gsk_1904529a'
p304
NsS'monocrotaline'
p305
NsS'pd_407824'
p306
NsS'saracatinib'
p307
NsS'salermide'
p308
NsS's1043'
p309
NsS'brd_k32501161'
p310
NsS'aldosterone'
p311
NsS'akt_inhibitor_x'
p312
NsS'interleukin_1_beta'
p313
NsS'brd_k93215584'
p314
NsS'brd_k94173926'
p315
NsS'neomycin'
p316
NsS'zstk_474'
p317
NsS'testosterone_propionate'
p318
NsS'imodium'
p319
NsS'atenolol'
p320
NsS'hydroxyurea'
p321
NsS'aminosalicylic_acid'
p322
NsS'skf_96365_hydrochloride'
p323
NsS'diltiazem'
p324
NsS'brd_k18724229'
p325
NsS'lipopolysaccharide_e._coli_o55:b5'
p326
NsS'tazobactam'
p327
NsS'sgi_1776'
p328
NsS'orciprenaline'
p329
NsS'mefloquine'
p330
NsS'tenidap'
p331
((F1.0
S'tenidap'
p332
tp333
S"(st) matching: ratio , lcs, (key,drug) (keynorm,drugnorm 1.0 tenidap ('tenidap', 'tenidap') ('tenidap', 'tenidap')"
p334
tp335
sS'lead(iv)_acetate'
p336
NsS'dacarbazine'
p337
NsS'fenofibrate'
p338
NsS'benzoic_acid'
p339
NsS'geraniol'
p340
NsS'cyt387'
p341
NsS'gallamine_triethiodide'
p342
NsS'artemisinin'
p343
NsS'ncgc00184834_01'
p344
NsS'33_5_triiodo_l_thyronine'
p345
NsS'brd_k35483542'
p346
NsS'tws_119'
p347
NsS'ncgc00167097_01'
p348
NsS'ppt'
p349
NsS'jw_7_24_1'
p350
NsS'brd_k58853583'
p351
NsS'colchicine'
p352
NsS'sulfadimethoxine'
p353
NsS'bms_536924'
p354
NsS'rolipram'
p355
NsS'ly_294002'
p356
NsS'abt_888_(veliparib)'
p357
NsS'lorazepam'
p358
NsS'amodiaquin_dihydrochloride_dihydrate'
p359
NsS'alendronic_acid'
p360
NsS'vx_680'
p361
NsS'emetine_dihydrochloride_hydrate_(74)'
p362
NsS'14_dichlorobenzene'
p363
NsS'docetaxel'
p364
NsS'sutent'
p365
NsS'trichloroacetic_acid'
p366
NsS'enalapril'
p367
NsS'safrole'
p368
NsS'sarmentogenin'
p369
NsS'mln4924'
p370
NsS'stannous_fluoride'
p371
NsS'ei_195'
p372
NsS'brd_k64642496'
p373
NsS'as605240'
p374
NsS'nnc_26_9100'
p375
NsS'fgin_1_27'
p376
NsS'dacomitinib'
p377
NsS'obaa'
p378
NsS'megestrol_acetate'
p379
NsS'acetaminophen'
p380
NsS'brd_k48950795'
p381
NsS'clemastine'
p382
NsS'methyl_benzethonium_chloride'
p383
NsS'pyrazolanthrone'
p384
NsS'brd_k42499654'
p385
NsS'brd_k17140735'
p386
NsS'mitoxantrone'
p387
NsS'stanozolol'
p388
NsS'nitrendipine'
p389
NsS'urethane'
p390
NsS'clofibrate'
p391
NsS'didanosine'
p392
NsS'brd_k01578344'
p393
NsS'tamoxifen'
p394
NsS'terazosin'
p395
NsS'benzothiazyl_disulfide'
p396
NsS'modafinil'
p397
NsS'at7867'
p398
NsS'canrenoic_acid'
p399
NsS'byl719'
p400
NsS'phalloidin'
p401
NsS'tgx_221'
p402
NsS'brd_u82589721'
p403
NsS'paraquat_dichloride'
p404
NsS'ethinyl_estradiol'
p405
NsS'bisacodyl'
p406
NsS'ifosfamide'
p407
NsS'tamoxifen_citrate'
p408
NsS'cholecalciferol'
p409
NsS'cymarin'
p410
NsS'nn_dimethylformamide'
p411
NsS'riluzole'
p412
NsS'parbendazole'
p413
NsS'acetohexamide'
p414
NsS'n_acetylmuramic_acid'
p415
NsS'ethylestrenol'
p416
NsS'flavoxate'
p417
NsS'ei_293'
p418
NsS'plx_4720'
p419
NsS'moclobemide'
p420
NsS'albendazole'
p421
NsS'brd_a62809825'
p422
NsS'd_limonene'
p423
NsS'brd_k68202742_(trichostatin_a)'
p424
NsS'diphenidol'
p425
NsS'iniparib'
p426
NsS'brd_k80786583'
p427
NsS's1053'
p428
NsS'mls_0435555.0001'
p429
NsS'lde225_(nvp_lde225)'
p430
NsS'leflunomide'
p431
((F1.0
S'leflunomide'
p432
tp433
S"(st) matching: ratio , lcs, (key,drug) (keynorm,drugnorm 1.0 leflunomide ('leflunomide', 'leflunomide') ('leflunomide', 'leflunomide')"
p434
tp435
sS'pyrilamine'
p436
NsS'foretinib'
p437
NsS'ethinylestradiol'
p438
NsS'triclosan'
p439
NsS'myrtecaine'
p440
NsS'ivermectin'
p441
NsS'anisomycin'
p442
NsS'pf_562271'
p443
NsS'r2146'
p444
NsS'veliparib'
p445
NsS'emetine'
p446
NsS'aspirin'
p447
NsS'ag_555'
p448
NsS'anastrozole'
p449
NsS'daunorubicin_hydrochloride'
p450
NsS'l_701_324'
p451
NsS'brd_k57592392'
p452
NsS'kf_38789'
p453
NsS'ac_1121'
p454
NsS'ampiroxicam'
p455
NsS'metoprolol'
p456
NsS'brd_k64606589'
p457
NsS'titanium_dioxide'
p458
NsS'mocetinostat'
p459
NsS'atorvastatin'
p460
NsS'talampicillin'
p461
NsS'fulvestrant'
p462
NsS'ncgc00182362_01'
p463
NsS'warfarin'
p464
NsS'norethindrone_acetate'
p465
NsS'pj_34_hydrochloride'
p466
NsS'labetalol'
p467
NsS'oxaliplatin'
p468
NsS'scopolamine'
p469
NsS'thiabendazole'
p470
NsS't5323840'
p471
NsS'bis(2_ethylhexyl)phthalate'
p472
NsS'wye_125132'
p473
NsS'pyridine'
p474
NsS'su_11274'
p475
NsS'ncgc00185094_01'
p476
NsS'l_sulforophane'
p477
NsS'bromodichloromethane'
p478
NsS'levcycloserine'
p479
NsS'pelitinib'
p480
NsS'perphenazine'
p481
NsS'cytochalasin_b'
p482
NsS'osi_930'
p483
NsS'tiapride'
p484
NsS'vancomycin'
p485
NsS'mianserin'
p486
NsS'ink_128'
p487
NsS'dipyridamole'
p488
((F1.0
S'dipyridamole'
p489
tp490
S"(st) matching: ratio , lcs, (key,drug) (keynorm,drugnorm 1.0 dipyridamole ('dipyridamole', 'dipyridamole') ('dipyridamole', 'dipyridamole')"
p491
tp492
sS'digitonin'
p493
NsS'abamectin'
p494
NsS'brd_k70161581'
p495
NsS'sb_216763'
p496
NsS'oxaprozin'
p497
((F1.0
S'oxaprozin'
p498
tp499
S"(st) matching: ratio , lcs, (key,drug) (keynorm,drugnorm 1.0 oxaprozin ('oxaprozin', 'oxaprozin') ('oxaprozin', 'oxaprozin')"
p500
tp501
sS'bezafibrate'
p502
NsS'cholic_acid'
p503
NsS'bix_01294'
p504
NsS'gw_5074'
p505
NsS'teniposide'
p506
NsS'ezetimibe'
p507
NsS'4_nitrotoluene'
p508
NsS'ranitidine'
p509
NsS'norfloxacin'
p510
NsS'paclitaxel'
p511
NsS'c8273'
p512
NsS'osi_027'
p513
NsS'butoconazole'
p514
NsS'dinaciclib'
p515
NsS'tozasertib'
p516
NsS'quipazine'
p517
NsS'furosemide'
p518
NsS'ruxolitinib'
p519
NsS'bibu_1361_dihydrochloride'
p520
NsS'famciclovir'
p521
NsS'methotrexate'
p522
((F1.0
S'methotrexate_sodium'
p523
tp524
S"Suffix-based-exact-matching ('methotrexate', 'methotrexate_sodium') ('methotrexate', 'methotrexate_sodium')"
p525
tp526
sS'doxazosin'
p527
NsS'pravastatin'
p528
NsS'benzyl_acetate'
p529
NsS'erythromycin'
p530
NsS'brd_k31342827'
p531
NsS'nitrobenzene'
p532
NsS'pf_3758309'
p533
NsS'methyldopa'
p534
NsS'beta_estradiol_3_benzoate'
p535
NsS'brd_k80348542'
p536
NsS'azd_8055'
p537
NsS'rifapentine'
p538
NsS'kanamycin'
p539
NsS'terbinafine'
p540
NsS'bleomycin_a2'
p541
NsS'tgf_beta_1_human_recombinant'
p542
NsS'loratadine'
p543
NsS'nimetazepam'
p544
NsS'oxandrolone'
p545
NsS'sb_525334'
p546
NsS'dihydroergocristine_mesylate'
p547
NsS'mevastatin'
p548
NsS'purmorphamine'
p549
NsS'sulfametoxydiazine'
p550
NsS'gsk_1070916'
p551
NsS's1085'
p552
NsS's1080'
p553
NsS'ncgc00189555_02'
p554
NsS'eriodyctol'
p555
NsS'importazole'
p556
NsS'tribenoside'
p557
NsS'bromfenac'
p558
NsS'pyrogallol'
p559
NsS'mefenamic_acid'
p560
NsS'oxiconazole'
p561
NsS'indole_3_carbinol'
p562
NsS'ritonavir'
p563
NsS'brd_k31484631'
p564
NsS'hy_50940'
p565
NsS'citric_acid'
p566
NsS'omeprazole'
p567
((F1.0
S'esomeprazole'
p568
tp569
S"(st) matching: ratio , lcs, (key,drug) (keynorm,drugnorm 1.0 omeprazole ('omeprazole', 'esomeprazole') ('omeprazole', 'esomeprazole')"
p570
tp571
sS'nifedipine'
p572
NsS'cc_401'
p573
NsS'phenobarbital'
p574
NsS'terbutaline'
p575
NsS'norethindrone'
p576
NsS'sulfadoxine'
p577
NsS'tg_101348'
p578
NsS'sumatriptan'
p579
NsS'levofloxacin'
p580
NsS'ethambutol'
p581
NsS'amantadine'
p582
NsS'trans_platinum(ii)diammine_dichloride'
p583
NsS'btb06091sc'
p584
NsS'ct_200783'
p585
NsS'agk_2'
p586
NsS'stavudine'
p587
NsS'gr_236'
p588
NsS'iocetamic_acid'
p589
NsS'sb_203580'
p590
NsS'thalidomide'
p591
NsS'glipizide'
p592
NsS'brd_a40431293'
p593
NsS'aflatoxin_b1'
p594
NsS'promazine'
p595
NsS'brd_k23644387'
p596
NsS'acemetacin'
p597
NsS'vemurafenib'
p598
NsS'genistein'
p599
NsS'brd_k52075040'
p600
NsS'methapyrilene'
p601
NsS'alfaxalone'
p602
NsS'tacrine'
p603
NsS'prestwick_860'
p604
NsS'clotrimazole'
p605
NsS'brd_k66426634'
p606
NsS'nateglinide'
p607
NsS'ly2603618'
p608
NsS'wz_4002'
p609
NsS'rho_kinase_inhibitor_iii_[rockout]'
p610
NsS'cyclandelate'
p611
NsS'idebenone'
p612
NsS'brd_u88878891'
p613
NsS'ergocalciferol'
p614
NsS'sirolimus'
p615
NsS'brd_k28907958'
p616
NsS'withaferin_a'
p617
NsS'torsemide'
p618
NsS'wortmannin'
p619
NsS'17_methyltestosterone'
p620
NsS'brd_k60219430'
p621
NsS'afatinib'
p622
NsS'brd_k05593511'
p623
NsS'benserazide'
p624
NsS'trichloroethane'
p625
NsS'brd_k14788918'
p626
NsS'vu0418946_2'
p627
NsS'methylene_blue'
p628
NsS'cephalexin'
p629
NsS'carboplatin'
p630
NsS'bx_912'
p631
NsS'brd_k73261812'
p632
NsS'venlafaxine'
p633
NsS'ncgc00165188_01'
p634
NsS'44__diethylaminoethoxyhexestrol'
p635
NsS'trichloroethylene'
p636
NsS'brd_k08307026'
p637
NsS'pnu_96415e'
p638
NsS'gdc_0068'
p639
NsS'benzocaine'
p640
NsS'diphenhydramine'
p641
NsS'imipenem'
p642
NsS'entinostat'
p643
NsS'flecainide'
p644
NsS'c3930'
p645
NsS'pnu_74654'
p646
NsS'aminoglutethimide'
p647
NsS'pioglitazone'
p648
NsS'tocilizumab'
p649
((F1.0
S'tocilizumab'
p650
tp651
S"(st) matching: ratio , lcs, (key,drug) (keynorm,drugnorm 1.0 tocilizumab ('tocilizumab', 'tocilizumab') ('tocilizumab', 'tocilizumab')"
p652
tp653
sS'citalopram_hydrobromide'
p654
NsS'acrolein'
p655
NsS'tranilast'
p656
NsS'2378_tetrachlorodibenzo_p_dioxin'
p657
NsS'amitriptyline'
p658
NsS'brd_k16472144'
p659
NsS'carvedilol'
p660
NsS'mk_1775'
p661
NsS'sildenafil'
p662
NsS'spironolactone'
p663
NsS'33_4_5_tetrachlorosalicylanilide'
p664
NsS'belinostat'
p665
NsS'cp_724714'
p666
NsS'alw_ii_49_7'
p667
NsS'bacitracin'
p668
NsS'midecamycin'
p669
NsS'hg_6_64_01'
p670
NsS'erlotinib'
p671
NsS'chelidonine_(+)'
p672
NsS'pf_431396'
p673
NsS'4_nitrobenzoic_acid'
p674
NsS'brd_k12184916'
p675
NsS'brd_k19624190'
p676
NsS'cyt997'
p677
NsS'isoprenaline'
p678
NsS'chloroform'
p679
NsS'neostigmine_bromide'
p680
NsS'rs_39604_hydrochloride'
p681
NsS'fludrocortisone_acetate'
p682
NsS'ncgc00242296_02'
p683
NsS'tak_715'
p684
((F1.0
S'tak_715'
p685
tp686
S"(st) matching: ratio , lcs, (key,drug) (keynorm,drugnorm 1.0 tak_715 ('TAK_715', 'tak_715') ('tak_715', 'tak_715')"
p687
tp688
sS'prestwick_674'
p689
NsS'4_methylpyrazole'
p690
NsS'streptomycin'
p691
NsS'tocainide_hydrochloride'
p692
NsS'sulfanilamide'
p693
NsS'mead_acid_(20:3_n_9)'
p694
NsS'2_acetylaminofluorene'
p695
NsS'chlorobenzene'
p696
NsS'gsk_j4'
p697
NsS'gsk_j1'
p698
NsS'brd_k92158425'
p699
NsS'brd_k28366633'
p700
NsS'ketamine'
p701
NsS'torin_1'
p702
NsS'torin_2'
p703
NsS'pha_665752'
p704
NsS'chlorambucil'
p705
NsS'glyburide'
p706
NsS'b5313'
p707
NsS'aconitine'
p708
NsS'brd_k64857848'
p709
NsS'fluorouracil'
p710
NsS'brd_k41431262'
p711
NsS'bw_723c86'
p712
NsS'buspirone'
p713
NsS'brd_k05153001'
p714
NsS'wz_3105'
p715
NsS'2_amino_4_nitrophenol'
p716
NsS'penicillin_g'
p717
NsS'cinnarizine'
p718
NsS'epirubicin_hydrochloride'
p719
NsS'oxcarbazepine'
p720
NsS'brd_k00317371'
p721
NsS'thiamphenicol'
p722
NsS'raloxifene'
p723
NsS'diisopropyl_fluorophosphate'
p724
NsS'n_nitrosodiethylamine'
p725
NsS'digoxigenin'
p726
NsS'a66'
p727
NsS'phorbol_12_myristate_13_acetate_(pma)'
p728
NsS'nevirapine'
p729
NsS'ibuprofen'
p730
((F1.0
S'ibuprofen'
p731
tp732
S"(st) matching: ratio , lcs, (key,drug) (keynorm,drugnorm 1.0 ibuprofen ('ibuprofen', 'ibuprofen') ('ibuprofen', 'ibuprofen')"
p733
tp734
sS'valdecoxib'
p735
NsS'propylthiouracil'
p736
NsS'antipyrine'
p737
NsS'bromisovalum'
p738
NsS'jnk_9l'
p739
NsS'kin001_220'
p740
NsS'ncgc00012272_02'
p741
NsS'zm_447439'
p742
NsS'ketoprofen'
p743
NsS'taxol'
p744
NsS'dyphylline'
p745
NsS'cadmium_acetate'
p746
NsS'gsk_2126458'
p747
NsS'gdc_0879'
p748
NsS'pramoxine'
p749
NsS'ncgc00185684_02'
p750
NsS'ski_ii'
p751
NsS'doxapram'
p752
NsS'deferasirox'
p753
NsS'cyclophosphamide'
p754
NsS'aminophenazone'
p755
NsS'nicotine'
p756
NsS'benzethonium_chloride'
p757
NsS'nitrofural'
p758
NsS'methylstat'
p759
NsS'prazosin'
p760
NsS'quizartinib'
p761
NsS'bg_fa_0953'
p762
NsS'oxyquinoline'
p763
NsS'piroxicam'
p764
NsS'dasatinib'
p765
NsS'cp_55_940'
p766
NsS'nadolol'
p767
NsS'doxorubicin'
p768
NsS'hydrochlorothiazide'
p769
NsS'haloperidol'
p770
NsS'dibromochloromethane'
p771
NsS'jnk_in_5a'
p772
NsS'abt_737'
p773
NsS'furazolidone'
p774
NsS'melatonin'
p775
NsS'cloxacillin'
p776
NsS'gsk_2334470'
p777
NsS'hydralazine'
p778
NsS'mebendazole'
p779
NsS'atropine'
p780
NsS'3_chloroaniline'
p781
NsS'gitoxigenin'
p782
NsS'tetracycline'
p783
NsS'thm_i_94'
p784
NsS'azd_8330'
p785
NsS'bexarotene'
p786
NsS'az_628'
p787
NsS'oxybutynin'
p788
NsS'etomidate'
p789
NsS'beta_estradiol'
p790
NsS'acyclovir'
p791
NsS'ldn_193189'
p792
NsS'bromobenzene'
p793
NsS'brd_k89209981'
p794
NsS'brd_k02562327'
p795
NsS'nitrofurantoin'
p796
NsS'ibrutinib'
p797
NsS'niacin'
p798
NsS'prestwick_664'
p799
NsS'phenothiazine'
p800
NsS'mg_132'
p801
NsS'bosutinib'
p802
NsS'salicylic_acid'
p803
NsS'pf_573228'
p804
NsS'lacidipine'
p805
NsS'rifampin'
p806
NsS'vu0418934_2'
p807
NsS'chelerythrine_chloride'
p808
NsS'lubiprostone'
p809
NsS'progesterone'
p810
NsS'clozapine'
p811
NsS'isocorydine'
p812
NsS'prochlorperazine'
p813
NsS'brd_k72381041'
p814
NsS'blebbistatin'
p815
NsS'manumycin_a'
p816
NsS'pyrantel'
p817
NsS'thioguanine'
p818
NsS'sevoflurane'
p819
NsS'brd_a83124583'
p820
NsS'metrifonate'
p821
NsS'ferulic_acid'
p822
NsS'zomepirac'
p823
NsS'brd_k55116708'
p824
NsS'tinidazole'
p825
NsS'unc0638'
p826
NsS'caffeine'
p827
NsS'garcinol'
p828
NsS'coumestrol'
p829
NsS'ro_31_8220_mesylate'
p830
NsS'quinapril'
p831
NsS'tw_37'
p832
NsS'pancuronium_bromide'
p833
NsS'iopanoic_acid'
p834
NsS'e3380'
p835
NsS'wz_7043'
p836
NsS'i_bet151'
p837
NsS'sr_202'
p838
NsS'cyproheptadine'
p839
NsS'pentamidine'
p840
NsS'brd_k04853698'
p841
NsS'bisphenol_a'
p842
NsS'(_)_jq1'
p843
NsS'sb_415286'
p844
NsS'nafenopin'
p845
NsS'benzthiazide'
p846
NsS'brd_a20697603'
p847
NsS'pp_110'
p848
NsS'gsk_429286a'
p849
NsS'ketorolac'
p850
NsS'nicergoline'
p851
NsS'2_nitroanisole'
p852
NsS'mls_0435526.0001'
p853
NsS'brd_a68065211'
p854
NsS'catechol'
p855
NsS'daminozide'
p856
NsS'ranolazine'
p857
NsS'valeric_acid'
p858
NsS'pazopanib'
p859
NsS'decitabine'
p860
NsS'ursodeoxycholic_acid'
p861
NsS'noscapine'
p862
NsS'pi_103'
p863
NsS'cimetidine'
p864
NsS'ubenimex'
p865
NsS'nvp_aew541'
p866
NsS'npk76_ii_72_1'
p867
NsS'brd_k35638681'
p868
NsS'loxoprofen'
p869
NsS's1252'
p870
NsS'zinc_acetate'
p871
NsS'bromocriptine_mesylate'
p872
NsS'iproniazid'
p873
NsS'fluvastatin'
p874
NsS'roflumilast'
p875
NsS'maprotiline'
p876
NsS'123_trichloropropane'
p877
NsS'c247'
p878
NsS'morphine'
p879
NsS'altretamine'
p880
NsS'brd_k26818574'
p881
NsS'naftopidil'
p882
NsS'tolazamide'
p883
NsS'sertraline'
p884
NsS'l_buthionine_sulfoximine'
p885
NsS'arp_101'
p886
NsS'tramadol'
p887
NsS'pf_04217903'
p888
NsS'fluticasone_propionate'
p889
NsS'chir_99021'
p890
NsS'vu0365117_1'
p891
NsS'perhexiline_maleate'
p892
NsS'lisinopril'
p893
NsS'mexitil'
p894
NsS'chlorpyrifos'
p895
NsS'sodium_selenate'
p896
NsS'nystatin'
p897
NsS'(+)_pulegone'
p898
NsS'nsc_23766'
p899
NsS'brd_k87909389'
p900
NsS'mst__312'
p901
NsS'niclosamide'
p902
NsS'neratinib'
p903
NsS'lamivudine'
p904
NsS'ethylene_glycol'
p905
NsS'pralidoxime_chloride'
p906
NsS'iox2'
p907
NsS'4_chloro_2_nitroaniline'
p908
NsS'brd_k11072542'
p909
NsS'amikacin'
p910
NsS'antazoline'
p911
NsS'hycanthone'
p912
NsS'digitoxin'
p913
NsS'jte_013'
p914
NsS'methimazole'
p915
NsS'dihydrosamidin'
p916
NsS'bithionol'
p917
NsS'ciprofloxacin'
p918
NsS'piperacillin'
p919
NsS'candesartan'
p920
NsS'sertraline_hydrochloride'
p921
NsS'vx_745'
p922
((F1.0
S'vx_745'
p923
tp924
S"(st) matching: ratio , lcs, (key,drug) (keynorm,drugnorm 1.0 vx_745 ('VX_745', 'vx_745') ('vx_745', 'vx_745')"
p925
tp926
sS's1205'
p927
NsS'dexamethasone'
p928
((F1.0
S'dexamethasone'
p929
tp930
S"(st) matching: ratio , lcs, (key,drug) (keynorm,drugnorm 1.0 dexamethasone ('dexamethasone', 'dexamethasone') ('dexamethasone', 'dexamethasone')"
p931
tp932
sS'pirinixic_acid'
p933
NsS'masitinib'
p934
NsS'mosapride'
p935
NsS'bupropion'
p936
NsS'dabrafenib'
p937
NsS'ic_261'
p938
NsS'sunitinib'
p939
NsS'azd8055'
p940
NsS'propranolol'
p941
NsS'rabeprazole'
p942
NsS'hy_10966'
p943
NsS'olaparib'
p944
NsS'helveticoside'
p945
NsS'sulfadiazine'
p946
NsS'dicumarol'
p947
NsS'danazol'
p948
NsS'salbutamol'
p949
NsS'pha_767491'
p950
NsS'bms509744'
p951
NsS'regorafenib'
p952
NsS'wz_4_145'
p953
NsS'calyculin_a'
p954
NsS'azithromycin'
p955
NsS'amineptine'
p956
NsS'indirubin_3_oxime'
p957
NsS'vinblastine'
p958
NsS'nisoldipine'
p959
NsS'carbachol'
p960
NsS'folic_acid'
p961
((F1.0
S'folic_acid'
p962
tp963
S"(st) matching: ratio , lcs, (key,drug) (keynorm,drugnorm 1.0 folic_acid ('folic_acid', 'folic_acid') ('folic_acid', 'folic_acid')"
p964
tp965
sS'zileuton'
p966
NsS'l_690_488'
p967
NsS'tretinoin'
p968
NsS'cyclizine'
p969
NsS'naproxen'
p970
((F1.0
S'naproxen'
p971
tp972
S"(st) matching: ratio , lcs, (key,drug) (keynorm,drugnorm 1.0 naproxen ('naproxen', 'naproxen') ('naproxen', 'naproxen')"
p973
tp974
sS'brd_k35573744'
p975
NsS'ouabain'
p976
NsS'syk_inhibitor'
p977
NsS'cyclosporin_a'
p978
NsS'trolox_c'
p979
NsS'kin001_244'
p980
NsS'tacrolimus'
p981
NsS's1222'
p982
NsS'brd_k35716340'
p983
NsS'brd_k83816656'
p984
NsS'indomethacin'
p985
((F1.0
S'indomethacin'
p986
tp987
S"(st) matching: ratio , lcs, (key,drug) (keynorm,drugnorm 1.0 indomethacin ('indomethacin', 'indomethacin') ('indomethacin', 'indomethacin')"
p988
tp989
sS'cdc'
p990
NsS'interleukin_6'
p991
NsS'sulindac'
p992
((F1.0
S'sulindac'
p993
tp994
S"(st) matching: ratio , lcs, (key,drug) (keynorm,drugnorm 1.0 sulindac ('sulindac', 'sulindac') ('sulindac', 'sulindac')"
p995
tp996
sS'brd_k53932786'
p997
NsS'azd_1480'
p998
NsS'l_750_667'
p999
NsS'thioacetamide'
p1000
NsS'oxymetazoline'
p1001
NsS'd_tubocurarine_chloride'
p1002
NsS'digitoxigenin'
p1003
NsS'tegafur'
p1004
NsS'brd_k30849099'
p1005
NsS'eperisone'
p1006
NsS'cgp_60474'
p1007
NsS'brd_a11929187'
p1008
NsS'minoxidil'
p1009
NsS'cromolyn'
p1010
NsS'brd_a31107743'
p1011
NsS'pi_103_hydrochloride'
p1012
NsS'racepinephrine'
p1013
NsS'ticlopidine'
p1014
NsS'doxorubicin_hydrochloride'
p1015
NsS'cucurbitacin_i'
p1016
NsS'propylene_glycol'
p1017
NsS'ceramide_c2'
p1018
NsS'brd_a36630025'
p1019
NsS'v4877'
p1020
NsS'brd_k37043259'
p1021
NsS'phentolamine'
p1022
NsS'ncgc00011606_02'
p1023
NsS'4_demethoxydaunorubicin_hydrochloride_(65)'
p1024
NsS'mln_8054'
p1025
NsS'benoxaprofen'
p1026
NsS'hg_5_113_01'
p1027
NsS'clarithromycin'
p1028
NsS'ntncb_hydrochloride'
p1029
NsS'piracetam'
p1030
NsS'brd_k27169919'
p1031
NsS'ondansetron'
p1032
NsS'nizatidine'
p1033
NsS'allylamine'
p1034
NsS'proscillaridin_a'
p1035
NsS'astemizole'
p1036
NsS'dihydroergocristine'
p1037
NsS'lasalocid'
p1038
NsS'pentoxifylline'
p1039
NsS'rifabutin'
p1040
NsS'cefotiam'
p1041
NsS'valacyclovir'
p1042
NsS'cobalt_(ii)_chloride'
p1043
NsS'brd_k56343971'
p1044
NsS'metronidazole'
p1045
NsS'mexiletine'
p1046
NsS'penicillamine'
p1047
((F1.0
S'penicillamine'
p1048
tp1049
S"(st) matching: ratio , lcs, (key,drug) (keynorm,drugnorm 1.0 penicillamine ('penicillamine', 'penicillamine') ('penicillamine', 'penicillamine')"
p1050
tp1051
sS'dactinomycin'
p1052
NsS'chloroxylenol'
p1053
NsS'amlodipine'
p1054
NsS'lamotrigine'
p1055
NsS'foscarnet'
p1056
NsS'pkc_412'
p1057
NsS's_propranolol'
p1058
NsS'diazoxide'
p1059
NsS'bjm_ctd2_9'
p1060
NsS'bntx_maleate'
p1061
NsS'16beta_bromoandrosterone'
p1062
NsS'promethazine'
p1063
NsS'geldanamycin'
p1064
NsS'isotretinoin'
p1065
NsS'epivincamine'
p1066
NsS'manganese_(ii)_chloride'
p1067
NsS'd_4476'
p1068
NsS'brd_k00007652'
p1069
NsS'amprenavir'
p1070
NsS'budesonide'
p1071
NsS'c646'
p1072
NsS'roxithromycin'
p1073
NsS'moxonidine'
p1074
NsS'flurbiprofen'
p1075
((F1.0
S'flurbiprofen'
p1076
tp1077
S"(st) matching: ratio , lcs, (key,drug) (keynorm,drugnorm 1.0 flurbiprofen ('flurbiprofen', 'flurbiprofen') ('flurbiprofen', 'flurbiprofen')"
p1078
tp1079
sS'amiodarone'
p1080
NsS'brd_k75081836'
p1081
NsS'az20'
p1082
NsS'dexchlorpheniramine'
p1083
NsS'mitotane'
p1084
NsS'trifluoperazine_dihydrochloride'
p1085
NsS'sulbactam'
p1086
NsS'olanzapine'
p1087
NsS'ipratropium_bromide'
p1088
NsS'bl_009'
p1089
NsS'cosmosiin'
p1090
NsS'antimycin_a'
p1091
NsS'11_dichloroethene'
p1092
NsS'brd_k60870698'
p1093
NsS'melphalan'
p1094
NsS'sodium_selenite'
p1095
NsS'fostamatinib'
p1096
((F1.0
S'fostamatinib'
p1097
tp1098
S"(st) matching: ratio , lcs, (key,drug) (keynorm,drugnorm 1.0 fostamatinib ('fostamatinib', 'fostamatinib') ('fostamatinib', 'fostamatinib')"
p1099
tp1100
sS'l_6307'
p1101
NsS'su_5416'
p1102
NsS'otssp167'
p1103
NsS'clindamycin'
p1104
NsS'altrenogest'
p1105
NsS'gibberellic_acid'
p1106
NsS'methylparaben'
p1107
NsS'nu_7026'
p1108
NsS'butenafine'
p1109
NsS'diclofenac'
p1110
NsS'sb_218078'
p1111
NsS'hexachlorophene'
p1112
NsS'nilotinib'
p1113
NsS'ethosuximide'
p1114
NsS'rofecoxib'
p1115
NsS'enrofloxacin'
p1116
NsS'deferoxamine'
p1117
NsS'fenoprofen'
p1118
((F1.0
S'fenoprofen'
p1119
tp1120
S"(st) matching: ratio , lcs, (key,drug) (keynorm,drugnorm 1.0 fenoprofen ('fenoprofen', 'fenoprofen') ('fenoprofen', 'fenoprofen')"
p1121
tp1122
sS'nu_7441'
p1123
NsS'b675700.cdx'
p1124
NsS'l469480'
p1125
NsS'everolimus'
p1126
NsS'ticrynafen'
p1127
NsS'carmustine'
p1128
NsS'brd_k31491153'
p1129
NsS'ql_xii_47'
p1130
NsS'brd_k55127335'
p1131
NsS'anisindione'
p1132
NsS'brd_k56411643'
p1133
NsS'hg_5_88_01'
p1134
NsS'brd_k53903639'
p1135
NsS'brd_k56593336'
p1136
NsS'nortriptyline'
p1137
NsS'phenacetin'
p1138
NsS'nocodazole'
p1139
NsS'1_naphthyl_isothiocyanate'
p1140
NsS'linsitinib'
p1141
NsS'cetylpyridinium_bromide'
p1142
NsS'chr_2797'
p1143
NsS'capsazepine'
p1144
NsS'mycophenolate_mofetil'
p1145
NsS'phenylhydrazine'
p1146
NsS'prasterone'
p1147
NsS'mln2238'
p1148
NsS'amuvatinib'
p1149
NsS'hydrazine'
p1150
NsS'sb_200646_hydrochloride'
p1151
NsS'cgk_733'
p1152
NsS'imatinib'
p1153
((F1.0
S'imatinib'
p1154
tp1155
S"(st) matching: ratio , lcs, (key,drug) (keynorm,drugnorm 1.0 imatinib ('imatinib', 'imatinib') ('imatinib', 'imatinib')"
p1156
tp1157
sS'paroxetine'
p1158
NsS'vu0410183_2'
p1159
NsS'levamisole'
p1160
NsS'xmd_1150'
p1161
NsS'cobalt(ii)_acetylacetonate'
p1162
NsS'k784_3188'
p1163
NsS'harringtonine'
p1164
NsS'brd_k89692698'
p1165
NsS'k784_3187'
p1166
NsS'jzl_184'
p1167
NsS'lansoprazole'
p1168
NsS'hki_272'
p1169
NsS'clobetasol_propionate'
p1170
NsS'baclofen'
p1171
NsS'kin001_265'
p1172
NsS'kin001_266'
p1173
NsS'ethacrynic_acid'
p1174
NsS'6_methoxy_2_naphthylacetic_acid'
p1175
NsS'prestwick_967'
p1176
NsS'gadopentetate_dimeglumine'
p1177
NsS'amphetamine'
p1178
NsS'triamcinolone_acetonide'
p1179
NsS'medroxyprogesterone_acetate'
p1180
NsS'levodopa'
p1181
NsS'zidovudine'
p1182
NsS'brd_k12762134'
p1183
NsS'brd_k63068307'
p1184
NsS'cerivastatin'
p1185
NsS'pik_93'
p1186
NsS'pik_90'
p1187
NsS'sulfamethoxazole'
p1188
NsS'doxylamine_succinate'
p1189
NsS'tocainide'
p1190
NsS'ql_xi_92'
p1191
NsS'brd_k27484191'
p1192
NsS'ipriflavone'
p1193
NsS'cortisone'
p1194
NsS'fluoxetine'
p1195
NsS'auranofin'
p1196
NsS'su_4312'
p1197
NsS'nn__diphenyl_p_phenylenediamine'
p1198
NsS'cyclosporine'
p1199
NsS'colforsin'
p1200
NsS'brd_k92317137'
p1201
NsS'alitretinoin'
p1202
NsS'cisapride'
p1203
NsS'sodium_orthovanadate'
p1204
NsS'ramipril'
p1205
NsS'perhexiline'
p1206
NsS'bi_2536'
p1207
NsS'dicyclomine'
p1208
NsS'staurosporine'
p1209
NsS'hg_14_8_02'
p1210
NsS'quinacrine_dihydrochloride_dihydrate'
p1211
NsS'alprazolam'
p1212
NsS'as_601245'
p1213
NsS'alw_ii_38_3'
p1214
NsS'prostaglandin_a1'
p1215
NsS'jak3_inhibitor_vi'
p1216
NsS'fluocinolone_acetonide'
p1217
NsS'radicicol'
p1218
NsS'barasertib'
p1219
NsS'gentian_violet'
p1220
NsS'betamethasone'
p1221
NsS'zopiclone'
p1222
NsS'beta_naphthoflavone'
p1223
NsS'droperidol'
p1224
NsS'meropenem'
p1225
NsS'idarubicin'
p1226
NsS'brd_k72703948'
p1227
NsS'mifepristone'
p1228
NsS'insulin'
p1229
NsS'ctb'
p1230
NsS'dl_pdmp'
p1231
NsS'ym_201636'
p1232
NsS'sulpiride'
p1233
NsS'rottlerin_ncgc00025228_11'
p1234
NsS'brd_a18725729'
p1235
NsS'crotamiton'
p1236
NsS't5212475'
p1237
NsS'choline_chloride'
p1238
NsS'cgs_20625'
p1239
NsS'coumarin'
p1240
NsS'mestranol'
p1241
NsS'lithocholic_acid'
p1242
NsS'tranexamic_acid'
p1243
NsS'ethisterone'
p1244
NsS'nimodipine'
p1245
NsS'chloroquine'
p1246
((F1.0
S'hydroxychloroquine'
p1247
tp1248
S"(st) matching: ratio , lcs, (key,drug) (keynorm,drugnorm 1.0 chloroquine ('chloroquine', 'hydroxychloroquine') ('chloroquine', 'hydroxychloroquine')"
p1249
tp1250
sS'np_001236'
p1251
NsS'cadmium_chloride'
p1252
NsS'lovastatin'
p1253
NsS'isoflurane'
p1254
NsS'pf_477736'
p1255
NsS'mannitol'
p1256
NsS'camptothecin'
p1257
NsS'amoxapine'
p1258
NsS'chlormezanone'
p1259
NsS'nvp_bgt226'
p1260
NsS'hy_10459'
p1261
NsS'thioridazine_hydrochloride'
p1262
NsS'digoxin'
p1263
NsS'ketoconazole'
p1264
NsS'brd_u74615290'
p1265
NsS'chlordiazepoxide'
p1266
NsS'bay_11_7821'
p1267
NsS'estrone'
p1268
NsS'doramapimod'
p1269
NsS'marimastat'
p1270
NsS'p8624'
p1271
NsS'carbon_tetrachloride'
p1272
NsS'tosufloxacin'
p1273
NsS'phthalylsulfathiazole'
p1274
NsS'sorafenib'
p1275
NsS'akt_inhibitor_iv'
p1276
NsS'hdac6_inhibitor_isox'
p1277
NsS'angiogenesis_inhibitor'
p1278
NsS'dexverapamil'
p1279
NsS'kin001_270'
p1280
NsS'phenylpropanolamine'
p1281
NsS'nvp_auy922'
p1282
NsS'thiostrepton'
p1283
NsS'brd_a82238138_(budesonide)'
p1284
NsS'azd4547'
p1285
NsS'pha_793887'
p1286
NsS'selamectin'
p1287
NsS'amg_9810'
p1288
NsS'brd_k10554164'
p1289
NsS'hydrastine_hydrochloride'
p1290
NsS'pyrazinamide'
p1291
NsS'pfi_1'
p1292
NsS'chemistry_2804'
p1293
NsS'diethanolamine'
p1294
NsS'sb_216641_hydrochloride'
p1295
NsS'naloxone'
p1296
NsS'ebastine'
p1297
NsS'allyl_alcohol'
p1298
NsS'hg_9_91_01'
p1299
NsS'proglumide'
p1300
NsS'artesunate'
p1301
NsS'sparfloxacin'
p1302
NsS'azaribine'
p1303
NsS's1216'
p1304
NsS'3_acetamidophenol'
p1305
NsS'laudanosine'
p1306
NsS'josamycin'
p1307
NsS'bromhexine'
p1308
NsS'dideoxycytidine'
p1309
NsS'ver155008'
p1310
NsS'dipyrone'
p1311
NsS'ozagrel'
p1312
NsS'canertinib'
p1313
NsS's(_)_timolol'
p1314
NsS'rocilinostat'
p1315
NsS's1107'
p1316
NsS'vandetanib'
p1317
NsS'azlocillin'
p1318
NsS'homoharringtonine'
p1319
NsS'dobutamine'
p1320
NsS'glycidol'
p1321
NsS't3205'
p1322
NsS'5_fluoro_2__deoxyuridine'
p1323
NsS'ellipticine'
p1324
NsS'taxifolin_(+)'
p1325
NsS'clomipramine'
p1326
NsS'unc669'
p1327
NsS's1367'
p1328
NsS'sib_1893'
p1329
NsS'thz_2_98_01'
p1330
NsS'bleomycin'
p1331
NsS'sar_245408'
p1332
NsS'linifanib'
p1333
NsS'tnf_alpha'
p1334
NsS'valsartan'
p1335
NsS'trimethadione'
p1336
NsS'(+)_jq1'
p1337
NsS'cgp_54626_hydrochloride'
p1338
NsS'zk_93423'
p1339
NsS'ki20227'
p1340
NsS'alfacalcidol'
p1341
NsS'tetroquinone'
p1342
NsS'alfadolone_acetate'
p1343
NsS'azd_6482'
p1344
NsS'dexfenfluramine'
p1345
NsS'fenbendazole'
p1346
NsS'diazepam'
p1347
NsS'angiotensin_ii_human'
p1348
NsS'niacinamide'
p1349
NsS'etodolac'
p1350
NsS'prednisone'
p1351
((F1.0
S'prednisone'
p1352
tp1353
S"(st) matching: ratio , lcs, (key,drug) (keynorm,drugnorm 1.0 prednisone ('prednisone', 'prednisone') ('prednisone', 'prednisone')"
p1354
tp1355
sS'troglitazone'
p1356
NsS'lidocaine'
p1357
NsS'mesna'
p1358
NsS'acarbose'
p1359
NsS'nvp_bgj398'
p1360
NsS'brd_k99633092'
p1361
NsS'motesanib'
p1362
NsS'brd_k91145395'
p1363
NsS'ast1306'
p1364
NsS'daunorubicin'
p1365
NsS'bithionate_sodium'
p1366
NsS'saquinavir'
p1367
NsS'hydrocotarnine'
p1368
NsS'hy_11006'
p1369
NsS'hy_11005'
p1370
NsS'ascorbic_acid'
p1371
NsS'pemoline'
p1372
NsS'clomiphene'
p1373
NsS'menadione'
p1374
NsS'ritodrine'
p1375
NsS'trovafloxacin'
p1376
NsS'clopidogrel'
p1377
NsS'gemcitabine'
p1378
NsS'fluphenazine'
p1379
NsS'estradiol_valerate'
p1380
NsS'kin001_043'
p1381
NsS'aminocaproic_acid'
p1382
NsS'dexibuprofen'
p1383
NsS'ql_x_138'
p1384
NsS'metacycline'
p1385
NsS'tl_hras26_brd_k01877528'
p1386
NsS'salicylamide'
p1387
NsS'brd_k43226598'
p1388
NsS'novobiocin'
p1389
NsS'gabapentin'
p1390
NsS'cilostazol'
p1391
NsS'methylprednisolone'
p1392
((F1.0
S'methylprednisolone_acetate'
p1393
tp1394
S"Suffix-based-exact-matching ('methylprednisolone', 'methylprednisolone_acetate') ('methylprednisolone', 'methylprednisolone_acetate')"
p1395
tp1396
sS'amsacrine'
p1397
NsS'guanabenz'
p1398
NsS'depo_medrol'
p1399
NsS'clomifene'
p1400
NsS'sb_239063'
p1401
NsS'kw_2449'
p1402
NsS'hy_70044'
p1403
NsS'doxepin'
p1404
NsS'fluconazole'
p1405
NsS'nimesulide'
p1406
NsS't5247673'
p1407
NsS'methylergometrine'
p1408
NsS'calpeptin'
p1409
NsS'brd_k84450674'
p1410
NsS'evodiamine'
p1411
NsS'7b_cis'
p1412
NsS'vegf_receptor_3_kinase_inhibitor__maz51'
p1413
NsS'ncgc00010428_03'
p1414
NsS'jnj_38877605'
p1415
NsS'azd_5438'
p1416
NsS'vu0418947_2'
p1417
NsS'timolol'
p1418
NsS'abt_751'
p1419
NsS's1003'
p1420
NsS'doxycycline'
p1421
NsS'ferrocene'
p1422
NsS'rosiglitazone'
p1423
NsS'theophylline'
p1424
NsS'brd_a11702965'
p1425
NsS's1170'
p1426
NsS'ncgc00182823_01'
p1427
NsS'aceclofenac'
p1428
NsS'bms_387032'
p1429
NsS'levetiracetam'
p1430
NsS'azd_7762'
p1431
NsS'cot_10b'
p1432
NsS'cp466722'
p1433
NsS'indinavir'
p1434
NsS'hexachloroethane'
p1435
NsS'luzindole'
p1436
NsS'brd_k58288048'
p1437
NsS'fluspirilene'
p1438
NsS'buparlisib'
p1439
NsS'brd_k32896438'
p1440
NsS'gr_108'
p1441
NsS'chloramphenicol'
p1442
NsS'enoxacin'
p1443
NsS'nilutamide'
p1444
NsS'rapamycin'
p1445
NsS'xylazine'
p1446
NsS'brd_k68174511'
p1447
NsS'dipivefrine'
p1448
NsS'ncgc00242335_01'
p1449
NsS'jwe_035'
p1450
NsS'galantamine'
p1451
NsS'nifenazone'
p1452
NsS'6_mercaptopurine'
p1453
NsS'roscovitine'
p1454
NsS'brd_k72238567'
p1455
NsS'cetraxate'
p1456
NsS'oxfendazole'
p1457
NsS'doxifluridine'
p1458
NsS'flunisolide'
p1459
NsS'narciclasine'
p1460
NsS'trichostatin_a'
p1461
NsS'crizotinib'
p1462
NsS'ici_185_282'
p1463
NsS'hydroquinone'
p1464
NsS'nintedanib'
p1465
NsS'glycine'
p1466
NsS'olomoucine'
p1467
NsS'ku_0060648_trihydrochloride'
p1468
NsS'vecuronium_bromide'
p1469
NsS'loperamide'
p1470
NsS'ampicillin'
p1471
NsS'zirconium(iv)_chloride'
p1472
NsS'cabozantinib'
p1473
NsS'methyl_salicylate'
p1474
NsS'finasteride'
p1475
NsS'azd7762'
p1476
NsS'brd_k45818044'
p1477
NsS'prednisolone'
p1478
((F1.0
S'methylprednisolone_acetate'
p1479
tp1480
S"(st) matching: ratio , lcs, (key,drug) (keynorm,drugnorm 1.0 prednisolone ('prednisolone', 'methylprednisolone_acetate') ('prednisolone', 'methylprednisolone_acetate')"
p1481
tp1482
sS'trihexyphenidyl'
p1483
NsS'buflomedil'
p1484
NsS'mephenytoin'
p1485
NsS'azauridine'
p1486
NsS'teicoplanin'
p1487
NsS'p5172'
p1488
NsS'44__methylenedianiline'
p1489
NsS'granisetron'
p1490
NsS'l_phenylephrine'
p1491
NsS'prednicarbate'
p1492
NsS'irinotecan'
p1493
NsS'hydrocortisone'
p1494
NsS'epirubicin'
p1495
NsS'mk_2206'
p1496
NsS'ei_156'
p1497
NsS'kin001_055'
p1498
NsS'imd_0354'
p1499
NsS'thioridazine'
p1500
NsS'temsirolimus_[ci779]'
p1501
NsS'propofol'
p1502
NsS'tivantinib'
p1503
NsS'carmofur'
p1504
NsS'brd_k88832793'
p1505
NsS'estradiol'
p1506
NsS'itraconazole'
p1507
NsS'curcubitacin_i'
p1508
NsS'hinokitiol'
p1509
NsS'brd_k12393722'
p1510
NsS'i_bet'
p1511
NsS'chlortetracycline'
p1512
NsS'sb_225002'
p1513
NsS'testosterone'
p1514
NsS'gsk_690693'
p1515
NsS'chlorcyclizine'
p1516
NsS'gliclazide'
p1517
NsS'su11652'
p1518
NsS'mk_0591'
p1519
NsS'rf_01079'
p1520
NsS'dizocilpine'
p1521
NsS'acetazolamide'
p1522
NsS'flutamide'
p1523
NsS'fluspirilen'
p1524
NsS'thimerosal'
p1525
NsS'cmpd_1'
p1526
NsS'dcc_2036'
p1527
NsS'cx_5461'
p1528
NsS's1018'
p1529
NsS'terfenadine'
p1530
NsS'triamterene'
p1531
NsS'pd_184352'
p1532
NsS'cyclopropane_carboxylic_acid'
p1533
NsS'phenylbutazone'
p1534
NsS'periplocymarin'
p1535
NsS'ku_0063794'
p1536
NsS'parthenolide'
p1537
NsS'azacytidine_5'
p1538
NsS'cytarabine'
p1539
NsS'picrotoxinin'
p1540
NsS'flunarizine'
p1541
NsS'xmd11_85h'
p1542
NsS'isopropyl_alcohol'
p1543
NsS'kin236'
p1544
NsS'cefotaxime'
p1545
NsS'suloctidil'
p1546
NsS'vitamin_c'
p1547
NsS'vitamin_a'
p1548
NsS'brd_k77681376'
p1549
NsS'vitamin_e'
p1550
NsS'cefadroxil'
p1551
NsS'gw_843682x'
p1552
NsS'cg_930'
p1553
NsS'simvastatin'
p1554
((F1.0
S'simvastatin'
p1555
tp1556
S"(st) matching: ratio , lcs, (key,drug) (keynorm,drugnorm 1.0 simvastatin ('simvastatin', 'simvastatin') ('simvastatin', 'simvastatin')"
p1557
tp1558
sS'methyl_methanesulfonate'
p1559
NsS'mafenide_hydrochloride'
p1560
NsS'valproic_acid'
p1561
NsS'aloisine_a'
p1562
NsS'aztreonam'
p1563
NsS'foliosidine'
p1564
NsS'benzamil_hydrochloride'
p1565
NsS'dovitinib'
p1566
NsS'riboflavin'
p1567
NsS'brd_a37735495'
p1568
NsS'estriol'
p1569
Ns.