(dp0
S''
p1
NsS'fentiazac'
p2
NsS'nitrazepam'
p3
NsS'brd_k38625260'
p4
NsS'et_004'
p5
NsS'telmisartan'
p6
((F1.0
S'telmisartan'
p7
tp8
S"(st) matching: ratio , lcs, (key,drug) (keynorm,drugnorm 1.0 telmisartan ('telmisartan', 'telmisartan') ('telmisartan', 'telmisartan')"
p9
tp10
sS'bromocryptine_mesylate'
p11
NsS'perfluorooctanoic_acid'
p12
NsS'nvp_tnks656_(tankyrase_inhibitor)'
p13
NsS's(_)_carbidopa'
p14
NsS'brd_k66254772'
p15
NsS'ici_162_846'
p16
NsS'zm_336372'
p17
NsS'stk222600'
p18
NsS'monorden'
p19
NsS'dl_ppmp'
p20
NsS'h_89_dihydrochloride'
p21
NsS'r3904'
p22
NsS'r1881'
p23
NsS'ha_1004'
p24
NsS'brd_k43620258'
p25
NsS'hy_10161'
p26
NsS'idelalisib'
p27
NsS'pantoprazole'
p28
NsS'vincamine'
p29
NsS'brd_k24705176'
p30
NsS'brd_k45205755'
p31
NsS'dichlorvos'
p32
NsS'nvp_tae684'
p33
NsS'lawsone'
p34
NsS'brd_k88551539'
p35
NsS'brd_k94325918'
p36
NsS'brd_k01868942'
p37
NsS'cc_100'
p38
NsS'ncgc00167094_01'
p39
NsS'sodium_nitroprusside'
p40
NsS'citalopram'
p41
NsS'brd_k70918941'
p42
NsS'brd_a52193669'
p43
NsS'methoxsalen'
p44
NsS'glimepiride'
p45
NsS'tropisetron'
p46
NsS'brd_k74623475'
p47
NsS'brd_a47816767'
p48
NsS'lofepramine'
p49
NsS'u_74389g'
p50
NsS'brd_a67552655'
p51
NsS'o_1918'
p52
NsS'ncgc00186101_01'
p53
NsS'6790'
p54
NsS'microcystin_lr'
p55
NsS'pifithrin__a_hydrobromide'
p56
NsS'procarbazine'
p57
NsS'hodgkin_lymphoma_cid'
p58
NsS'stock1s_03920'
p59
NsS'finasteride'
p60
NsS'np_001821'
p61
NsS'vincristine_sulfate'
p62
NsS'protriptyline'
p63
NsS'np_009169'
p64
NsS'brd_k01089529'
p65
NsS'brd_k41924482'
p66
NsS'zuclopenthixol'
p67
NsS'bms_299897'
p68
NsS'y_27152'
p69
NsS'sulfasalazine'
p70
NsS'phenamil'
p71
NsS'hexetidine'
p72
NsS'pentobarbital'
p73
NsS'brd_k19540840'
p74
NsS'oprelvekin'
p75
NsS'selumetinib'
p76
NsS'sb_366791'
p77
NsS'brd_k14316227'
p78
NsS'brd_k53833301'
p79
NsS'alpha_naphthoflavone'
p80
NsS'diazoxide'
p81
NsS'brd_k41859756'
p82
NsS'279'
p83
NsS'brd_k95760042'
p84
NsS'chaetocin'
p85
NsS'fr_180204'
p86
NsS'vu0415556_1'
p87
NsS'beta_estradiol_3_benzoate'
p88
NsS'brd_a31107743'
p89
NsS'brd_k78385490'
p90
NsS'carboplatin_(24_h)'
p91
NsS'hg_14_10_04'
p92
NsS'brd_k18726304'
p93
NsS'brd_k48204702'
p94
NsS'g_201'
p95
NsS'sch_351591'
p96
NsS'levosulpiride'
p97
NsS'brd_k42021584'
p98
NsS'brd_k86574132'
p99
NsS'doxorubicin_'
p100
NsS'vu0365114_2'
p101
NsS'ncgc00183401_01'
p102
NsS'brd_k20123385'
p103
NsS'brd_k48654774'
p104
NsS'pbde_85'
p105
NsS'gefitinib'
p106
NsS'gsk_461364'
p107
NsS'brd_k81795824'
p108
NsS'np_003021'
p109
NsS'brd_k41429297'
p110
NsS'secobarbital'
p111
NsS'tanespimycin'
p112
NsS'amperozide'
p113
NsS'km00799'
p114
NsS'brd_k03857568'
p115
NsS'dihydroergotamine'
p116
NsS'procainamide'
p117
NsS'amiloride'
p118
NsS'phenelzine'
p119
NsS'prima_1_met'
p120
NsS'a_1065'
p121
NsS'r406'
p122
NsS'brd_k45114207'
p123
NsS'brd_k56111351'
p124
NsS'gsk_3_inhibitor_ii'
p125
NsS'dequalinium_dichloride'
p126
NsS'brd_k38205437'
p127
NsS'phenacemide'
p128
NsS'sisomicin'
p129
NsS'tg101348'
p130
NsS'sporidesmin_a'
p131
NsS'7620'
p132
NsS'clonidine'
p133
NsS'karakoline'
p134
NsS'sericetin'
p135
NsS'15_deoxy_?12_14_prostaglandin_j2'
p136
NsS'epalrestat'
p137
NsS'sulfinpyrazone'
p138
NsS'nsc_663284'
p139
NsS'brd_k91701654'
p140
NsS'brd_k86086851'
p141
NsS'alitretinoin'
p142
NsS'brd_k34387287'
p143
NsS'ed_csc_15'
p144
NsS'brd_k03122949'
p145
NsS'brd_a59145032'
p146
NsS'leucovorin'
p147
NsS'gdc_0941'
p148
NsS'brd_k59962020'
p149
NsS'trimeprazine_tartrate'
p150
NsS'doxofylline'
p151
NsS'brd_k77480336'
p152
NsS'lysophosphatidic_acid'
p153
NsS'hy_70061'
p154
NsS'bosutinib'
p155
NsS'brd_k41220170'
p156
NsS'brd_k58674774'
p157
NsS'cgp_71683_hydrochloride'
p158
NsS'reserpine'
p159
NsS'pd_173074'
p160
NsS'brd_a83255679'
p161
NsS'chlorthalidone'
p162
NsS'type'
p163
NsS'ttnpb'
p164
NsS'9)'
p165
NsS'chlorpromazine'
p166
((F1.0
S'chlorpromazine'
p167
tp168
S"(st) matching: ratio , lcs, (key,drug) (keynorm,drugnorm 1.0 chlorpromazine ('chlorpromazine', 'chlorpromazine') ('chlorpromazine', 'chlorpromazine')"
p169
tp170
sS'brd_k51302260'
p171
NsS'brd_k52911425'
p172
NsS'n_nitrosodimethylamine'
p173
NsS'brd_k82092559'
p174
NsS'ncgc00182393_01'
p175
NsS'mls_0091944.0001'
p176
NsS'insulin_regular'
p177
NsS'brd_k73285375'
p178
NsS'nas_181'
p179
NsS'brd_k63712590'
p180
NsS'brd_k81365078'
p181
NsS'tegaserod'
p182
NsS'm_3m3fbs'
p183
NsS'concanavalin_a'
p184
NsS'brd_k26211296'
p185
NsS'azasetron'
p186
NsS'nitric_oxide'
p187
((F1.0
S'nitric_oxide_gas'
p188
tp189
S"(st) matching: ratio , lcs, (key,drug) (keynorm,drugnorm 1.0 nitric_oxide ('nitric_oxide', 'nitric_oxide_gas') ('nitric_oxide', 'nitric_oxide_gas')"
p190
tp191
sS'gadopentetate_dimeglumine'
p192
NsS'medrysone'
p193
NsS'mgcd_265'
p194
NsS'3_methylcholanthrene'
p195
NsS't0516_4420'
p196
NsS'4_hydroxynonenal'
p197
NsS'chlorzoxazone'
p198
NsS'brd_k94580036'
p199
NsS'prenylamine_lactate'
p200
NsS't_0901317'
p201
NsS'capsaicin'
p202
NsS'lead_(ii)_acetate'
p203
NsS'chlormadinone_acetate'
p204
NsS's1022'
p205
NsS'ncgc00181799_01'
p206
NsS'sid_26681509'
p207
NsS'tivozanib'
p208
NsS'sodium_arsenite'
p209
NsS'fludarabine'
p210
NsS'quetiapine'
p211
NsS'vu0418939_2'
p212
NsS'rev_5901'
p213
NsS'cinobufagin'
p214
NsS'brd_k37724988'
p215
NsS'nrb_03823'
p216
NsS'brd_k04389336'
p217
NsS'brd_k57480017'
p218
NsS'perphenazine'
p219
NsS'brd_k86110682'
p220
NsS'k048_0112'
p221
NsS'cgp_52432'
p222
NsS'brd_k60772276'
p223
NsS'ncgc00188740_01'
p224
NsS'bl_076'
p225
NsS'bl_077'
p226
NsS's1152'
p227
NsS'bl_073'
p228
NsS'talniflumate'
p229
NsS'pbde_47'
p230
NsS'griseofulvin'
p231
NsS'brd_k33720404'
p232
NsS'bw_b_70c'
p233
NsS'brd_k38340366'
p234
NsS'brd_k45542213'
p235
NsS'latanoprost'
p236
NsS'bl_095'
p237
NsS'netilmicin'
p238
NsS'stock2s_84516'
p239
NsS'calcitriol'
p240
NsS'brd_a19248578'
p241
NsS'lincomycin'
p242
NsS'niguldipine'
p243
NsS'tpca_1'
p244
NsS'ch5424802'
p245
NsS'brd_k90864987'
p246
NsS'brd_k39829853'
p247
NsS's1064'
p248
NsS'vu0420363_1'
p249
NsS'at_mlpcn_csc_006'
p250
NsS'brd_k31706415'
p251
NsS'brd_k07005393'
p252
NsS'ncgc00183589_01'
p253
NsS'dm_55_3_brd_k81592585'
p254
NsS'triacetin'
p255
NsS'brd_k02558072'
p256
NsS'scoulerine'
p257
NsS'lamivudine'
p258
NsS'chlorprothixene'
p259
NsS'brd_k98824517'
p260
NsS'isoreserpine'
p261
NsS's1315'
p262
NsS'letrozole'
p263
NsS'ag_9'
p264
NsS'temafloxacin'
p265
NsS'sulfathiazole'
p266
NsS'bufalin'
p267
NsS'st4062971'
p268
NsS'epinephrine'
p269
NsS'ingenol_3__20_dibenzoate'
p270
NsS'abt_263'
p271
NsS'sulfamerazine'
p272
NsS'epivincamine'
p273
NsS'mitomycin_c'
p274
NsS'brd_k45399554'
p275
NsS'puromycin'
p276
NsS'brd_a16820783'
p277
NsS'vu0418000_1'
p278
NsS'd_galactosamine'
p279
NsS'brd_k42635745_(suloctidil)'
p280
NsS'a_275'
p281
NsS'fk_888'
p282
NsS'1_[3_(trifluoromethyl)phenyl]piperazine'
p283
NsS'fit'
p284
NsS'c1386'
p285
NsS'benazepril_hydrochloride'
p286
NsS'psh_008'
p287
NsS'brd_k96274284'
p288
NsS'brd_k16940042'
p289
NsS'nsc_95397'
p290
NsS'brd_a84327315'
p291
NsS'apo866'
p292
NsS'bcl_2_inhibitor'
p293
NsS'brd_k69406317'
p294
NsS'roxarsone'
p295
NsS'brd_k79459005'
p296
NsS'lde225)'
p297
NsS'vu0418934_2'
p298
NsS'brd_k22322324'
p299
NsS'guanabenz_acetate'
p300
NsS'cefoperazone'
p301
NsS'vatalanib'
p302
NsS'9_amino_1_2_3_4_tetrahydroacridine'
p303
NsS'dmp_543'
p304
NsS'ncgc00011940_02'
p305
NsS'brd_k37694030_(doxepin_hydrochloride)'
p306
NsS'brd_k07403598'
p307
NsS'celecoxib'
p308
NsS'brd_k12105018'
p309
NsS'flurandrenolide'
p310
NsS'ofloxacin'
p311
NsS'd_4476'
p312
NsS'praziquantel'
p313
NsS'brd_k95561591'
p314
NsS'daphnetin'
p315
NsS'brd_k00486725'
p316
NsS'gw_7647'
p317
NsS'brd_k76951091'
p318
NsS'brd_k62300190'
p319
NsS'(e)_capsaicin'
p320
NsS'hydrocortisone_acetate'
p321
((F1.0
S'hydrocortisone'
p322
tp323
S"Suffix-based-exact-matching ('hydrocortisone acetate', 'hydrocortisone') ('hydrocortisone_acetate', 'hydrocortisone')"
p324
tp325
sS'brd_k03371390'
p326
NsS'losartan'
p327
((F1.0
S'losartan'
p328
tp329
S"(st) matching: ratio , lcs, (key,drug) (keynorm,drugnorm 1.0 losartan ('losartan', 'losartan') ('losartan', 'losartan')"
p330
tp331
sS'pipamperone'
p332
NsS'flubendazole'
p333
NsS'4_nonylphenol'
p334
NsS'n_methylformamide'
p335
NsS'dimenhydrinate'
p336
NsS'ro_90_7501'
p337
NsS'brd_a82307304'
p338
NsS'bx_795'
p339
NsS'xmd_1499'
p340
NsS'isorotenone'
p341
NsS'r(_)_2_11_dihydroxy_10_methoxyaporphine'
p342
NsS'bortezomib'
p343
NsS'donepezil_hydrochloride'
p344
NsS'cyclopenthiazide'
p345
NsS'brd_k34332553'
p346
NsS'np_002491'
p347
NsS'adenosine_phosphate'
p348
NsS'sulfaquinoxaline_sodium_salt'
p349
NsS'ncgc00183387_01'
p350
NsS'cyclopamine'
p351
NsS'trifluoperazine'
p352
NsS'brd_k00313977'
p353
NsS'brd_k63368502'
p354
NsS'vu0415113_1'
p355
NsS'brd_k80346834'
p356
NsS'brd_k01436366'
p357
NsS'sanguinarine'
p358
NsS'ncgc00189555_02'
p359
NsS'2_5_dideoxyadenosine'
p360
NsS'propyl_beta_carboline_3_carboxylate'
p361
NsS'brd_k55536701'
p362
NsS'amiodarone_hydrochloride'
p363
((F1.0
S'amiodarone'
p364
tp365
S"Suffix-based-exact-matching ('amiodarone hydrochloride', 'amiodarone') ('amiodarone_hydrochloride', 'amiodarone')"
p366
tp367
sS'n_benzylnaltrindole_hydrochloride'
p368
NsS'azacitidine'
p369
NsS'brd_k64754843'
p370
NsS'metoclopramide'
p371
NsS'halothane'
p372
NsS'ncgc00187945_01'
p373
NsS'brd_k72381041'
p374
NsS'retinoic_acid'
p375
((F1.0
S'13_cis_retinoic_acid'
p376
tp377
S"(st) matching: ratio , lcs, (key,drug) (keynorm,drugnorm 1.0 retinoic_acid ('retinoic acid', '13_cis_retinoic_acid') ('retinoic_acid', '13_cis_retinoic_acid')"
p378
tp379
sS'fluvastatin_sodium_salt'
p380
NsS'forskolin'
p381
NsS'brd_k66792149'
p382
NsS'243'
p383
NsS'ncgc00183452_01'
p384
NsS'racepinephrine_hcl'
p385
NsS'(_)_isoprenaline'
p386
NsS'brd_k22631935'
p387
NsS'ncgc00180995_01'
p388
NsS'rhodomyrtoxin_b'
p389
NsS'xmd_885'
p390
NsS'naringenine'
p391
NsS'brd_k56024573'
p392
NsS'metaxalone'
p393
NsS'brd_a54077041'
p394
NsS'ncgc00242553_01'
p395
NsS'lung_cancer'
p396
NsS'carbimazole'
p397
NsS'bjm_csc_19_brd_k92817986'
p398
NsS'tremorine_dihydrochloride'
p399
NsS'brd_a74983348'
p400
NsS'ag14361'
p401
NsS'brd_k37021324'
p402
NsS'primaquine'
p403
NsS'r(_)_2_10_11_trihydroxyaporphine'
p404
NsS'westcort'
p405
NsS'brd_k34092011'
p406
NsS'brd_k61776140'
p407
NsS'celastrol'
p408
NsS'brd_k68690198'
p409
NsS'ro_28_1675_?'
p410
NsS'ei_332'
p411
NsS'brd_k40949493'
p412
NsS'mercury'
p413
NsS'dubinidine'
p414
NsS'colistin'
p415
NsS'bibx_1382_dihydrochloride'
p416
NsS'mdl_73005ef_hydrochloride'
p417
NsS'fenretinide'
p418
NsS'ncgc00183696_01'
p419
NsS'1_4_chrysenequinone'
p420
NsS'c3393m50'
p421
NsS'vinorelbine'
p422
NsS'brd_k86231656'
p423
NsS'sdm25n_hydrochloride'
p424
NsS'brd_k74761218'
p425
NsS'gemfibrozil'
p426
NsS'dy131'
p427
NsS'etidronate'
p428
NsS'ncgc00183691_01'
p429
NsS'cccp'
p430
NsS'alvespimycin'
p431
NsS'pp_1'
p432
NsS'anafranil'
p433
NsS'pp_2'
p434
NsS'brd_k46681113'
p435
NsS'prestw_550'
p436
NsS'arachidonic_acid'
p437
NsS'cytarabine_'
p438
NsS'h_9_dihydrochloride'
p439
NsS'brd_k11663430'
p440
NsS'ncgc00184716_01'
p441
NsS'sparteine'
p442
NsS'brd_k23478508_(digoxin)'
p443
NsS'brd_k76236182'
p444
NsS'brd_k89451433'
p445
NsS'y_27632'
p446
NsS'brd_k73945663'
p447
NsS'1_2_4_benzenetriol'
p448
NsS'ncgc00183690_01'
p449
NsS've821'
p450
NsS'betulin'
p451
NsS'brd_k88329126'
p452
NsS'methocarbamol'
p453
NsS'prochlorperazine_edisylate'
p454
NsS'akt_inhibitor_1_2'
p455
NsS'paxilline'
p456
NsS'24_diaminophenol'
p457
NsS'telenzepine_dihydrochloride'
p458
NsS'brd_k02113016'
p459
NsS'neocarzinostatin'
p460
NsS'ku_60019'
p461
NsS'ei_328'
p462
NsS'brd_k12168891'
p463
NsS'brd_k32536677'
p464
NsS'brd_k63954456'
p465
NsS'am580'
p466
NsS'pd_184352'
p467
NsS'erythrosine_sodium'
p468
NsS'pergolide'
p469
NsS'sulfisoxazole'
p470
NsS'alvocidib'
p471
NsS'ncgc00242335_01'
p472
NsS'ncgc00180992_01'
p473
NsS'(r)_bicalutamide'
p474
NsS'estriol'
p475
NsS'brd_k39757396'
p476
NsS'ncgc00184724_01'
p477
NsS'norgestimate'
p478
NsS'ryuvidine'
p479
NsS'carbacyclin'
p480
NsS'amitraz'
p481
NsS'lomustine'
p482
NsS'bumetanide'
p483
NsS'camptothecine_(s_+)'
p484
NsS'nu_1025'
p485
NsS'dephostatin'
p486
NsS'bapta_am'
p487
NsS'nefazodone_hydrochloride'
p488
NsS'ritonavir'
p489
((F1.0
S'ritonavir'
p490
tp491
S"(st) matching: ratio , lcs, (key,drug) (keynorm,drugnorm 1.0 ritonavir ('ritonavir', 'ritonavir') ('ritonavir', 'ritonavir')"
p492
tp493
sS'brd_k64058329'
p494
NsS'ncgc00242279_01'
p495
NsS'clonazepam'
p496
NsS'pq_401'
p497
NsS'skatole'
p498
NsS'ncgc00242337_01'
p499
NsS's1527'
p500
NsS'amuvatinib'
p501
NsS'ubiquinol'
p502
NsS'norepinephrine'
p503
NsS'linezolid'
p504
NsS'cycloheximide'
p505
NsS'furan'
p506
NsS'chemistry_1571'
p507
NsS'nordihydroguaiaretic_acid'
p508
NsS'brd_k53461563'
p509
NsS'etacrynic_acid'
p510
NsS'brd_k49814456'
p511
NsS'brd_u68942961'
p512
NsS'h_5832'
p513
NsS'brd_k70871370'
p514
NsS'brd_k64525051'
p515
NsS'brd_k34508425'
p516
NsS'brd_a49848186'
p517
NsS'brd_a76641868'
p518
NsS'puromycin_dihydrochloride'
p519
NsS's1148'
p520
NsS'brd_k16118047'
p521
NsS's1140'
p522
NsS'ncgc00183244_01'
p523
NsS's1142'
p524
NsS'xmd16_144'
p525
NsS'v_ama37'
p526
NsS'brd_k33676730'
p527
NsS'brd_a75931230'
p528
NsS's1455'
p529
NsS's1452'
p530
NsS'azd_7545_a'
p531
NsS'ncgc00167118_01'
p532
NsS'brd_k56596360'
p533
NsS'papaverine_hydrochloride'
p534
NsS'(s)_(_)_bay_k_8644'
p535
NsS'way_170523'
p536
NsS'trastuzumab'
p537
NsS'abiraterone'
p538
NsS's1458'
p539
NsS'brd_k08316444'
p540
NsS'bl_081'
p541
NsS'mw_ras12'
p542
NsS'piclamilast'
p543
NsS'bl_009'
p544
NsS'rosiglitazone_hydrochloride'
p545
NsS'brd_k49094915'
p546
NsS'ncgc00181375_01'
p547
NsS'n_linoleoylglycine'
p548
NsS'brd_k31754360'
p549
NsS'vorinostat'
p550
NsS'adenosine_triphosphate'
p551
NsS'rlm_1_127'
p552
NsS's1035'
p553
NsS'rescinnamine'
p554
NsS's1030'
p555
NsS'artemether'
p556
NsS'ncgc00182382_01'
p557
NsS'isoeugenol'
p558
NsS'brd_k83355732'
p559
NsS'brd_a11087911'
p560
NsS'wh_4_025'
p561
NsS'ici_199_441_hydrochloride'
p562
NsS'etamivan'
p563
NsS'primidone'
p564
NsS'ikk_inhibitor_x'
p565
NsS'l_733_060_hydrochloride'
p566
NsS'miochol'
p567
NsS'mls_0425600'
p568
NsS'brd_k18749194'
p569
NsS'olmesartan_medoxomil'
p570
NsS'mls_0091943.0001'
p571
NsS'brd_k57016430'
p572
NsS'brd_k71554540'
p573
NsS'brd_k36031023'
p574
NsS'mepacrine'
p575
NsS'flurofamide'
p576
NsS'famotidine'
p577
((F1.0
S'famotidine'
p578
tp579
S"(st) matching: ratio , lcs, (key,drug) (keynorm,drugnorm 1.0 famotidine ('famotidine', 'famotidine') ('famotidine', 'famotidine')"
p580
tp581
sS'brd_k79404599'
p582
NsS'brd_k34098590'
p583
NsS'brd_k91517665'
p584
NsS'pd_0325901'
p585
NsS'brd_k17754811'
p586
NsS'diethylstilbestrol'
p587
NsS'podophyllotoxin'
p588
NsS'isopropyl_alcohol'
p589
NsS'brd_k32582686'
p590
NsS'ncgc00184937_01'
p591
NsS'vincristine'
p592
NsS'ncgc00183255_01'
p593
NsS'gsk1059615'
p594
NsS'k81592585'
p595
NsS'brd_a25337146'
p596
NsS'labetalol_hydrochloride'
p597
NsS'at_7519'
p598
NsS'actarit'
p599
NsS'resveratrol'
p600
((F1.0
S'resveratrol'
p601
tp602
S"(st) matching: ratio , lcs, (key,drug) (keynorm,drugnorm 1.0 resveratrol ('resveratrol', 'resveratrol') ('resveratrol', 'resveratrol')"
p603
tp604
sS'cimaterol'
p605
NsS'gw_843682x'
p606
NsS'brd_k08448573'
p607
NsS'fu_jmbii105b'
p608
NsS'brd_k16057611'
p609
NsS'hexachloro_13_butadiene'
p610
NsS'avermectin_b1a'
p611
NsS'rg_108'
p612
NsS'brd_k48803730'
p613
NsS'brd_k00555438'
p614
NsS'brd_a24054354'
p615
NsS'diflunisal'
p616
NsS'fu_jmbii227b'
p617
NsS'phenelzine_sulfate'
p618
NsS'brd_k98856658'
p619
NsS'ag_592'
p620
NsS'brd_a47832959'
p621
NsS'ncgc00183260_01'
p622
NsS'brd_a18411371'
p623
NsS'ncgc00161876_06'
p624
NsS'trametinib'
p625
NsS'orphenadrine_hydrochloride'
p626
NsS'as_605240'
p627
NsS'omeprazole'
p628
((F1.0
S'omeprazole'
p629
tp630
S"(st) matching: ratio , lcs, (key,drug) (keynorm,drugnorm 1.0 omeprazole ('omeprazole', 'omeprazole') ('omeprazole', 'omeprazole')"
p631
tp632
sS'ncgc00242344_01'
p633
NsS'proxyphylline'
p634
NsS'brd_k45232279'
p635
NsS'brd_k14027855'
p636
NsS'2_fluoropalmitic_acid'
p637
NsS'brd_k87573634'
p638
NsS'phorbol_12_myristate_13_acetate_(pma)'
p639
NsS'ncgc00241732_01'
p640
NsS'p233'
p641
NsS'ncgc00183388_01'
p642
NsS'pf3845'
p643
NsS'brd_k61341215'
p644
NsS'vanadium_pentoxide'
p645
NsS'mek'
p646
NsS'ym_155'
p647
NsS'brd_k93754473_(tamoxifen_citrate)'
p648
NsS'miconazole'
p649
NsS'hyoscyamine'
p650
NsS'd_serine'
p651
NsS'brd_k90999434'
p652
NsS'brd_k42543304'
p653
NsS'amoxicillin'
p654
((F1.0
S'amoxicillin'
p655
tp656
S"(st) matching: ratio , lcs, (key,drug) (keynorm,drugnorm 1.0 amoxicillin ('amoxicillin', 'amoxicillin') ('amoxicillin', 'amoxicillin')"
p657
tp658
sS'vinblastine_sulfate'
p659
NsS'kb_r7943_mesylate'
p660
NsS'brd_k37393297'
p661
NsS'brd_k97926541'
p662
NsS'ncgc00187898_02'
p663
NsS'pifithrin__?'
p664
NsS'brd_k31856043'
p665
NsS'amethopterin_(r_s)'
p666
NsS'ki20227'
p667
NsS'brd_k04676863'
p668
NsS'arg_a1_2_brd_k39580048'
p669
NsS'brd_k58547240'
p670
NsS'balsalazide'
p671
NsS'brd_a80536908'
p672
NsS'brd_k32568627'
p673
NsS'nifedipine'
p674
NsS'norketamine_hydrochloride'
p675
NsS'brd_a97833537'
p676
NsS'linolenic_acid_(18:3_n_3)'
p677
NsS'indirubin_3?_monoxime'
p678
NsS'brd_k03015355'
p679
NsS'guanethidine'
p680
NsS'brd_u51951544'
p681
NsS'haematoxylone__tetramethyl_'
p682
NsS'arsenic'
p683
NsS'lomefloxacin'
p684
NsS'tetracaine'
p685
NsS's8822'
p686
NsS'brd_k71726959'
p687
NsS'st001903'
p688
NsS'0175029_0000'
p689
NsS'brd_k63326650'
p690
NsS'xmd_892'
p691
NsS'brd_k85592362'
p692
NsS'gr_206'
p693
NsS'medroxyprogesterone'
p694
NsS'hydrocortisone_phosphate_triethylamine'
p695
NsS'brd_k42687792'
p696
NsS'y_39983'
p697
NsS'brd_a63583287'
p698
NsS'brd_a01317026'
p699
NsS'oligomycin_c'
p700
NsS'prinomastat'
p701
NsS'ticlopidine_hydrochloride'
p702
NsS'naltrindole'
p703
NsS'brd_k83194053'
p704
NsS'phenytoin'
p705
NsS'yk_4_279'
p706
NsS'pimozide'
p707
NsS'sb590885'
p708
NsS'deguelin(_)'
p709
NsS'ciclosporin'
p710
NsS'ncgc00183913_01'
p711
NsS'carbamazepine'
p712
NsS'bms_777607'
p713
NsS'pregnenolone_succinate'
p714
NsS'trioxsalen'
p715
NsS'ibuprofen'
p716
((F1.0
S'ibuprofen'
p717
tp718
S"(st) matching: ratio , lcs, (key,drug) (keynorm,drugnorm 1.0 ibuprofen ('ibuprofen', 'ibuprofen') ('ibuprofen', 'ibuprofen')"
p719
tp720
sS'methazolamide'
p721
NsS'*s'
p722
NsS'gsk_1059615'
p723
NsS'troxipide'
p724
NsS'brd_k89224880'
p725
NsS'dichlorobenzamil'
p726
NsS'brd_k28377013'
p727
NsS'brd_k33045404'
p728
NsS'piretanide'
p729
NsS'mitoxantrone_dihydrochloride'
p730
NsS'ponatinib'
p731
NsS'vecuronium_bromide'
p732
NsS'desloratadine'
p733
NsS'enzastaurin'
p734
NsS'brd_a32449311'
p735
NsS'pregnenolone'
p736
NsS'rottlerin'
p737
NsS'ncgc00167398_02'
p738
NsS'dichlorphenamide'
p739
NsS'siguazodan'
p740
NsS'd_64131'
p741
NsS'azathioprine'
p742
NsS'ascorbic_acid'
p743
((F1.0
S'ascorbic_acid'
p744
tp745
S"(st) matching: ratio , lcs, (key,drug) (keynorm,drugnorm 1.0 ascorbic_acid ('ascorbic_acid', 'ascorbic_acid') ('ascorbic_acid', 'ascorbic_acid')"
p746
tp747
sS'mls_0454435.0001'
p748
NsS'brd_k62310379_(fluticasone_propionate)'
p749
NsS'h7270'
p750
NsS'brd_k61359235'
p751
NsS'tpl2'
p752
NsS'n_n_hexamethyleneamiloride'
p753
NsS'brd_k80094086'
p754
NsS'brd_k58618158'
p755
NsS'brd_k96405393'
p756
NsS'lfm_a13'
p757
NsS'lfm_a12'
p758
NsS'unc0321'
p759
NsS'brd_k49865102'
p760
NsS'curcumin'
p761
NsS'captopril'
p762
((F1.0
S'captopril'
p763
tp764
S"(st) matching: ratio , lcs, (key,drug) (keynorm,drugnorm 1.0 captopril ('captopril', 'captopril') ('captopril', 'captopril')"
p765
tp766
sS'g5797'
p767
NsS'pd_407824'
p768
NsS'brd_a68061604'
p769
NsS'aminopurvalanol_a'
p770
NsS'12_13_eode'
p771
NsS'domperidone'
p772
NsS'ku_55933'
p773
NsS'hts_10765'
p774
NsS'jjt_705'
p775
NsS'brd_a80960055'
p776
NsS'akti_1/2'
p777
NsS'brd_a96272097'
p778
NsS'np_010914'
p779
NsS'mercuric_chloride'
p780
NsS'tyrphostin_ag_1478'
p781
NsS'closantel'
p782
NsS'bml_257'
p783
NsS'arctigenin'
p784
NsS'palbociclib'
p785
NsS'verapamil'
p786
((F1.0
S'verapamil'
p787
tp788
S"(st) matching: ratio , lcs, (key,drug) (keynorm,drugnorm 1.0 verapamil ('verapamil', 'verapamil') ('verapamil', 'verapamil')"
p789
tp790
sS'nnc_05_2090_hydrochloride'
p791
NsS'gdc_0980'
p792
NsS'bml_259'
p793
NsS'benoxinate_hydrochloride'
p794
NsS'sumatriptan'
p795
NsS'zaleplon'
p796
NsS'brd_k63979920'
p797
NsS'nvp_tae226'
p798
NsS'oxymetholone'
p799
NsS'bh3i_1'
p800
NsS'brd_a55554369'
p801
NsS'ei_335'
p802
NsS'riluzole_hydrochloride'
p803
NsS'isoconazole'
p804
NsS'ncgc00182380_01'
p805
NsS'betahistine'
p806
NsS'clorgiline'
p807
NsS'brd_a50774520'
p808
NsS'skf_77434_hydrobromide'
p809
NsS'a_769662'
p810
NsS'colorectal_adenocarcinoma'
p811
NsS'brd_k49553303'
p812
NsS'brd_k79382620'
p813
NsS'brd_k87387614'
p814
NsS'zeranol'
p815
NsS'brd_k02216544'
p816
NsS'ncgc00165289_01'
p817
NsS'raf_265'
p818
NsS'isradipine'
p819
NsS'cisplatin'
p820
NsS'brd_k06666320'
p821
NsS'naftifine'
p822
NsS'brd_k45735142'
p823
NsS'inhibitor_bec_hydrochloride'
p824
NsS'rimexolone'
p825
NsS'l_cis_diltiazem'
p826
NsS'brd_k06623064'
p827
NsS'dopamine'
p828
NsS'dequalinium_chloride'
p829
NsS'brd_k85853281'
p830
NsS'streptozotocin'
p831
NsS'ly_165_163'
p832
NsS'phenoxybenzamine'
p833
NsS'motesanib'
p834
NsS'ncgc00181918_02'
p835
NsS'ncgc00182833_01'
p836
NsS'brd_k78278890'
p837
NsS't0513_6584'
p838
NsS'gsk_1904529a'
p839
NsS'deltamethrin'
p840
NsS'oleandomycin'
p841
NsS'2_chloro_7_methoxyphenothiazine'
p842
NsS'brd_k14880289'
p843
NsS'felodipine'
p844
NsS'floxuridine'
p845
NsS'cloperastine'
p846
NsS'4_hydroxytamoxifen'
p847
NsS'brd_k72505034'
p848
NsS'jas07_005'
p849
NsS'nafenopin'
p850
NsS'procaine'
p851
NsS'jas07_003'
p852
NsS'erk_inhibitor_11e'
p853
NsS'h5902'
p854
NsS'brd_k97936712'
p855
NsS'saracatinib'
p856
NsS'zoxazolamine'
p857
NsS'brd_k14711204'
p858
NsS'rosuvastatin_calcium'
p859
NsS'carboplatin_(36_h)'
p860
NsS'brd_k13810148'
p861
NsS'brd_k06592610'
p862
NsS'brd_k53414658'
p863
NsS'cerivastatin_na'
p864
NsS'salermide'
p865
NsS'brd_a95696820'
p866
NsS'nobiletin'
p867
NsS'brd_k28916077'
p868
NsS'fk506'
p869
NsS'seneciphylline'
p870
NsS's1040'
p871
NsS'testosterone_propionate'
p872
NsS's1042'
p873
NsS'aminolevulinic_acid'
p874
NsS'ncgc00183236_01'
p875
NsS'brazilin'
p876
NsS'brd_k32501161'
p877
NsS'aldosterone'
p878
NsS'brd_k64366758'
p879
NsS'1_benzylpiperazine'
p880
NsS'pyrimethamine'
p881
NsS'brd_k41925105'
p882
NsS'interleukin_1_beta'
p883
NsS'brd_k93215584'
p884
NsS'brd_k94173926'
p885
NsS'brd_k79251086'
p886
NsS'brd_k86901264'
p887
NsS'brd_k11757396'
p888
NsS'pimethixene'
p889
NsS'brd_k15592317'
p890
NsS'zstk_474'
p891
NsS'cocaine'
p892
NsS'amcinonide'
p893
NsS's1043'
p894
NsS'ei_189'
p895
NsS'4_fluoro_n_pyridin_3_yl_benzamide'
p896
NsS'brd_a54632525'
p897
NsS'imodium'
p898
NsS'atenolol'
p899
NsS'hydroxyurea'
p900
NsS'brd_k14696368'
p901
NsS'epitestosterone'
p902
NsS's1362'
p903
NsS'aminosalicylic_acid'
p904
NsS'gangleoidin_acetate'
p905
NsS'ncgc00012821_02'
p906
NsS'skf_96365_hydrochloride'
p907
NsS'nbqx_disodium_salt'
p908
NsS'brd_k18861610'
p909
NsS'ag_014699_(pf_01367338)'
p910
NsS'brd_k19885561'
p911
NsS'brd_k18724229'
p912
NsS'lipopolysaccharide_e._coli_o55:b5'
p913
NsS'tazobactam'
p914
((F1.0
S'piperacillin_tazobactam'
p915
tp916
S"(st) matching: ratio , lcs, (key,drug) (keynorm,drugnorm 1.0 tazobactam ('tazobactam', 'piperacillin_tazobactam') ('tazobactam', 'piperacillin_tazobactam')"
p917
tp918
sS'sgi_1776'
p919
NsS'alpha_tocopherol'
p920
NsS'mefloquine'
p921
((F1.0
S'mefloquine'
p922
tp923
S"(st) matching: ratio , lcs, (key,drug) (keynorm,drugnorm 1.0 mefloquine ('mefloquine', 'mefloquine') ('mefloquine', 'mefloquine')"
p924
tp925
sS'tenidap'
p926
NsS'brd_k81609421'
p927
NsS'brd_k13580623'
p928
NsS'erythro'
p929
NsS'stock2s_51049'
p930
NsS'brd_a39121618'
p931
NsS'fenofibrate'
p932
NsS'benzoic_acid'
p933
NsS'diloxanide_furoate'
p934
NsS'geraniol'
p935
NsS'dihydro_beta_tubaic_acid'
p936
NsS'ncgc00241069_01'
p937
NsS'cdk2/5_inhibitor'
p938
NsS'lipopolysaccharide_(lps)'
p939
NsS'gr_237'
p940
NsS'brd_k65366129'
p941
NsS'brd_k83691318'
p942
NsS'cyt387'
p943
NsS'brd_k20168484'
p944
NsS'mls_0425618'
p945
NsS'leptin'
p946
NsS'gallamine_triethiodide'
p947
NsS'artemisinin'
p948
((F1.0
S'artemisinin'
p949
tp950
S"(st) matching: ratio , lcs, (key,drug) (keynorm,drugnorm 1.0 artemisinin ('artemisinin', 'artemisinin') ('artemisinin', 'artemisinin')"
p951
tp952
sS'akt_inhibitor_x'
p953
NsS'ncgc00188488_01'
p954
NsS'ncgc00188714_01'
p955
NsS'ncgc00184834_01'
p956
NsS'33_5_triiodo_l_thyronine'
p957
NsS'betamethasone_17_21_dipropionate'
p958
NsS'brd_k35483542'
p959
NsS'equilin'
p960
NsS'tws_119'
p961
NsS'ncgc00167097_01'
p962
NsS'ppt'
p963
NsS'jw_7_24_1'
p964
NsS'939792_14_0'
p965
NsS'n_[2_(piperidinylamino)ethyl]_4_iodobenzamide'
p966
NsS'formoterol_hemifumarate'
p967
NsS'nitrofurazone'
p968
NsS'colchicine'
p969
((F1.0
S'colchicine'
p970
tp971
S"(st) matching: ratio , lcs, (key,drug) (keynorm,drugnorm 1.0 colchicine ('colchicine', 'colchicine') ('colchicine', 'colchicine')"
p972
tp973
sS'6_mercaptopurine'
p974
NsS'brd_k59705555'
p975
NsS'brd_k72451865'
p976
NsS'sulfadimethoxine'
p977
NsS'ac_1133'
p978
NsS'brd_k39232234'
p979
NsS'bms_536924'
p980
NsS'rolipram'
p981
NsS'ranitidine_hydrochloride'
p982
NsS'ncgc00181381_01'
p983
NsS'ly_294002'
p984
NsS'brd_a98444709'
p985
NsS'f3103_0039'
p986
NsS'brd_k94991378'
p987
NsS'mephentermine'
p988
NsS'homatropine_bromide'
p989
NsS'amodiaquin_dihydrochloride_dihydrate'
p990
NsS'alendronic_acid'
p991
NsS'hy_10181'
p992
NsS'pp3'
p993
NsS'brd_a93015352'
p994
NsS'desipramine'
p995
NsS'vx_680'
p996
NsS'emetine_dihydrochloride_hydrate_(74)'
p997
NsS'rituximab'
p998
NsS'14_dichlorobenzene'
p999
NsS'brd_k88198340'
p1000
NsS'brd_k63239300'
p1001
NsS'docetaxel'
p1002
NsS'sutent'
p1003
NsS'brd_k37194137'
p1004
NsS'trichloroacetic_acid'
p1005
NsS't5345967'
p1006
NsS'safrole'
p1007
NsS't542500'
p1008
NsS'tracazolate_hydrochloride'
p1009
NsS'brd_k74840245'
p1010
NsS'ly_163_502'
p1011
NsS'brd_k85275009'
p1012
NsS'mln4924'
p1013
NsS'lomatin'
p1014
NsS'ei_195'
p1015
NsS'brd_k48950795'
p1016
NsS'brd_k94248251'
p1017
NsS'as605240'
p1018
NsS'brd_k57457519'
p1019
NsS'nnc_26_9100'
p1020
NsS'aminogenistein'
p1021
NsS'fgin_1_27'
p1022
NsS'mmpx'
p1023
NsS'brd_a01973626'
p1024
NsS'dacomitinib'
p1025
NsS'brd_k88784410'
p1026
NsS'ncgc00182388_01'
p1027
NsS'obaa'
p1028
NsS'megestrol_acetate'
p1029
NsS'km03472sc'
p1030
NsS'brd_k45031696'
p1031
NsS's_8599'
p1032
NsS'diltiazem_hydrochloride'
p1033
((F1.0
S'diltiazem'
p1034
tp1035
S"Suffix-based-exact-matching ('diltiazem hydrochloride', 'diltiazem') ('diltiazem_hydrochloride', 'diltiazem')"
p1036
tp1037
sS'brd_k28789065'
p1038
NsS'jw55'
p1039
NsS'kin001_127'
p1040
NsS'brd_k52678950'
p1041
NsS'methyl_benzethonium_chloride'
p1042
NsS'osi_906'
p1043
NsS'oxyphenbutazone'
p1044
NsS'ifn_alphacon1'
p1045
NsS'brd_k05520923'
p1046
NsS'pracinostat'
p1047
NsS'brd_a41250203'
p1048
NsS'clenbuterol'
p1049
NsS'brd_k96621343'
p1050
NsS'brd_k98079119'
p1051
NsS'brd_k99146421'
p1052
NsS'pyrazolanthrone'
p1053
NsS'dup_697'
p1054
NsS'disulfiram'
p1055
NsS'brd_k54256913'
p1056
NsS'unc1215'
p1057
NsS'ncgc00238427_01'
p1058
NsS'ncgc00183409_01'
p1059
NsS'phenolphthalein'
p1060
NsS'ibudilast'
p1061
((F1.0
S'ibudilast'
p1062
tp1063
S"(st) matching: ratio , lcs, (key,drug) (keynorm,drugnorm 1.0 ibudilast ('ibudilast', 'ibudilast') ('ibudilast', 'ibudilast')"
p1064
tp1065
sS'brd_k17140735'
p1066
NsS'methylergometrine_maleate'
p1067
NsS'mitoxantrone'
p1068
NsS'nitrendipine'
p1069
NsS'brd_k19410523'
p1070
NsS'brd_k12238169'
p1071
NsS'l_165_041'
p1072
NsS'clofibrate'
p1073
NsS'brd_k76691125'
p1074
NsS'brd_k06405410'
p1075
NsS'brd_k74931283'
p1076
NsS'brd_k60218670'
p1077
NsS'penciclovir'
p1078
NsS'vanoxerine'
p1079
NsS'didanosine'
p1080
NsS'a443654'
p1081
NsS'brd_k18059480'
p1082
NsS'brd_k01578344'
p1083
NsS'tamoxifen'
p1084
((F1.0
S'tamoxifen'
p1085
tp1086
S"(st) matching: ratio , lcs, (key,drug) (keynorm,drugnorm 1.0 tamoxifen ('tamoxifen', 'tamoxifen') ('tamoxifen', 'tamoxifen')"
p1087
tp1088
sS'halcinonide'
p1089
NsS'brd_k49010888'
p1090
NsS'lubiprostone'
p1091
NsS'benzothiazyl_disulfide'
p1092
NsS'modafinil'
p1093
NsS'thiethylperazine_dimalate'
p1094
NsS'uk_356618'
p1095
NsS'np_007374'
p1096
NsS'spiperone'
p1097
NsS'cvf_csc_7_brd_a32595718'
p1098
NsS'ast1306'
p1099
NsS'paroxetine_hydrochloride'
p1100
NsS'brd_k53566850'
p1101
NsS'brd_k06765193'
p1102
NsS'byl719'
p1103
NsS'laminin'
p1104
NsS'phalloidin'
p1105
NsS'gavestinel'
p1106
NsS'tgx_221'
p1107
NsS'brd_u82589721'
p1108
NsS'paraquat_dichloride'
p1109
NsS'cinanserin'
p1110
NsS'brd_k36055864_(cycloheximide)'
p1111
NsS'brd_k45278408'
p1112
NsS'bupropion_hydrochloride'
p1113
NsS'brd_k91047982'
p1114
NsS'ethinyl_estradiol'
p1115
NsS'bisacodyl'
p1116
NsS'api_2'
p1117
NsS'ncgc00181061_03'
p1118
NsS'brd_k75128590'
p1119
NsS'brd_a32214171'
p1120
NsS'brd_k03829970'
p1121
NsS's1297'
p1122
NsS's4002'
p1123
NsS'brd_a72837804'
p1124
NsS'cholecalciferol'
p1125
((F1.0
S'cholecalciferol'
p1126
tp1127
S"(st) matching: ratio , lcs, (key,drug) (keynorm,drugnorm 1.0 cholecalciferol ('cholecalciferol', 'cholecalciferol') ('cholecalciferol', 'cholecalciferol')"
p1128
tp1129
sS'brd_k78549347'
p1130
NsS'ginsenoside_rc'
p1131
NsS'brd_k72161580'
p1132
NsS'brd_a89049230'
p1133
NsS'brd_k44510578'
p1134
NsS'ncgc00238447_01'
p1135
NsS'ncgc00182390_01'
p1136
NsS'brd_k78189262'
p1137
NsS'brd_k37865504'
p1138
NsS'brd_a94793051'
p1139
NsS'ns_1619'
p1140
NsS'parbendazole'
p1141
NsS'zk_164015'
p1142
NsS'sodium_pyruvate'
p1143
NsS'ranolazine'
p1144
NsS'mls_0390826'
p1145
NsS'ethylestrenol'
p1146
NsS'brd_k91134378'
p1147
NsS'remacemide_hydrochloride'
p1148
NsS'ei_293'
p1149
NsS'dorsomorphin_dihydrochloride'
p1150
NsS'rs_17053_hydrochloride'
p1151
NsS'isocarboxazid'
p1152
NsS'brd_k97701319'
p1153
NsS'brd_k63399564'
p1154
NsS'ag_82'
p1155
NsS'brd_k19220233'
p1156
NsS'plx_4720'
p1157
NsS'lapatinib'
p1158
NsS'ncgc00182837_01'
p1159
NsS'brd_a62809825'
p1160
NsS'homochlorcyclizine_dihydrochloride'
p1161
NsS'd_limonene'
p1162
NsS'ncgc00241726_01'
p1163
NsS'hy_10344'
p1164
NsS'6_azauridine'
p1165
NsS'pentylenetetrazole'
p1166
NsS'mw_a1_12'
p1167
NsS'a32595718'
p1168
NsS'brd_k63350243'
p1169
NsS'diphenidol'
p1170
NsS'mephentermine_sulfate'
p1171
NsS'brd_k77547920'
p1172
NsS'iniparib'
p1173
NsS'5255229'
p1174
NsS'brd_k61496577_(flumethasone)'
p1175
NsS'isoxsuprine_hydrochloride'
p1176
NsS'brefeldin_a'
p1177
NsS'5286656'
p1178
NsS'hy_50877'
p1179
NsS'kuc104139_kuc104139n'
p1180
NsS'brd_k16533489'
p1181
NsS'brd_k80786583'
p1182
NsS'np_004102'
p1183
NsS'hy_50878'
p1184
NsS'16_6491)'
p1185
NsS'duloxetine_hydrochloride'
p1186
NsS'triptolide'
p1187
NsS's1057'
p1188
NsS'mesoridazine_besylate'
p1189
NsS'brd_k89156937'
p1190
NsS'stock1s_53863'
p1191
NsS'mls_0146291.0001'
p1192
NsS'fenbufen'
p1193
NsS'capsazepine'
p1194
NsS'brd_k51791390'
p1195
NsS'lde225_(nvp_lde225)'
p1196
NsS'leflunomide'
p1197
((F1.0
S'leflunomide'
p1198
tp1199
S"(st) matching: ratio , lcs, (key,drug) (keynorm,drugnorm 1.0 leflunomide ('leflunomide', 'leflunomide') ('leflunomide', 'leflunomide')"
p1200
tp1201
sS's_250'
p1202
NsS'ursolic_acid'
p1203
NsS'hydrocortisone_valerate'
p1204
NsS'pyrilamine'
p1205
NsS'foretinib'
p1206
NsS'ethinylestradiol'
p1207
NsS'cyproheptadine_hydrochloride'
p1208
NsS'brd_k68548958'
p1209
NsS'kirromycin'
p1210
NsS'triclosan'
p1211
NsS'brd_a10330754'
p1212
NsS'fluphenazine_dihydrochloride'
p1213
NsS'baccatin_iii'
p1214
NsS'brd_k75418381'
p1215
NsS't5835550'
p1216
NsS'leoidin_dimethyl_ether'
p1217
NsS'brd_k67977190'
p1218
NsS'salmeterol'
p1219
NsS'loteprednol'
p1220
NsS'myrtecaine'
p1221
NsS'ivermectin'
p1222
((F1.0
S'ivermectin'
p1223
tp1224
S"(st) matching: ratio , lcs, (key,drug) (keynorm,drugnorm 1.0 ivermectin ('ivermectin', 'ivermectin') ('ivermectin', 'ivermectin')"
p1225
tp1226
sS'calycanthine'
p1227
NsS'genistin'
p1228
NsS'le_135'
p1229
NsS'brd_k98173387'
p1230
NsS'bml_st330'
p1231
NsS'anisomycin'
p1232
NsS's1028'
p1233
NsS'pf_562271'
p1234
NsS'r2146'
p1235
NsS'vigabatrin'
p1236
NsS'brd_k23931216'
p1237
NsS'chrysene_1_4_quinone'
p1238
NsS'am_404'
p1239
NsS'veliparib'
p1240
NsS'k01877528'
p1241
NsS'brd_k95673125'
p1242
NsS'iloprost'
p1243
((F1.0
S'iloprost'
p1244
tp1245
S"(st) matching: ratio , lcs, (key,drug) (keynorm,drugnorm 1.0 iloprost ('iloprost', 'iloprost') ('iloprost', 'iloprost')"
p1246
tp1247
sS'brd_k06750613'
p1248
NsS'ischemin'
p1249
NsS'emetine'
p1250
NsS'metixene'
p1251
NsS'aspirin'
p1252
((F1.0
S'aspirin'
p1253
tp1254
S"(st) matching: ratio , lcs, (key,drug) (keynorm,drugnorm 1.0 aspirin ('aspirin', 'aspirin') ('aspirin', 'aspirin')"
p1255
tp1256
sS'ag_555'
p1257
NsS'heparin'
p1258
((F1.0
S'unfractionated_heparin'
p1259
tp1260
S"(st) matching: ratio , lcs, (key,drug) (keynorm,drugnorm 1.0 heparin ('heparin', 'unfractionated_heparin') ('heparin', 'unfractionated_heparin')"
p1261
tp1262
sS'ag_556'
p1263
NsS'daunorubicin_hydrochloride'
p1264
NsS'brd_k53308430'
p1265
NsS'metaproterenol'
p1266
NsS'fluorometholone'
p1267
NsS'brd_k60067222'
p1268
NsS'atarax'
p1269
NsS'l_701_324'
p1270
NsS'idarubicin_hcl'
p1271
NsS'brd_k05977823'
p1272
NsS'brd_k04534322'
p1273
NsS'brd_a06641369'
p1274
NsS'ncgc00166395_02'
p1275
NsS'brd_k57309821'
p1276
NsS'ketanserin_tartrate_hydrate'
p1277
NsS'ncgc00184830_01'
p1278
NsS'kf_38789'
p1279
NsS'tl_hras24_brd_k93060291'
p1280
NsS'brd_k60297835'
p1281
NsS'pf_750'
p1282
NsS'brd_k33182644'
p1283
NsS'brd_a90643929'
p1284
NsS'procaterol_hydrochloride'
p1285
NsS'ritodrine'
p1286
NsS'ac_1121'
p1287
NsS'ampiroxicam'
p1288
NsS'medroxyprogesterone_17_acetate'
p1289
NsS'brd_k51998148'
p1290
NsS'bepridil'
p1291
NsS'pinacidil'
p1292
NsS'metoprolol'
p1293
NsS'brd_k18163752'
p1294
NsS'brd_u86922168'
p1295
NsS'brd_k64606589'
p1296
NsS'brd_k00430421'
p1297
NsS'neca'
p1298
NsS'brd_k21786893'
p1299
NsS'dg_041'
p1300
NsS'titanium_dioxide'
p1301
NsS'tolfenamic_acid'
p1302
NsS'mocetinostat'
p1303
NsS'prunetin'
p1304
NsS'atorvastatin'
p1305
((F1.0
S'atorvastatin'
p1306
tp1307
S"(st) matching: ratio , lcs, (key,drug) (keynorm,drugnorm 1.0 atorvastatin ('atorvastatin', 'atorvastatin') ('atorvastatin', 'atorvastatin')"
p1308
tp1309
sS'apigenin'
p1310
NsS'fulvestrant'
p1311
NsS'proscillaridin'
p1312
NsS'brd_k86472598'
p1313
NsS'brd_k00541156'
p1314
NsS'brd_k09997269'
p1315
NsS'brd_k74690444'
p1316
NsS'ncgc00182362_01'
p1317
NsS'brd_k35004659'
p1318
NsS'palmitic_acid'
p1319
NsS'warfarin'
p1320
NsS'brd_a20589515'
p1321
NsS'norethindrone_acetate'
p1322
NsS'pj_34_hydrochloride'
p1323
NsS'hli_373'
p1324
NsS'mls_0216981'
p1325
NsS'brd_k55502647'
p1326
NsS'oxaliplatin'
p1327
NsS'stock2s_79598'
p1328
NsS'thiabendazole'
p1329
NsS't5323840'
p1330
NsS'e0886'
p1331
NsS'brd_k99311057'
p1332
NsS'bis(2_ethylhexyl)phthalate'
p1333
NsS'wye_125132'
p1334
NsS'jte_907'
p1335
NsS'brd_k89626439'
p1336
NsS'n_chlorophenyl_n_hexylpiperazine'
p1337
NsS'brd_a18763547'
p1338
NsS'pyridine'
p1339
NsS'7821'
p1340
NsS'ncgc00241426_02'
p1341
NsS'pbde_47_cid'
p1342
NsS'su_11274'
p1343
NsS'ebpc'
p1344
NsS'estropipate'
p1345
NsS'brd_k02641134'
p1346
NsS'ncgc00185094_01'
p1347
NsS'bix_02189'
p1348
NsS'aloisine'
p1349
NsS'brd_k70229243'
p1350
NsS'bromodichloromethane'
p1351
NsS'ag_957'
p1352
NsS'brd_k35429092'
p1353
NsS'deta_nonoate'
p1354
NsS'pelitinib'
p1355
NsS'bms_345541'
p1356
NsS'cytochalasin_b'
p1357
NsS'ncgc00184713_01'
p1358
NsS'osi_930'
p1359
NsS'dipropyldopamine'
p1360
NsS'tiapride'
p1361
NsS'vancomycin'
p1362
NsS'brd_k70748405'
p1363
NsS'brd_a69429454'
p1364
NsS'brd_k33116223'
p1365
NsS'mianserin'
p1366
NsS'quinidine_gluconate'
p1367
NsS'brd_k35638681'
p1368
NsS'troleandomycin'
p1369
NsS'ncgc00188324_02'
p1370
NsS'sar_245408'
p1371
NsS'naproxol'
p1372
NsS'dipyridamole'
p1373
((F1.0
S'dipyridamole'
p1374
tp1375
S"(st) matching: ratio , lcs, (key,drug) (keynorm,drugnorm 1.0 dipyridamole ('dipyridamole', 'dipyridamole') ('dipyridamole', 'dipyridamole')"
p1376
tp1377
sS'stock1n_35215'
p1378
NsS'digitonin'
p1379
NsS'e933505'
p1380
NsS'abamectin'
p1381
NsS'1495_0136'
p1382
NsS'd0196'
p1383
NsS'vinpocetine'
p1384
NsS'brd_k71199328'
p1385
NsS'brd_k76042595'
p1386
NsS'pt_630'
p1387
NsS'oxaprozin'
p1388
NsS'triamterene'
p1389
NsS'pindolol'
p1390
NsS'brd_k23582869'
p1391
NsS'fostamatinib'
p1392
NsS'brd_k56593336'
p1393
NsS'bezafibrate'
p1394
NsS'brd_k08307026'
p1395
NsS'diflorasone_diacetate'
p1396
NsS'aceclidine_hydrochloride'
p1397
NsS'methoprene_acid'
p1398
NsS'brd_k37124285'
p1399
NsS'clioquinol'
p1400
NsS'gw_5074'
p1401
NsS'teniposide'
p1402
NsS'monensin'
p1403
NsS'brd_k57353465'
p1404
NsS'ezetimibe'
p1405
NsS'hts_12526'
p1406
NsS'brd_k20514654'
p1407
NsS'na_tosyl_phe_chloromethyl_ketone'
p1408
NsS'sb_202190'
p1409
NsS'eicosatrienoic_acid_(20:3_n_3)'
p1410
NsS'brd_k64985742'
p1411
NsS'r(_)_2_10_11_trihydroxy_n_propyl_noraporphine'
p1412
NsS'thioguanosine'
p1413
NsS'clotrimazole'
p1414
NsS'brd_k86899078'
p1415
NsS's1154'
p1416
NsS'brd_k97534490'
p1417
NsS'puromycin_'
p1418
NsS'44__methylenedianiline'
p1419
NsS'paclitaxel'
p1420
NsS'c8273'
p1421
NsS'osi_027'
p1422
NsS'cyclopiazonic_acid'
p1423
NsS'mls_0315803'
p1424
NsS'butoconazole'
p1425
NsS'dinaciclib'
p1426
NsS'mirtazepine'
p1427
NsS'hydrogen_peroxide'
p1428
NsS'vitamin_d3'
p1429
((F1.0
S'25_hydroxyvitamin_d3'
p1430
tp1431
S"(st) matching: ratio , lcs, (key,drug) (keynorm,drugnorm 1.0 vitamin_d3 ('Vitamin_D3', '25_hydroxyvitamin_d3') ('vitamin_d3', '25_hydroxyvitamin_d3')"
p1432
tp1433
sS'tozasertib'
p1434
NsS'quipazine'
p1435
NsS'hoechst__33342_(cell_permeable)_(bisbenzimide)'
p1436
NsS's1266'
p1437
NsS'ruxolitinib'
p1438
((F1.0
S'ruxolitinib'
p1439
tp1440
S"(st) matching: ratio , lcs, (key,drug) (keynorm,drugnorm 1.0 ruxolitinib ('ruxolitinib', 'ruxolitinib') ('ruxolitinib', 'ruxolitinib')"
p1441
tp1442
sS'bibu_1361_dihydrochloride'
p1443
NsS'st4029573'
p1444
NsS'brd_k72883421'
p1445
NsS'famciclovir'
p1446
NsS'brd_u44700465'
p1447
NsS'sb_216763'
p1448
NsS'brd_k74711637'
p1449
NsS'brd_k93127801'
p1450
NsS'ribavirin'
p1451
((F1.0
S'ribavirin'
p1452
tp1453
S"(st) matching: ratio , lcs, (key,drug) (keynorm,drugnorm 1.0 ribavirin ('ribavirin', 'ribavirin') ('ribavirin', 'ribavirin')"
p1454
tp1455
sS'vu0415108_1'
p1456
NsS'ei_286'
p1457
NsS'betulinic_acid'
p1458
NsS'pravastatin'
p1459
NsS'glycopyrrolate'
p1460
NsS'benzyl_acetate'
p1461
NsS'rho_kinase_inhibitor_iii_[rockout]'
p1462
NsS'xaliproden_hydrochloride'
p1463
NsS'lmp_420'
p1464
NsS'brd_k31342827'
p1465
NsS'naltrexone_hydrochloride'
p1466
((F1.0
S'naltrexone'
p1467
tp1468
S"Suffix-based-exact-matching ('naltrexone hydrochloride', 'naltrexone') ('naltrexone_hydrochloride', 'naltrexone')"
p1469
tp1470
sS'pf_3758309'
p1471
NsS'brd_k87964538'
p1472
NsS'brd_k50384076'
p1473
NsS'meptazinol_hydrochloride'
p1474
NsS'brd_k80348542'
p1475
NsS'azd_8055'
p1476
NsS'rifapentine'
p1477
NsS'brd_k43226598'
p1478
NsS'malonoben'
p1479
NsS'brd_k46692335'
p1480
NsS'bleomycin_a2'
p1481
NsS'tgf_beta_1_human_recombinant'
p1482
NsS'k05563014'
p1483
NsS'loratadine'
p1484
NsS'metolazone'
p1485
NsS'brd_a74771556'
p1486
NsS'ly_288513'
p1487
NsS'hy_13001'
p1488
NsS'brd_k87426499'
p1489
NsS'priscoline'
p1490
NsS'p1075'
p1491
NsS'brd_k40300908'
p1492
NsS'nimetazepam'
p1493
NsS'clocortolone_pivalate'
p1494
NsS'oxandrolone'
p1495
NsS'a8674'
p1496
NsS'monastrol'
p1497
NsS'sb_525334'
p1498
NsS'p0030'
p1499
NsS'dihydroergocristine_mesylate'
p1500
NsS'gw_4064'
p1501
NsS'ncgc00242364_01'
p1502
NsS'mevastatin'
p1503
NsS'imperatorin'
p1504
NsS'brd_k78633253'
p1505
NsS'purmorphamine'
p1506
NsS'brd_k21773564'
p1507
NsS'gsk_1070916'
p1508
NsS's1085'
p1509
NsS's1084'
p1510
NsS'remoxipride_hydrochloride'
p1511
NsS's1080'
p1512
NsS'ncgc00182357_01'
p1513
NsS'rythmol'
p1514
NsS'ncgc00185984_01'
p1515
NsS'doxepin_hydrochloride'
p1516
NsS'eriodyctol'
p1517
NsS'importazole'
p1518
NsS'nvp_bez235'
p1519
NsS'ionomycin'
p1520
NsS'tribenoside'
p1521
NsS'bromfenac'
p1522
NsS'ncgc00182392_01'
p1523
NsS'triprolidine'
p1524
NsS'brd_u88878891'
p1525
NsS'pyrogallol'
p1526
NsS'brd_k16541732'
p1527
NsS'st056792'
p1528
NsS'oxybenzone'
p1529
NsS'5_aminosalicylic_acid'
p1530
NsS'mefenamic_acid'
p1531
NsS'oxiconazole'
p1532
NsS'indole_3_carbinol'
p1533
NsS'brd_k34974324'
p1534
NsS'brd_k69888333'
p1535
NsS'brd_k05649647'
p1536
NsS'ter14687'
p1537
NsS'ncgc00182364_01'
p1538
NsS'brd_k31484631'
p1539
NsS'formaldehyde'
p1540
NsS'homoharringtonine'
p1541
NsS'brd_k55844427'
p1542
NsS'morphine'
p1543
NsS'citric_acid'
p1544
NsS'k01121114'
p1545
NsS'isoliquiritigenin'
p1546
NsS'brd_k16947188'
p1547
NsS'brd_k25144184'
p1548
NsS'brd_k67742177'
p1549
NsS'nitazoxanide'
p1550
((F1.0
S'nitazoxanide'
p1551
tp1552
S"(st) matching: ratio , lcs, (key,drug) (keynorm,drugnorm 1.0 nitazoxanide ('nitazoxanide', 'nitazoxanide') ('nitazoxanide', 'nitazoxanide')"
p1553
tp1554
sS'brd_k92754162'
p1555
NsS'hexachlorophene'
p1556
NsS'fomepizole'
p1557
NsS'brd_k82732294'
p1558
NsS'brd_a61825514'
p1559
NsS'brd_a10523515'
p1560
NsS'cc_401'
p1561
NsS'flumazenil'
p1562
NsS'brd_k53780220'
p1563
NsS'brd_a81282034'
p1564
NsS'phenobarbital'
p1565
NsS'bms_754807'
p1566
NsS'terbutaline'
p1567
NsS'fananserin'
p1568
NsS'brd_a75409952_(wortmannin)'
p1569
NsS'norethindrone'
p1570
NsS'irbesartan'
p1571
NsS'brd_k55071917'
p1572
NsS'sulfadoxine'
p1573
NsS'brd_k63511615'
p1574
NsS'brd_k91677732'
p1575
NsS'tg_101348'
p1576
NsS'isoniazid'
p1577
NsS'brd_k02920722'
p1578
NsS'myricetin'
p1579
NsS'levofloxacin'
p1580
((F1.0
S'levofloxacin'
p1581
tp1582
S"(st) matching: ratio , lcs, (key,drug) (keynorm,drugnorm 1.0 levofloxacin ('levofloxacin', 'levofloxacin') ('levofloxacin', 'levofloxacin')"
p1583
tp1584
sS'5253409'
p1585
NsS'brd_k00551481'
p1586
NsS'12k_516s'
p1587
NsS'nornicotine'
p1588
NsS'oxibendazole'
p1589
NsS'lorazepam'
p1590
NsS'amantadine'
p1591
NsS'trans_platinum(ii)diammine_dichloride'
p1592
NsS'btb06091sc'
p1593
NsS'1_25_dihydroxyvitamin_d'
p1594
NsS'ct_200783'
p1595
NsS'securinine'
p1596
NsS'cicloheximide'
p1597
NsS'brd_k46373671'
p1598
NsS'agk_2'
p1599
NsS'stavudine'
p1600
NsS'brd_k04363266'
p1601
NsS'enzalutamide'
p1602
NsS'brd_k95895342'
p1603
NsS'solanine_alpha'
p1604
NsS'gr_231'
p1605
NsS'alaproclate'
p1606
NsS'prothionamide'
p1607
NsS'gr_236'
p1608
NsS'gr_235'
p1609
NsS'gr_239'
p1610
NsS'stock4s_72743'
p1611
NsS'brd_k20401833'
p1612
NsS'sb_203580'
p1613
NsS'thalidomide'
p1614
((F1.0
S'thalidomide'
p1615
tp1616
S"(st) matching: ratio , lcs, (key,drug) (keynorm,drugnorm 1.0 thalidomide ('thalidomide', 'thalidomide') ('thalidomide', 'thalidomide')"
p1617
tp1618
sS'linoleamide'
p1619
NsS'brd_k66555411'
p1620
NsS'glipizide'
p1621
NsS'ncgc00182353_01'
p1622
NsS'homatropine_hydrobromide_(r_s)'
p1623
NsS'brd_a40431293'
p1624
NsS'aflatoxin_b1'
p1625
NsS'halometasone'
p1626
NsS'methoxamine_hydrochloride'
p1627
NsS'endecaphyllin_x'
p1628
NsS'promazine'
p1629
NsS'5_nonyloxytryptamine'
p1630
NsS'graveoline'
p1631
NsS'brd_k22630935'
p1632
NsS'isoquercitrin'
p1633
NsS'brd_k23644387'
p1634
NsS'brd_k33164466'
p1635
NsS'acemetacin'
p1636
NsS'brd_k77690805'
p1637
NsS'brd_k58347372'
p1638
NsS'dmeob'
p1639
NsS'vemurafenib'
p1640
NsS'ncgc00183247_01'
p1641
NsS'butein'
p1642
NsS'brd_k53579868'
p1643
NsS'gmx_1778'
p1644
NsS'all_trans_retinoic_acid'
p1645
NsS's1260'
p1646
NsS'genistein'
p1647
NsS'brd_k70714754'
p1648
NsS'2_3_7_8_tetrachlorodibenzo_p_dioxin_(tcdd)'
p1649
NsS'brd_k52075040'
p1650
NsS'rs_67506_hydrochloride'
p1651
NsS'tyrphostin_b44_(_)'
p1652
NsS'losartan_potassium'
p1653
((F1.0
S'losartan'
p1654
tp1655
S"Suffix-based-exact-matching ('losartan potassium', 'losartan') ('losartan_potassium', 'losartan')"
p1656
tp1657
sS'ncgc00185090_03'
p1658
NsS'methapyrilene'
p1659
NsS'alfaxalone'
p1660
NsS'stk661558'
p1661
NsS'brd_k96076993'
p1662
NsS'nortriptyline_hydrochloride'
p1663
NsS't_98475'
p1664
NsS'carboplatin_(30_h)'
p1665
NsS'tacrine'
p1666
NsS'cay10594'
p1667
NsS'triflupromazine_hydrochloride'
p1668
NsS'rpi_1'
p1669
NsS'spb02303'
p1670
NsS'raltitrexed'
p1671
NsS'brd_k66426634'
p1672
NsS'enalapril'
p1673
NsS'nateglinide'
p1674
NsS'ly2603618'
p1675
NsS'wz_4002'
p1676
NsS'olvanil'
p1677
NsS'cyclandelate'
p1678
NsS'ehna'
p1679
NsS'brd_k38634661'
p1680
NsS'caffeic_acid_phenethyl_ester'
p1681
NsS'brd_k70831943'
p1682
NsS'benzo[a]pyrene'
p1683
NsS'wiskostatin'
p1684
NsS'brd_k98381590'
p1685
NsS'idebenone'
p1686
NsS'mestinon'
p1687
NsS'brd_a48631911'
p1688
NsS'irinotecan_hydrochloride_trihydrate'
p1689
NsS'nicardipine_hydrochloride'
p1690
NsS'd5816'
p1691
NsS'promyelocytic_leukemia'
p1692
NsS'brd_k32827536'
p1693
NsS'torsemide'
p1694
NsS'wortmannin'
p1695
NsS'17_methyltestosterone'
p1696
NsS'scopolamine_hydrobromide'
p1697
NsS'sarmentogenin'
p1698
NsS'brd_k60219430'
p1699
NsS'ftorafur'
p1700
NsS'sib_1893'
p1701
NsS'afatinib'
p1702
NsS'practolol'
p1703
NsS'proscillaridin_a'
p1704
NsS'brd_k10143126'
p1705
NsS'mw_a1_14_brd_k32010074'
p1706
NsS'cantharidin'
p1707
NsS'interferon_&icirc'
p1708
NsS'brd_k05593511'
p1709
NsS'4_chloroaniline'
p1710
NsS'trapidil'
p1711
NsS'trichloroethane'
p1712
NsS'brd_k14788918'
p1713
NsS'ncgc00183216_01'
p1714
NsS'brd_a12409803'
p1715
NsS'benzthiazide'
p1716
NsS'methylene_blue'
p1717
NsS'cephalexin'
p1718
NsS'ml_3163'
p1719
NsS'brd_k41845021'
p1720
NsS'l_690_330'
p1721
NsS'bx_912'
p1722
NsS'rutin'
p1723
NsS'brd_k73261812'
p1724
NsS'carboplatin'
p1725
NsS'brd_k11362964'
p1726
NsS'venlafaxine'
p1727
NsS'tremulacin'
p1728
NsS'brd_k81813927'
p1729
NsS'tgx_115'
p1730
NsS'ncgc00165188_01'
p1731
NsS'amlodipine_besylate'
p1732
NsS'brd_a31312900'
p1733
NsS'brd_k18761689'
p1734
NsS'methysergide_maleate'
p1735
NsS'ei_273'
p1736
NsS'brd_k53987746'
p1737
NsS'trichloroethylene'
p1738
NsS'hemado'
p1739
NsS'amiloride_hydrochloride_dihydrate'
p1740
NsS'brd_k88542532'
p1741
NsS'npc_15199'
p1742
NsS'dapsone'
p1743
NsS'brd_k34968258'
p1744
NsS'metixene_hydrochloride'
p1745
NsS'brd_k61105081'
p1746
NsS'brd_u86222656'
p1747
NsS'tropisetron_hcl'
p1748
NsS'stannous_fluoride'
p1749
NsS'alfuzosin'
p1750
NsS'mepenzolate'
p1751
NsS't7765'
p1752
NsS'brd_k06436323'
p1753
NsS'cigarette_smoke'
p1754
NsS'qs_11'
p1755
NsS'brd_k71926323'
p1756
NsS'levomepromazine'
p1757
NsS'brd_k84450674'
p1758
NsS'brd_k64642496'
p1759
NsS'tetrindole_mesylate'
p1760
NsS'brd_k79619196'
p1761
NsS'ascorbyl_2_phosphate'
p1762
NsS'cct_018159'
p1763
NsS'mls_0351065'
p1764
NsS'mls_0390979'
p1765
NsS'brd_k82971429'
p1766
NsS'brd_k14236372'
p1767
NsS'ncgc00238548_02'
p1768
NsS'0446110.0001'
p1769
NsS'brd_k89546934'
p1770
NsS'c3930'
p1771
NsS'brd_k32737443'
p1772
NsS'pnu_74654'
p1773
NsS'deprenalin'
p1774
NsS'mometasone'
p1775
NsS'entinostat'
p1776
NsS'desoximetasone'
p1777
NsS'brd_k96704648'
p1778
NsS'brd_k21672423'
p1779
NsS'w_13_hydrochloride'
p1780
NsS'pioglitazone'
p1781
((F1.0
S'pioglitazone'
p1782
tp1783
S"(st) matching: ratio , lcs, (key,drug) (keynorm,drugnorm 1.0 pioglitazone ('pioglitazone', 'pioglitazone') ('pioglitazone', 'pioglitazone')"
p1784
tp1785
sS'brd_k15107389'
p1786
NsS'citalopram_hydrobromide'
p1787
NsS'brd_k14328427'
p1788
NsS'acrolein'
p1789
NsS'thm_i_94'
p1790
NsS'2378_tetrachlorodibenzo_p_dioxin'
p1791
NsS'stanozolol'
p1792
NsS'jnk_9l'
p1793
NsS's1095'
p1794
NsS'cid_755673'
p1795
NsS'brd_k16472144'
p1796
NsS'brd_k90417362'
p1797
NsS'kuc104487_kuc104487n'
p1798
NsS'brd_k14048378'
p1799
NsS'44__diethylaminoethoxyhexestrol'
p1800
NsS'u0126'
p1801
NsS'u0124'
p1802
NsS'mk_1775'
p1803
NsS'brd_k68437527'
p1804
NsS'brd_k86693415'
p1805
NsS'sildenafil'
p1806
((F1.0
S'sildenafil_citrate'
p1807
tp1808
S"Suffix-based-exact-matching ('sildenafil', 'sildenafil_citrate') ('sildenafil', 'sildenafil_citrate')"
p1809
tp1810
sS'dibenzyline'
p1811
NsS'coumarinic_acid_methyl_ether'
p1812
NsS'spironolactone'
p1813
((F1.0
S'spironolactone'
p1814
tp1815
S"(st) matching: ratio , lcs, (key,drug) (keynorm,drugnorm 1.0 spironolactone ('spironolactone', 'spironolactone') ('spironolactone', 'spironolactone')"
p1816
tp1817
sS'brd_k69496360'
p1818
NsS'brd_k73125384'
p1819
NsS'33_4_5_tetrachlorosalicylanilide'
p1820
NsS'belinostat'
p1821
NsS'brd_k39687892'
p1822
NsS'cp_724714'
p1823
NsS'np_004527'
p1824
NsS'brd_k46499837'
p1825
NsS'alw_ii_49_7'
p1826
NsS'brd_k56477805'
p1827
NsS'epitiostanol'
p1828
NsS'riboflavine'
p1829
NsS'mesalazine'
p1830
NsS'brd_k50659736'
p1831
NsS'bacitracin'
p1832
NsS'mt19c_compound_sid'
p1833
NsS'kuc103443n'
p1834
NsS'necrostatin_1'
p1835
NsS'0175'
p1836
NsS'fenoterol'
p1837
NsS'brd_k44652183'
p1838
NsS't6094031'
p1839
NsS'brd_k64304398'
p1840
NsS'erlotinib'
p1841
NsS'chelidonine_(+)'
p1842
NsS'brd_a94377914'
p1843
NsS'pf_431396'
p1844
NsS'l_689_560'
p1845
NsS'4_nitrobenzoic_acid'
p1846
NsS'dicyclomine_hydrochloride'
p1847
NsS'clofibric_acid'
p1848
NsS'brd_k12184916'
p1849
NsS'brd_k20000640'
p1850
NsS'brd_k92980438'
p1851
NsS'meclocycline_sulfosalicylate'
p1852
NsS'dau_5884_hydrochloride'
p1853
NsS'brd_k17739445'
p1854
NsS'brd_k84091085'
p1855
NsS'cyt997'
p1856
NsS'mycophenolic_acid'
p1857
NsS'antazoline'
p1858
NsS'calmidazolium'
p1859
NsS'immepip_dihydrobromide'
p1860
NsS'cp_320650_01'
p1861
NsS'brd_k46645809'
p1862
NsS'neostigmine_bromide'
p1863
NsS'brd_k58070753'
p1864
NsS'bix_01294'
p1865
NsS'c_75'
p1866
NsS'lobeline'
p1867
NsS'sr_142948'
p1868
NsS'mls_0435555.0001'
p1869
NsS'brd_k14844937'
p1870
NsS'benfluorex'
p1871
NsS'rs_39604_hydrochloride'
p1872
NsS'jtc_801'
p1873
NsS'fludrocortisone_acetate'
p1874
NsS'gw_8510'
p1875
NsS'brd_k50204028'
p1876
NsS'ncgc00242296_02'
p1877
NsS'tak_715'
p1878
NsS'ncgc00181233_01'
p1879
NsS'brd_k84677391'
p1880
NsS'brd_k81209512_(ag_494)'
p1881
NsS'2_bromo_n_[3_(propionylamino)phenyl]benzamide'
p1882
NsS'amitriptyline_hydrochloride'
p1883
NsS'brd_k14790374'
p1884
NsS'brd_a60784279'
p1885
NsS'5182598'
p1886
NsS'ethylene_glycol'
p1887
NsS'streptomycin'
p1888
NsS'w_9_hydrochloride'
p1889
NsS'brd_a80383043'
p1890
NsS'sulfanilamide'
p1891
NsS'sulindac'
p1892
NsS'brd_k71142328'
p1893
NsS'brd_k35858371'
p1894
NsS'brd_k78930611'
p1895
NsS'brd_k61175124'
p1896
NsS'ketorolac_tromethamine'
p1897
NsS'chlorobenzene'
p1898
NsS'gsk_j4'
p1899
NsS'brd_k31851742'
p1900
NsS'brd_k37798499'
p1901
NsS'gsk_j1'
p1902
NsS'gsk_j2'
p1903
NsS'r(+)_6_bromo_apb'
p1904
NsS'brd_k95976153'
p1905
NsS'brd_k92158425'
p1906
NsS'brd_k28366633'
p1907
NsS'alpha_estradiol'
p1908
NsS'ketamine'
p1909
((F1.0
S'ketamine'
p1910
tp1911
S"(st) matching: ratio , lcs, (key,drug) (keynorm,drugnorm 1.0 ketamine ('ketamine', 'ketamine') ('ketamine', 'ketamine')"
p1912
tp1913
sS'torin_1'
p1914
NsS'torin_2'
p1915
NsS'brd_k09485525'
p1916
NsS'formestane'
p1917
NsS't018500'
p1918
NsS'thiotepa'
p1919
NsS'brd_k92470030'
p1920
NsS'2_deoxy_d_glucose'
p1921
NsS'brd_a84102390'
p1922
NsS'brd_k73951926'
p1923
NsS'6)'
p1924
NsS'cogentin'
p1925
NsS'taxifolin_(+/_)'
p1926
NsS'stock3s_32439'
p1927
NsS'aconitine'
p1928
NsS'brd_k51443908'
p1929
NsS'sch_58261'
p1930
NsS'fluorouracil'
p1931
NsS'apratoxin_a'
p1932
NsS'brd_a85712510'
p1933
NsS'brd_k61981833'
p1934
NsS'acetaminophen'
p1935
((F1.0
S'acetaminophen'
p1936
tp1937
S"(st) matching: ratio , lcs, (key,drug) (keynorm,drugnorm 1.0 acetaminophen ('acetaminophen', 'acetaminophen') ('acetaminophen', 'acetaminophen')"
p1938
tp1939
sS'piperlongumine'
p1940
NsS'brd_k57836103'
p1941
NsS'brd_k40955748'
p1942
NsS'brd_k55722623'
p1943
NsS'brd_k18595892'
p1944
NsS'ncgc00183243_01'
p1945
NsS'alexidine'
p1946
NsS'wz_3105'
p1947
NsS'brd_a81541225'
p1948
NsS'2_amino_4_nitrophenol'
p1949
NsS'brd_k15716662'
p1950
NsS'clemastine'
p1951
NsS'penicillin_g'
p1952
NsS'brd_a30395175'
p1953
NsS'mls_0435429'
p1954
NsS'brd_k22096725'
p1955
NsS'strophanthidin'
p1956
NsS'oxcarbazepine'
p1957
NsS'brd_k20112532'
p1958
NsS'ei_156'
p1959
NsS'brd_k00317371'
p1960
NsS'thiamphenicol'
p1961
NsS'raloxifene'
p1962
NsS'diisopropyl_fluorophosphate'
p1963
NsS'brd_k51556300'
p1964
NsS'n_nitrosodiethylamine'
p1965
NsS'brd_k98714523'
p1966
NsS'0425609'
p1967
NsS'verteporfin'
p1968
NsS'cortisol_acetate'
p1969
NsS'gentamicin'
p1970
NsS'digoxigenin'
p1971
NsS'brd_a81530502'
p1972
NsS'alprazolam'
p1973
NsS'a66'
p1974
NsS'vu0418946_2'
p1975
NsS'ei_155'
p1976
NsS'ethoprop'
p1977
NsS'mls_0435437.0002'
p1978
NsS'psb_11'
p1979
NsS'xmd_1150'
p1980
NsS'brd_u32365159'
p1981
NsS'zardaverine'
p1982
NsS'benzocaine'
p1983
NsS'rs_504393'
p1984
NsS'lumicolchicine_gamma'
p1985
NsS'ly_320135'
p1986
NsS'hy_11066'
p1987
NsS'cay10618'
p1988
NsS'hy_11068'
p1989
NsS'valdecoxib'
p1990
NsS'brd_k65983740'
p1991
NsS'propylthiouracil'
p1992
NsS'k06180729'
p1993
NsS'verapamil_hydrochloride'
p1994
((F1.0
S'verapamil'
p1995
tp1996
S"Suffix-based-exact-matching ('verapamil hydrochloride', 'verapamil') ('verapamil_hydrochloride', 'verapamil')"
p1997
tp1998
sS'brd_k88278225'
p1999
NsS'torcetrapib'
p2000
NsS'brd_a25088322'
p2001
NsS'k91349888'
p2002
NsS'brd_k98834634'
p2003
NsS'methamphetamine'
p2004
NsS'tropicamide'
p2005
NsS'clemastine_fumarate'
p2006
NsS'methylphenidate'
p2007
NsS'ncgc00182378_01'
p2008
NsS'mifepristone'
p2009
NsS'ncgc00241077_01'
p2010
NsS'brd_k19056367'
p2011
NsS'brd_k96147838'
p2012
NsS'kin001_220'
p2013
NsS'ritodrine_hydrochloride'
p2014
NsS'venlafaxine_hcl'
p2015
NsS'brd_a11702965'
p2016
NsS'brd_k90072296'
p2017
NsS'flucloxacillin_sodium'
p2018
NsS'ketoprofen'
p2019
NsS'brd_k17025677'
p2020
NsS'triiodothyronine_[13c6]'
p2021
NsS'taxol'
p2022
NsS'dyphylline'
p2023
NsS'fludrocortisone'
p2024
NsS'brd_k11558771'
p2025
NsS'ncgc00242340_01'
p2026
NsS'brd_k19724398'
p2027
NsS'tamoxifen__4_hydroxy___(z)_'
p2028
NsS'p8624'
p2029
NsS'bisindolylmaleimide_iv'
p2030
NsS'gdc_0879'
p2031
NsS'pramoxine'
p2032
NsS'ncgc00185684_02'
p2033
NsS's1249'
p2034
NsS'clomiphene_citrate_(z_e)'
p2035
NsS'doxapram'
p2036
NsS'ncgc00181736_02'
p2037
NsS'brd_k14749055'
p2038
NsS'brd_k99475920'
p2039
NsS'deferasirox'
p2040
NsS'cyclophosphamide'
p2041
NsS'prednisolone_acetate'
p2042
NsS'brd_k15467014'
p2043
NsS'brd_k11072542'
p2044
NsS'benzethonium_chloride'
p2045
NsS'nitrofural'
p2046
NsS'brd_k09299610'
p2047
NsS'st209453'
p2048
NsS'methylstat'
p2049
NsS'brd_k59488055'
p2050
NsS'bl_052'
p2051
NsS'androstanolone'
p2052
NsS'prazosin'
p2053
((F1.0
S'prazosin'
p2054
tp2055
S"(st) matching: ratio , lcs, (key,drug) (keynorm,drugnorm 1.0 prazosin ('prazosin', 'prazosin') ('prazosin', 'prazosin')"
p2056
tp2057
sS'brd_a41451487'
p2058
NsS's1170'
p2059
NsS'quizartinib'
p2060
NsS'bg_fa_0953'
p2061
NsS'ei_263'
p2062
NsS'lasalocid_sodium_salt'
p2063
NsS's1172'
p2064
NsS'oxyquinoline'
p2065
NsS'ncgc00183226_01'
p2066
NsS'brd_k70251741'
p2067
NsS'piroxicam'
p2068
NsS'nsc319726'
p2069
NsS's1174'
p2070
NsS'brd_k20914082'
p2071
NsS'levcromakalim'
p2072
NsS'urapidil_hydrochloride'
p2073
NsS'brd_k97274161'
p2074
NsS'ncgc00183218_01'
p2075
NsS'cp_55_940'
p2076
NsS'sb_269970_hydrochloride'
p2077
NsS'brd_k06476055'
p2078
NsS'brd_k33680967'
p2079
NsS'brd_k89692698'
p2080
NsS's1071'
p2081
NsS'brd_k03736784'
p2082
NsS'tetryzoline'
p2083
NsS'brd_k88569143'
p2084
NsS'medroxyprogesterone_acetate'
p2085
NsS'motexafin'
p2086
NsS'pdgf_receptor_tyrosine_kinase_inhibitor_i'
p2087
NsS'aminoglutethimide'
p2088
NsS'brd_a06929388'
p2089
NsS'sq_22536'
p2090
NsS'doxorubicin'
p2091
NsS'brd_k28120860'
p2092
NsS'phylloquinone'
p2093
NsS'brd_k44540157'
p2094
NsS'brd_k80981391'
p2095
NsS'brd_k92981876'
p2096
NsS'brd_k71915010'
p2097
NsS'brd_k34966483'
p2098
NsS'brd_k90430314'
p2099
NsS'brd_k34711351'
p2100
NsS'hemisuccinate'
p2101
NsS'gly_asp_d_phe_val]'
p2102
NsS'haloperidol'
p2103
NsS'theophylline'
p2104
NsS'jnk_in_5a'
p2105
NsS'mls_0454415.0001'
p2106
NsS'ncgc00167107_01'
p2107
NsS'brd_k15318909'
p2108
NsS'icariin'
p2109
NsS'ncgc00183412_01'
p2110
NsS'le_300'
p2111
NsS'abt_737'
p2112
NsS'azd_7762'
p2113
NsS'chlorprothixene_hydrochloride'
p2114
NsS'cloxacillin'
p2115
NsS'brd_k57080016'
p2116
NsS'ptb1'
p2117
NsS'dipropionate'
p2118
NsS'hydralazine'
p2119
NsS'pd_102807'
p2120
NsS'brd_k82837433'
p2121
NsS'gr_127935_hydrochloride'
p2122
NsS'tubocurarine_chloride_pentahydrate_(+)'
p2123
NsS'nu_7441'
p2124
NsS'mebendazole'
p2125
NsS'pd_160170'
p2126
NsS'atropine'
p2127
NsS'pre_084_hydrochloride'
p2128
NsS'brd_u00779237'
p2129
NsS'brd_k93176058'
p2130
NsS'austricine_hydrate'
p2131
NsS'rp1782780025'
p2132
NsS'gitoxigenin'
p2133
NsS'k3644'
p2134
NsS'tetracycline'
p2135
NsS'rg_14620'
p2136
NsS'gatifloxacin'
p2137
NsS'ncgc00167100_01'
p2138
NsS'brd_k52800308'
p2139
NsS'arvanil'
p2140
NsS'brd_k43581698'
p2141
NsS'phenazopyridine_hydrochloride'
p2142
NsS'liothyronine'
p2143
NsS'qx_222'
p2144
NsS'brd_k60895275'
p2145
NsS'lonidamine'
p2146
NsS'cot_10b'
p2147
NsS'brd_k15885023'
p2148
NsS'az_628'
p2149
NsS'ncgc00241071_01'
p2150
NsS'hexamethylquercetagetin'
p2151
NsS'cfm_1571_hydrochloride'
p2152
NsS'oxybutynin'
p2153
NsS'etomidate'
p2154
NsS'beta_estradiol'
p2155
NsS'triacsin_c'
p2156
NsS'ldn_193189'
p2157
NsS'brd_k26664453'
p2158
NsS'bromobenzene'
p2159
NsS'brd_k89209981'
p2160
NsS'brd_k02562327'
p2161
NsS'vu0420364_1'
p2162
NsS'ncgc00182327_02'
p2163
NsS'ncgc00183415_01'
p2164
NsS'sildenafil_citrate'
p2165
((F1.0
S'sildenafil_citrate'
p2166
tp2167
S"Suffix-based-exact-matching ('sildenafil citrate', 'sildenafil_citrate') ('sildenafil_citrate', 'sildenafil_citrate')"
p2168
tp2169
sS'brd_k91449330'
p2170
NsS'nsc_693868'
p2171
NsS'ibrutinib'
p2172
((F1.0
S'ibrutinib'
p2173
tp2174
S"(st) matching: ratio , lcs, (key,drug) (keynorm,drugnorm 1.0 ibrutinib ('ibrutinib', 'ibrutinib') ('ibrutinib', 'ibrutinib')"
p2175
tp2176
sS'niacin'
p2177
NsS'argyrin_a'
p2178
NsS'phenothiazine'
p2179
NsS'piperacetazine'
p2180
NsS'px12'
p2181
NsS'inca_6'
p2182
NsS'mg_132'
p2183
NsS'np_009265'
p2184
NsS'salicylic_acid'
p2185
((F1.0
S'acetylsalicylic_acid'
p2186
tp2187
S"(st) matching: ratio , lcs, (key,drug) (keynorm,drugnorm 1.0 salicylic_acid ('salicylic_acid', 'acetylsalicylic_acid') ('salicylic_acid', 'acetylsalicylic_acid')"
p2188
tp2189
sS'pf_573228'
p2190
NsS'brd_k18074178'
p2191
NsS'lacidipine'
p2192
NsS'brd_u37049823'
p2193
NsS'terconazole'
p2194
NsS'bd_1047_dihydrobromide'
p2195
NsS'brd_k89329876'
p2196
NsS'valinomycin'
p2197
NsS'brd_a95445494'
p2198
NsS'ncgc00188531_01'
p2199
NsS'mbcq'
p2200
NsS'rifampin'
p2201
NsS'ncgc00183371_01'
p2202
NsS'5_azacytidine'
p2203
NsS'brd_k58972465'
p2204
NsS'sdz_nkt_343'
p2205
NsS'zaprinast'
p2206
NsS'ethambutol'
p2207
NsS'brd_k05197617'
p2208
NsS't5223000'
p2209
NsS'chelerythrine_chloride'
p2210
NsS'acrylamide'
p2211
NsS'sericetin_dimethyl_ether'
p2212
NsS'y27632'
p2213
NsS'terazosin'
p2214
NsS'progesterone'
p2215
((F1.0
S'progesterone'
p2216
tp2217
S"(st) matching: ratio , lcs, (key,drug) (keynorm,drugnorm 1.0 progesterone ('progesterone', 'progesterone') ('progesterone', 'progesterone')"
p2218
tp2219
sS'clozapine'
p2220
NsS'prochlorperazine'
p2221
NsS'mls_0390843.0001'
p2222
NsS'11k_629s'
p2223
NsS'oxprenolol_hydrochloride'
p2224
NsS'atpa'
p2225
NsS'blebbistatin'
p2226
NsS'brd_k81514393'
p2227
NsS'manumycin_a'
p2228
NsS'brd_k57732441'
p2229
NsS'chemistry_1735'
p2230
NsS'trazodone_hydrochloride'
p2231
NsS'brd_k98739056'
p2232
NsS'memantine_hydrochloride'
p2233
NsS'purvalanol_a'
p2234
NsS'brd_k05549170'
p2235
NsS'brd_k25690923'
p2236
NsS'thioguanine'
p2237
NsS'sevoflurane'
p2238
((F1.0
S'sevoflurane'
p2239
tp2240
S"(st) matching: ratio , lcs, (key,drug) (keynorm,drugnorm 1.0 sevoflurane ('sevoflurane', 'sevoflurane') ('sevoflurane', 'sevoflurane')"
p2241
tp2242
sS'chromium(iii)_nicotinate'
p2243
NsS'brd_k10649245'
p2244
NsS'ei_228'
p2245
NsS'diphenyleneiodonium_chloride'
p2246
NsS'brd_k54822214'
p2247
NsS'brd_k90446118'
p2248
NsS'nonoxynol_9'
p2249
NsS'ferulic_acid'
p2250
NsS'zomepirac'
p2251
NsS'brd_k60379529'
p2252
NsS'kuc104126n'
p2253
NsS'brd_a89333723'
p2254
NsS'esmolol'
p2255
NsS'l_168_049'
p2256
NsS'tinidazole'
p2257
NsS'unc0638'
p2258
NsS'caffeine'
p2259
NsS'toltrazuril'
p2260
NsS'garcinol'
p2261
NsS'coumestrol'
p2262
NsS'ro_31_8220_mesylate'
p2263
NsS'quinapril'
p2264
NsS'brd_a14985772'
p2265
NsS'albendazole'
p2266
NsS'stk206352'
p2267
NsS'su_5416'
p2268
NsS'pd173074'
p2269
NsS'tw_37'
p2270
NsS'brd_k96083840'
p2271
NsS'mwp00339'
p2272
NsS'brd_k24754728'
p2273
NsS'iopanoic_acid'
p2274
NsS'sulconazole'
p2275
NsS'brd_k81814927'
p2276
NsS'deferoxamine'
p2277
((F1.0
S'deferoxamine'
p2278
tp2279
S"(st) matching: ratio , lcs, (key,drug) (keynorm,drugnorm 1.0 deferoxamine ('deferoxamine', 'deferoxamine') ('deferoxamine', 'deferoxamine')"
p2280
tp2281
sS'brd_k90700939'
p2282
NsS'ethyl_beta_carboline_3_carboxylate'
p2283
NsS'brd_k75308990'
p2284
NsS'kuc103428n'
p2285
NsS'brd_k78167523'
p2286
NsS'l2167'
p2287
NsS'wz_7043'
p2288
NsS'brd_k28800414'
p2289
NsS'i_bet151'
p2290
NsS'cyproheptadine'
p2291
NsS'brd_k49861754'
p2292
NsS'gw_3965_hydrochloride'
p2293
NsS'brd_k02174945'
p2294
NsS'brd_k72264770'
p2295
NsS'naloxone_hydrochloride'
p2296
NsS'y15'
p2297
NsS'brd_k04853698'
p2298
NsS'bisphenol_a'
p2299
NsS'reichstein/c_aeos_substance/c_*s'
p2300
NsS'2_3_7_8_tetrachlorodibenzo_p_dioxin'
p2301
NsS'brd_k95495709'
p2302
NsS'mls_0315926_mls_0315926'
p2303
NsS'(_)_jq1'
p2304
NsS'brd_k90697054'
p2305
NsS'brd_k93568044_(hydrocortisone)'
p2306
NsS'fluspirilene'
p2307
NsS'hydroquinidine'
p2308
NsS'brd_a85891951'
p2309
NsS'brd_k74126469'
p2310
NsS'ncgc00167098_01'
p2311
NsS'ami_193'
p2312
NsS'brd_k81538844'
p2313
NsS'brd_k24031526'
p2314
NsS'ebselen'
p2315
NsS'trifluridine'
p2316
NsS'ncgc00189393_02'
p2317
NsS'tetrandrine'
p2318
((F1.0
S'tetrandrine'
p2319
tp2320
S"(st) matching: ratio , lcs, (key,drug) (keynorm,drugnorm 1.0 tetrandrine ('tetrandrine', 'tetrandrine') ('tetrandrine', 'tetrandrine')"
p2321
tp2322
sS'w_12__hydrochloride'
p2323
NsS'bendroflumethiazide'
p2324
NsS'sertindole'
p2325
NsS'epicatechin_monogallate'
p2326
NsS'cefsulodin'
p2327
NsS'brd_a20697603'
p2328
NsS'n_formylmethionylalanine'
p2329
NsS'brd_k02458594'
p2330
NsS'gr_108'
p2331
NsS'gsk_429286a'
p2332
NsS'ketorolac'
p2333
NsS'metformin'
p2334
NsS'ici_192_605'
p2335
NsS'pterostilbene'
p2336
NsS'az_10417808'
p2337
NsS'sapphyrin'
p2338
NsS'brd_k15419449'
p2339
NsS'st4070169'
p2340
NsS'nicergoline'
p2341
NsS'5_fluorouracil'
p2342
NsS'thiazolopyrimidine'
p2343
NsS'brd_k75302809'
p2344
NsS'5224221'
p2345
NsS'mls_0391011'
p2346
NsS'kuc104135_kuc104135n'
p2347
NsS't0507_8790'
p2348
NsS'nu7026'
p2349
NsS'2_nitroanisole'
p2350
NsS'arg_csc_91'
p2351
NsS'fgfr_specific_pd173074_inhibitor'
p2352
NsS'mls_0435526.0001'
p2353
NsS'brd_a68065211'
p2354
NsS'v2264'
p2355
NsS'daminozide'
p2356
NsS'brd_a58924247'
p2357
NsS'methyl_7_desoxypurpurogallin_7_carboxylate_trimethyl_ether'
p2358
NsS'compound_58'
p2359
NsS'brd_k20718732'
p2360
NsS'cadmium_dichloride'
p2361
NsS'noscapine_hydrochloride'
p2362
NsS'brd_k66359319'
p2363
NsS'valeric_acid'
p2364
NsS'nicotinamide_riboside'
p2365
NsS'cgs_9343b'
p2366
NsS'brd_a68739437'
p2367
NsS'pazopanib'
p2368
NsS'brd_k65242613'
p2369
NsS'sulconazole_nitrate'
p2370
NsS'decitabine'
p2371
((F1.0
S'decitabine'
p2372
tp2373
S"(st) matching: ratio , lcs, (key,drug) (keynorm,drugnorm 1.0 decitabine ('decitabine', 'decitabine') ('decitabine', 'decitabine')"
p2374
tp2375
sS'tianeptine'
p2376
NsS'brd_k83213280'
p2377
NsS'cgp_57380'
p2378
NsS'ciclopirox'
p2379
NsS'brd_k48716658'
p2380
NsS'brd_k12401458'
p2381
NsS'u_0126'
p2382
NsS'ursodeoxycholic_acid'
p2383
NsS'brd_k59980915'
p2384
NsS'vu0365118_1'
p2385
NsS'1_piperonylpiperazine'
p2386
NsS'ys_035_hydrochloride'
p2387
NsS'brd_k38144109'
p2388
NsS'mls_0359128.0001'
p2389
NsS'oxetacaine'
p2390
NsS'pi_103'
p2391
NsS'xylazine'
p2392
NsS'brd_k74561903'
p2393
NsS'brd_k60757524'
p2394
NsS'cimetidine'
p2395
NsS'pac_1'
p2396
NsS'gw_1929'
p2397
NsS'ubenimex'
p2398
NsS'mehp'
p2399
NsS'tamoxifen_citrate'
p2400
((F1.0
S'tamoxifen'
p2401
tp2402
S"Suffix-based-exact-matching ('tamoxifen citrate', 'tamoxifen') ('tamoxifen_citrate', 'tamoxifen')"
p2403
tp2404
sS'hg_6_64_01'
p2405
NsS'salsolinol_hydrobromide'
p2406
NsS'nvp_aew541'
p2407
NsS'npk76_ii_72_1'
p2408
NsS'mapp__d_erythro'
p2409
NsS'ei_148'
p2410
NsS'itavastatin_ca'
p2411
NsS's1252'
p2412
NsS'brd_k24686773'
p2413
NsS'zinc_acetate'
p2414
((F1.0
S'zinc_sulfate'
p2415
tp2416
S"Suffix-based-exact-matching ('ZINC_ACETATE', 'zinc_sulfate') ('zinc_acetate', 'zinc_sulfate')"
p2417
tp2418
sS'l_690_488'
p2419
NsS'iproniazid'
p2420
NsS'bacampicillin_hydrochloride'
p2421
NsS'casiigly'
p2422
NsS'nizatidine'
p2423
NsS'fluvastatin'
p2424
NsS'exemestane'
p2425
NsS'thonzonium_bromide'
p2426
NsS'arachidonyl_trifluoro_methyl_ketone'
p2427
NsS'roflumilast'
p2428
NsS'brd_k42499654'
p2429
NsS'oxymetazoline_hydrochloride'
p2430
NsS'cadmium'
p2431
NsS'bromocriptine_mesylate'
p2432
NsS'l_732_138'
p2433
NsS'brd_k61717269'
p2434
NsS'k91442916'
p2435
NsS'vu0413243_1'
p2436
NsS'c247'
p2437
NsS'hy_50940'
p2438
NsS'altretamine'
p2439
NsS'ifosfamide'
p2440
NsS'primaquine_diphosphate'
p2441
NsS'brd_k26818574'
p2442
NsS'brd_k75644678'
p2443
NsS'rlm_2_12'
p2444
NsS'brd_k06009608'
p2445
NsS'brd_k99616396'
p2446
NsS'ornidazole'
p2447
NsS'vesamicol'
p2448
NsS'brd_k45044657'
p2449
NsS'brd_k70917163'
p2450
NsS'brd_k67484673'
p2451
NsS'nn_dimethylformamide'
p2452
NsS'brd_a67438293'
p2453
NsS'vu0415555_1'
p2454
NsS'sertraline'
p2455
NsS'ite'
p2456
((F1.0
S'sodium_nitrite'
p2457
tp2458
S"(st) matching: ratio , lcs, (key,drug) (keynorm,drugnorm 1.0 ite ('ite', 'sodium_nitrite') ('ite', 'sodium_nitrite')"
p2459
tp2460
sS'l_buthionine_sulfoximine'
p2461
NsS'arp_101'
p2462
NsS'tramadol'
p2463
NsS'brd_k86492010'
p2464
NsS'pf_04217903'
p2465
NsS'mt_21'
p2466
NsS'brd_k74486276'
p2467
NsS'brd_k65050353'
p2468
NsS'levamisole'
p2469
((F1.0
S'levamisole'
p2470
tp2471
S"(st) matching: ratio , lcs, (key,drug) (keynorm,drugnorm 1.0 levamisole ('levamisole', 'levamisole') ('levamisole', 'levamisole')"
p2472
tp2473
sS'chir_99021'
p2474
NsS'vu0365117_1'
p2475
NsS'perhexiline_maleate'
p2476
NsS'brd_a43087975'
p2477
NsS'lisinopril'
p2478
NsS'mexitil'
p2479
NsS'penitrem_a'
p2480
NsS'ncgc00185087_01'
p2481
NsS'chlorpyrifos'
p2482
NsS'brd_k74980345'
p2483
NsS'tocilizumab'
p2484
((F1.0
S'tocilizumab'
p2485
tp2486
S"(st) matching: ratio , lcs, (key,drug) (keynorm,drugnorm 1.0 tocilizumab ('tocilizumab', 'tocilizumab') ('tocilizumab', 'tocilizumab')"
p2487
tp2488
sS'duremesin'
p2489
NsS'brd_k68191783'
p2490
NsS'brd_k19295594'
p2491
NsS'brd_k83336168'
p2492
NsS'nystatin'
p2493
NsS'(+)_pulegone'
p2494
NsS'nsc_23766'
p2495
NsS'brd_k87909389'
p2496
NsS'w_7_hydrochloride'
p2497
NsS'mst__312'
p2498
NsS'brd_k91781484'
p2499
NsS'brd_k10114046'
p2500
NsS'haloprogin'
p2501
NsS'vu0413247_1'
p2502
NsS'(+)_chelidonine'
p2503
NsS'niclosamide'
p2504
((F1.0
S'niclosamide'
p2505
tp2506
S"(st) matching: ratio , lcs, (key,drug) (keynorm,drugnorm 1.0 niclosamide ('niclosamide', 'niclosamide') ('niclosamide', 'niclosamide')"
p2507
tp2508
sS'brd_k79779816'
p2509
NsS'brd_k07790824'
p2510
NsS'gr_159897'
p2511
NsS'brd_k44276885'
p2512
NsS'neratinib'
p2513
NsS'mls_0390850.0001'
p2514
NsS'ca_074_me'
p2515
NsS'rg_13022'
p2516
NsS'rifampicin'
p2517
NsS'brd_k24859147'
p2518
NsS'4_methylpyrazole'
p2519
NsS'brd_k48823327'
p2520
NsS'brd_a25170757'
p2521
NsS'f9428'
p2522
NsS'intropin'
p2523
NsS'pralidoxime_chloride'
p2524
NsS'brd_k86027709'
p2525
NsS'brd_k92419424'
p2526
NsS'doramapimod'
p2527
NsS'r(_)_n_allylnorapomorphine'
p2528
NsS'clobenpropit_dihydrobromide'
p2529
NsS'brd_k94841585'
p2530
NsS'ici_89406'
p2531
NsS'dictamnine'
p2532
NsS'ncgc00188537_01'
p2533
NsS'iox2'
p2534
NsS'estradiol_cypionate'
p2535
NsS'brd_k58191509'
p2536
NsS'nicotine'
p2537
NsS'brd_k82384352'
p2538
NsS'amikacin'
p2539
NsS'ncgc00188773_01'
p2540
NsS'bifemelane_hydrochloride'
p2541
NsS'brd_k09854848'
p2542
NsS'brd_k42419294'
p2543
NsS'brd_k79390395'
p2544
NsS'monuron'
p2545
NsS'brd_u43867373'
p2546
NsS'brd_k00944562'
p2547
NsS'brd_a94570195'
p2548
NsS'hycanthone'
p2549
NsS'lm_1685'
p2550
NsS'ftt'
p2551
NsS'digitoxin'
p2552
NsS'brd_k99582188'
p2553
NsS'brd_k40373196'
p2554
NsS'isoprenaline'
p2555
NsS'gbr_13069_dihydrochloride'
p2556
NsS'colforsin'
p2557
NsS'brd_a35020550'
p2558
NsS'dihydrosamidin'
p2559
NsS'dapt'
p2560
NsS'methyl_2_5_dihydroxycinnamate'
p2561
NsS'bithionol'
p2562
NsS'brd_k14636731'
p2563
NsS'bicalutamide'
p2564
((F1.0
S'bicalutamide'
p2565
tp2566
S"(st) matching: ratio , lcs, (key,drug) (keynorm,drugnorm 1.0 bicalutamide ('bicalutamide', 'bicalutamide') ('bicalutamide', 'bicalutamide')"
p2567
tp2568
sS'8_cpt_2_me_camp'
p2569
NsS'chloroform'
p2570
NsS'brd_k33720394'
p2571
NsS'brd_k72817452'
p2572
NsS'etanercept'
p2573
NsS'brd_k65148867'
p2574
NsS'moclobemide'
p2575
NsS'ciprofloxacin'
p2576
NsS'piperacillin'
p2577
((F1.0
S'piperacillin_tazobactam'
p2578
tp2579
S"(st) matching: ratio , lcs, (key,drug) (keynorm,drugnorm 1.0 piperacillin ('piperacillin', 'piperacillin_tazobactam') ('piperacillin', 'piperacillin_tazobactam')"
p2580
tp2581
sS'candesartan'
p2582
((F1.0
S'candesartan'
p2583
tp2584
S"(st) matching: ratio , lcs, (key,drug) (keynorm,drugnorm 1.0 candesartan ('candesartan', 'candesartan') ('candesartan', 'candesartan')"
p2585
tp2586
sS'brd_k78294846'
p2587
NsS'brd_a50388635'
p2588
NsS'heroin'
p2589
NsS'benzyl'
p2590
NsS'sertraline_hydrochloride'
p2591
NsS'hydrocortisone'
p2592
((F1.0
S'hydrocortisone'
p2593
tp2594
S"(st) matching: ratio , lcs, (key,drug) (keynorm,drugnorm 1.0 hydrocortisone ('hydrocortisone', 'hydrocortisone') ('hydrocortisone', 'hydrocortisone')"
p2595
tp2596
sS'vx_745'
p2597
NsS'topotecan_hcl'
p2598
NsS'metoclopramide_monohydrochloride'
p2599
NsS'dexamethasone'
p2600
((F1.0
S'dexamethasone'
p2601
tp2602
S"(st) matching: ratio , lcs, (key,drug) (keynorm,drugnorm 1.0 dexamethasone ('dexamethasone', 'dexamethasone') ('dexamethasone', 'dexamethasone')"
p2603
tp2604
sS'brd_k95138506'
p2605
NsS'pirinixic_acid'
p2606
NsS'brd_k71303366'
p2607
NsS'f4679'
p2608
NsS'emd_386088_hydrochloride'
p2609
NsS'pirenperone'
p2610
NsS'masitinib'
p2611
NsS'mosapride'
p2612
NsS'ncgc00238537_02'
p2613
NsS'cisapride'
p2614
NsS'triamcinolone_diacetate'
p2615
NsS'bupropion'
p2616
NsS'dabrafenib'
p2617
NsS'brd_a06664848'
p2618
NsS'ic_261'
p2619
NsS'sunitinib'
p2620
NsS'brd_k53638321'
p2621
NsS'azd8055'
p2622
NsS'propranolol'
p2623
NsS'erythromycin'
p2624
NsS'rabeprazole'
p2625
NsS'brd_k27151060'
p2626
NsS'lanatoside_c'
p2627
NsS'helveticoside'
p2628
NsS'nan_190_hydrobromide'
p2629
NsS'np_006304'
p2630
NsS'plx4032'
p2631
NsS'ly_303511'
p2632
NsS'brd_k72238567'
p2633
NsS'brd_k38483076'
p2634
NsS'ncgc00185837_02'
p2635
NsS'brd_k93760529'
p2636
NsS'folic_acid'
p2637
((F1.0
S'folic_acid'
p2638
tp2639
S"(st) matching: ratio , lcs, (key,drug) (keynorm,drugnorm 1.0 folic_acid ('folic_acid', 'folic_acid') ('folic_acid', 'folic_acid')"
p2640
tp2641
sS'cp_94253_hydrochloride'
p2642
NsS'tiabendazole'
p2643
NsS'brd_k68202742_(trichostatin_a)'
p2644
NsS'brd_k16290432'
p2645
NsS'dfb'
p2646
NsS'brd_a57107094'
p2647
NsS'dc_45_a2'
p2648
NsS'nafronyl_oxalate'
p2649
NsS'11_deoxy_16_16_dimethylprostaglandin_e2'
p2650
NsS'l_741_742_hydrochloride'
p2651
NsS'dicumarol'
p2652
NsS'brd_k77987635'
p2653
NsS'rhodomyrtoxin'
p2654
NsS'danazol'
p2655
NsS'hy_10966'
p2656
NsS'kin001_242'
p2657
NsS'pha_767491'
p2658
NsS'brd_k83151319'
p2659
NsS'regorafenib'
p2660
NsS'brd_k34294489'
p2661
NsS'l_655240'
p2662
NsS'wz_4_145'
p2663
NsS'noscapine'
p2664
NsS'etanidazole'
p2665
NsS'st023431'
p2666
NsS'sb_205607'
p2667
NsS'podofilox'
p2668
NsS'brd_k44781077'
p2669
NsS'ifn_gamma1b'
p2670
NsS'harman'
p2671
NsS'prenylamine'
p2672
NsS'2750'
p2673
NsS'flunisolide'
p2674
NsS'azithromycin'
p2675
((F1.0
S'azithromycin'
p2676
tp2677
S"(st) matching: ratio , lcs, (key,drug) (keynorm,drugnorm 1.0 azithromycin ('azithromycin', 'azithromycin') ('azithromycin', 'azithromycin')"
p2678
tp2679
sS'clobetasol'
p2680
NsS'amineptine'
p2681
NsS'gamma_tocotrienol'
p2682
NsS'brd_k16309743'
p2683
NsS'tofranil'
p2684
NsS'methoxychlor'
p2685
NsS'nvp_tnks656'
p2686
NsS'fr_122047_hydrochloride'
p2687
NsS'hydrocortisone_hemisuccinate'
p2688
NsS'vinblastine'
p2689
NsS'danthron'
p2690
NsS'ei_247'
p2691
NsS'ethotoin'
p2692
NsS'nisoldipine'
p2693
NsS'carbachol'
p2694
NsS'brd_k14704318'
p2695
NsS'zileuton'
p2696
NsS'kynuramine'
p2697
NsS'k39580048'
p2698
NsS'brd_k28452084'
p2699
NsS'dexamethasone_acetate'
p2700
((F1.0
S'dexamethasone'
p2701
tp2702
S"Suffix-based-exact-matching ('dexamethasone acetate', 'dexamethasone') ('dexamethasone_acetate', 'dexamethasone')"
p2703
tp2704
sS'0297417_0002b'
p2705
NsS'dipropyl_5ct'
p2706
NsS'ml_7'
p2707
NsS'nifuroxazide'
p2708
NsS'brd_k58214070'
p2709
NsS'brd_k85123403'
p2710
NsS'ncgc00182607_01'
p2711
NsS'brd_k35920785'
p2712
NsS'brd_k42489623'
p2713
NsS'carbidopa'
p2714
NsS'7501'
p2715
NsS'scriptaid'
p2716
NsS'risperidone'
p2717
NsS'brd_k35573744'
p2718
NsS'np_010155'
p2719
NsS'raclopride'
p2720
NsS'brl_37344__sodium_salt'
p2721
NsS'tolbutamide'
p2722
NsS'ouabain'
p2723
NsS's1130'
p2724
NsS'bl_010'
p2725
NsS'syk_inhibitor'
p2726
NsS'brd_k10846167'
p2727
NsS'brd_k00627859'
p2728
NsS'stk249718'
p2729
NsS'sulfacetamide_sodic_hydrate'
p2730
NsS'brd_k72615639'
p2731
NsS'brd_k24051260'
p2732
NsS'tl_hras27_brd_k15166186'
p2733
NsS'stock3s_04022'
p2734
NsS'cyclosporin_a'
p2735
NsS'brd_k86682249'
p2736
NsS'brd_k58853583'
p2737
NsS'brd_k00366212'
p2738
NsS'maprotiline_hydrochloride'
p2739
NsS'kin001_244'
p2740
NsS'tacrolimus'
p2741
((F1.0
S'tacrolimus'
p2742
tp2743
S"(st) matching: ratio , lcs, (key,drug) (keynorm,drugnorm 1.0 tacrolimus ('tacrolimus', 'tacrolimus') ('tacrolimus', 'tacrolimus')"
p2744
tp2745
sS'brd_k56515112_(medrysone)'
p2746
NsS'dmnq'
p2747
NsS'4_aminosalicylic_acid'
p2748
NsS'brd_a16581344'
p2749
NsS'brd_k14681867'
p2750
NsS'brd_k35716340'
p2751
NsS'brd_k02646507'
p2752
NsS'salbutamol'
p2753
NsS'azacyclonol'
p2754
NsS'cgs_21680_hydrochloride'
p2755
NsS'brd_k83816656'
p2756
NsS'indomethacin'
p2757
((F1.0
S'indomethacin'
p2758
tp2759
S"(st) matching: ratio , lcs, (key,drug) (keynorm,drugnorm 1.0 indomethacin ('indomethacin', 'indomethacin') ('indomethacin', 'indomethacin')"
p2760
tp2761
sS'cyproterone_acetate'
p2762
NsS'brd_k71172276'
p2763
NsS'clofazimine'
p2764
NsS'brd_k24102129'
p2765
NsS'cdc'
p2766
NsS'ethopropazine_hydrochloride'
p2767
NsS'quinacrine_dihydrochloride_dihydrate'
p2768
NsS's1352'
p2769
NsS'(_)_gallocatechin_gallate'
p2770
NsS'bms509744'
p2771
NsS'mead_acid_(20:3_n_9)'
p2772
NsS'brd_k57678861'
p2773
NsS'brd_k53932786'
p2774
NsS'mdl_28170'
p2775
NsS'l_ornithine__n5_[imino(methylamino)methyl]_[cas]'
p2776
NsS'ncgc00181801_01'
p2777
NsS'jak3_inhibitor_i'
p2778
NsS'jfd02227'
p2779
NsS'3_hydroxy_dl_kynurenine'
p2780
NsS'dihydroxycinnamate'
p2781
NsS'brd_k74447990'
p2782
NsS'rimcazole_dihydrochloride'
p2783
NsS'brd_k73418978'
p2784
NsS'l_750_667'
p2785
NsS'brd_k51155404'
p2786
NsS'alclometazone_dipropionate'
p2787
NsS'mls_0437633.0003'
p2788
NsS'brd_k98896788'
p2789
NsS'3_3__4_4__tetrachlorobiphenyl'
p2790
NsS'2_acetylaminofluorene'
p2791
NsS'tridihexethyl_chloride'
p2792
NsS'ncgc00184891_01'
p2793
NsS'lynestrenol'
p2794
NsS'thioacetamide'
p2795
NsS'brimonidine'
p2796
NsS'brd_a15010982'
p2797
NsS'aciclovir'
p2798
NsS'cercosporin'
p2799
NsS'phosgene'
p2800
NsS'3_deoxydenosine'
p2801
NsS'beclomethasone_dipropionate'
p2802
NsS'splitomicin'
p2803
NsS'd_tubocurarine_chloride'
p2804
NsS'motexafin_gadolinium'
p2805
NsS'brd_k00859168'
p2806
NsS'digitoxigenin'
p2807
NsS'tegafur'
p2808
NsS'mefexamide_hydrochloride'
p2809
NsS'mls_0437446.0001'
p2810
NsS'brd_k82594686'
p2811
NsS'levobunolol'
p2812
NsS'eperisone'
p2813
NsS'at_csc_07_brd_k33720404'
p2814
NsS'semustine'
p2815
NsS'brd_k26822808'
p2816
NsS'brd_k74777906'
p2817
NsS'lead(iv)_acetate'
p2818
NsS'brd_k53423944'
p2819
NsS'cardene'
p2820
NsS'brd_k25536815'
p2821
NsS'brd_k70693222'
p2822
NsS'brd_k41775742'
p2823
NsS'copper_sulfate'
p2824
NsS'brd_k27170250'
p2825
NsS'cgp_60474'
p2826
NsS'brd_a11929187'
p2827
NsS'a3145'
p2828
NsS'formoterol'
p2829
((F1.0
S'formoterol'
p2830
tp2831
S"(st) matching: ratio , lcs, (key,drug) (keynorm,drugnorm 1.0 formoterol ('formoterol', 'formoterol') ('formoterol', 'formoterol')"
p2832
tp2833
sS'minoxidil'
p2834
NsS'brd_k98731749'
p2835
NsS'brd_k07023879'
p2836
NsS'brd_k49403449'
p2837
NsS'cromolyn'
p2838
NsS'brd_k50002132'
p2839
NsS'benzonatate'
p2840
NsS'brd_k23217072'
p2841
NsS'k15166186'
p2842
NsS'brd_a75301702'
p2843
NsS'brd_a51777634'
p2844
NsS'pi_103_hydrochloride'
p2845
NsS'brd_a83802330'
p2846
NsS'rondual_kinase_inhibitor'
p2847
NsS'heliotrine'
p2848
NsS'brd_k47448802'
p2849
NsS'brd_k83509924'
p2850
NsS'srt_1720'
p2851
NsS'ticlopidine'
p2852
NsS'doxorubicin_hydrochloride'
p2853
NsS'dihydro_7_desacetyldeoxygedunin'
p2854
NsS'calyculin_a'
p2855
NsS'cucurbitacin_i'
p2856
NsS'propylene_glycol'
p2857
NsS'hispidin'
p2858
NsS'brd_k23531129'
p2859
NsS'methylandrostenediol'
p2860
NsS'ceramide_c2'
p2861
NsS'brd_a36630025'
p2862
NsS'v4877'
p2863
NsS'np_004007'
p2864
NsS'docosahexaenoic_acid_ethyl_ester'
p2865
NsS'ncgc00188012_01'
p2866
NsS'brd_k37043259'
p2867
NsS'np_002257'
p2868
NsS'phentolamine'
p2869
NsS'creatine'
p2870
NsS'brd_k43682718'
p2871
NsS'brd_k61053657'
p2872
NsS'4_demethoxydaunorubicin_hydrochloride_(65)'
p2873
NsS'ncgc00182615_01'
p2874
NsS'mln_8054'
p2875
NsS'dicycloverine'
p2876
NsS'valyltryptophan'
p2877
NsS'benoxaprofen'
p2878
NsS'hg_5_113_01'
p2879
NsS'clarithromycin'
p2880
((F1.0
S'clarithromycin'
p2881
tp2882
S"(st) matching: ratio , lcs, (key,drug) (keynorm,drugnorm 1.0 clarithromycin ('clarithromycin', 'clarithromycin') ('clarithromycin', 'clarithromycin')"
p2883
tp2884
sS'physostigmine_salicylate'
p2885
NsS'telapristone_acetate'
p2886
NsS'olaparib'
p2887
NsS'dcpib'
p2888
NsS'brd_k24346336'
p2889
NsS'2_(trifluoromethyl)_10h_phenothiazine'
p2890
NsS'vegf_receptor_2_kinase_inhibitor_iv'
p2891
NsS's1475'
p2892
NsS'brd_k30523950'
p2893
NsS'pha_665752'
p2894
NsS'tiotidine'
p2895
NsS'brd_k41557448'
p2896
NsS'piracetam'
p2897
NsS'brd_k27169919'
p2898
NsS'brd_k19166598'
p2899
NsS'brd_k26300881'
p2900
NsS'estradiol_valerate'
p2901
NsS'idoxuridine'
p2902
NsS'ondansetron'
p2903
NsS'brd_k05331696'
p2904
NsS'brd_k95196255'
p2905
NsS'chlorambucil'
p2906
NsS'penicillic_acid'
p2907
NsS'brd_k40956802'
p2908
NsS'r(+)_skf_81297'
p2909
NsS'methyl_salicylate'
p2910
NsS's1053'
p2911
NsS'm9948'
p2912
NsS'brd_k45818044'
p2913
NsS'trolox'
p2914
NsS'astemizole'
p2915
NsS'u_18666a'
p2916
NsS'lasalocid'
p2917
NsS'brd_k92107474'
p2918
NsS'ncgc00229595_01'
p2919
NsS'indirubin_3_oxime'
p2920
NsS'imiquimod'
p2921
NsS'rifabutin'
p2922
NsS'cobalt_dichloride_hexahydrate'
p2923
NsS'stock2s_69948'
p2924
NsS'lidoflazine'
p2925
NsS'cobalt_(ii)_chloride'
p2926
NsS'y_134'
p2927
NsS'tws119'
p2928
NsS'metronidazole'
p2929
NsS'brd_k55116708'
p2930
NsS'isoeugenitol'
p2931
NsS'mexiletine'
p2932
NsS'spectinomycin_dihydrochloride'
p2933
NsS'penicillamine'
p2934
NsS'orlistat'
p2935
NsS'fluphenazine_n_2_chloroethane__dihydrochloride'
p2936
NsS'acyclovir'
p2937
NsS'am_251'
p2938
NsS'gsk2334470'
p2939
NsS'kuc104491_kuc104491n'
p2940
NsS'brd_a68930007_(ouabain)'
p2941
NsS'dactinomycin'
p2942
NsS'nylidrin_hydrochloride'
p2943
NsS'brd_k32836707'
p2944
NsS'2_4_dideoxy_dc_45_a2'
p2945
NsS'vu0402605'
p2946
NsS'd163_0113'
p2947
NsS'syrosingopine'
p2948
NsS'methyldopa'
p2949
NsS'withaferin_a'
p2950
NsS'lamotrigine'
p2951
NsS'glyburide'
p2952
NsS'protein_tyrosine_phosphatase_inhibitor_iv'
p2953
NsS'brd_k70977695'
p2954
NsS'pkc_412'
p2955
NsS'arg_a1_22_brd_k91349888'
p2956
NsS'urethane'
p2957
NsS'mls_0075347.0001'
p2958
NsS'ncgc00229596_01'
p2959
NsS'brd_k38615104'
p2960
NsS'hexylresorcinol'
p2961
NsS'x0379'
p2962
NsS'brd_k22546959'
p2963
NsS'ym_90709'
p2964
NsS'chlordiazepoxide'
p2965
NsS'bjm_ctd2_9'
p2966
NsS'brd_k45253154'
p2967
NsS'bntx_maleate'
p2968
NsS'molsidomine'
p2969
NsS'dioxybenzone'
p2970
NsS'mk_212'
p2971
NsS'clomipramine'
p2972
NsS'e6_berbamine'
p2973
NsS'brd_k28907958'
p2974
NsS'benzoxiquine'
p2975
NsS'brd_k64857848'
p2976
NsS'brd_k12002134'
p2977
NsS'sb_408124'
p2978
NsS'penicillin_g_potassium'
p2979
NsS'iodophenpropit_dihydrobromide'
p2980
NsS'brd_k69569876'
p2981
NsS'bongkrekic_acid'
p2982
NsS'ritanserin'
p2983
NsS'brd_k94127894'
p2984
NsS'16beta_bromoandrosterone'
p2985
NsS'promethazine'
p2986
NsS'geldanamycin'
p2987
NsS'isotretinoin'
p2988
((F1.0
S'isotretinoin'
p2989
tp2990
S"(st) matching: ratio , lcs, (key,drug) (keynorm,drugnorm 1.0 isotretinoin ('isotretinoin', 'isotretinoin') ('isotretinoin', 'isotretinoin')"
p2991
tp2992
sS'brd_k02123250'
p2993
NsS'brd_k00954209'
p2994
NsS'lipopolysaccharide'
p2995
NsS'dm_100'
p2996
NsS'3)'
p2997
NsS'brd_k32238524'
p2998
NsS'brd_k74133369'
p2999
NsS'nickel_chloride'
p3000
NsS'zd_2079_hydrochloride'
p3001
NsS'manganese_(ii)_chloride'
p3002
NsS'brd_a60245366'
p3003
NsS'mestanolone'
p3004
NsS'brd_u44618005'
p3005
NsS'brd_k00007652'
p3006
NsS'brinzolamide'
p3007
NsS'brd_k34363599'
p3008
NsS'brd_k67847053_(guanabenz_acetate)'
p3009
NsS'brd_a89352139'
p3010
NsS'lysergol'
p3011
NsS'brd_k07061353'
p3012
NsS'amprenavir'
p3013
NsS'budesonide'
p3014
((F1.0
S'budesonide'
p3015
tp3016
S"(st) matching: ratio , lcs, (key,drug) (keynorm,drugnorm 1.0 budesonide ('budesonide', 'budesonide') ('budesonide', 'budesonide')"
p3017
tp3018
sS'c646'
p3019
NsS'roxithromycin'
p3020
NsS'brd_k04733502'
p3021
NsS'moxonidine'
p3022
NsS'brd_k17023947'
p3023
NsS'brd_k95842463'
p3024
NsS'ei_232'
p3025
NsS'brd_k44241590'
p3026
NsS'amiodarone'
p3027
((F1.0
S'amiodarone'
p3028
tp3029
S"(st) matching: ratio , lcs, (key,drug) (keynorm,drugnorm 1.0 amiodarone ('amiodarone', 'amiodarone') ('amiodarone', 'amiodarone')"
p3030
tp3031
sS'trap_101'
p3032
NsS'006'
p3033
NsS'indirubin'
p3034
NsS'anagrelide_hydrochloride'
p3035
NsS'brd_k75081836'
p3036
NsS'brd_k78559095'
p3037
NsS'az20'
p3038
NsS'methyldopa_(l__)'
p3039
NsS'dexchlorpheniramine'
p3040
NsS'brd_k60690191'
p3041
NsS'mitotane'
p3042
NsS'rk_682'
p3043
NsS'brd_k52522949'
p3044
NsS'trifluoperazine_dihydrochloride'
p3045
NsS'quercetin'
p3046
NsS'brd_k25731886'
p3047
NsS'sulbactam'
p3048
NsS'nrb_04155'
p3049
NsS'olanzapine'
p3050
NsS'ipratropium_bromide'
p3051
NsS'fisetinidol'
p3052
NsS'brd_k71382703'
p3053
NsS'suxamethonium_chloride'
p3054
NsS'sc_19220'
p3055
NsS's1122'
p3056
NsS's1120'
p3057
NsS'pnu_0293363'
p3058
NsS'hy_11009'
p3059
NsS'brd_k05153001'
p3060
NsS'ho_013'
p3061
NsS'brd_k25311561'
p3062
NsS'brd_k07395346'
p3063
NsS'trimipramine_maleate_salt'
p3064
NsS'methylbenzethonium_chloride'
p3065
NsS'cosmosiin'
p3066
NsS'hy_50898'
p3067
NsS'brd_u32049204'
p3068
NsS'fenobam'
p3069
NsS'protriptyline_hydrochloride'
p3070
NsS'brd_k63175663'
p3071
NsS'brd_k31841256'
p3072
NsS'ei_346'
p3073
NsS'brd_a00420644'
p3074
NsS'brd_k85051645'
p3075
NsS'brd_k74155249'
p3076
NsS'brd_k73567619'
p3077
NsS'antimycin_a'
p3078
NsS'brd_k78701355'
p3079
NsS'ncgc00241357_01'
p3080
NsS'11_dichloroethene'
p3081
NsS'brd_k60870698'
p3082
NsS'melphalan'
p3083
((F1.0
S'melphalan'
p3084
tp3085
S"(st) matching: ratio , lcs, (key,drug) (keynorm,drugnorm 1.0 melphalan ('melphalan', 'melphalan') ('melphalan', 'melphalan')"
p3086
tp3087
sS'sb_222200'
p3088
NsS'er_27319_maleate'
p3089
NsS'naproxen'
p3090
((F1.0
S'naproxen'
p3091
tp3092
S"(st) matching: ratio , lcs, (key,drug) (keynorm,drugnorm 1.0 naproxen ('naproxen', 'naproxen') ('naproxen', 'naproxen')"
p3093
tp3094
sS'sodium_selenite'
p3095
NsS'ncgc00182609_01'
p3096
NsS'diphenoxylate'
p3097
NsS'etoposide'
p3098
((F1.0
S'etoposide'
p3099
tp3100
S"(st) matching: ratio , lcs, (key,drug) (keynorm,drugnorm 1.0 etoposide ('etoposide', 'etoposide') ('etoposide', 'etoposide')"
p3101
tp3102
sS'brd_k15519488'
p3103
NsS'deoxycorticosterone'
p3104
NsS'phenoxazine'
p3105
NsS'jak3_inhibitor_ii'
p3106
NsS'mdm2_inhibitor'
p3107
NsS'buddleoflavonoloside'
p3108
NsS'otssp167'
p3109
NsS'clindamycin'
p3110
((F1.0
S'clindamycin'
p3111
tp3112
S"(st) matching: ratio , lcs, (key,drug) (keynorm,drugnorm 1.0 clindamycin ('clindamycin', 'clindamycin') ('clindamycin', 'clindamycin')"
p3113
tp3114
sS'sodium_butyrate'
p3115
NsS'brd_k12621773'
p3116
NsS'altrenogest'
p3117
NsS'uzi/1930680'
p3118
NsS'probucol'
p3119
NsS'brd_k77547509'
p3120
NsS'123_trichloropropane'
p3121
NsS'elesclomol'
p3122
NsS'tetrahydropalmatine'
p3123
NsS'mdl_29951'
p3124
NsS'5155877'
p3125
NsS'cinnarizine'
p3126
NsS'brd_k58679021'
p3127
NsS'brd_k62748479'
p3128
NsS'vu0365121_1'
p3129
NsS'methylparaben'
p3130
NsS'nu_7026'
p3131
NsS'probenecid'
p3132
NsS'butenafine'
p3133
NsS'brd_k74949371'
p3134
NsS'brd_a12633378'
p3135
NsS'01367338)'
p3136
NsS'brd_k62970326'
p3137
NsS'carbazol_9_yl_p_tolyl_methanone'
p3138
NsS'brd_k88868628'
p3139
NsS'promazine_hydrochloride'
p3140
NsS'diclofenac'
p3141
NsS'sb_218078'
p3142
NsS'gossypol'
p3143
NsS'metoprolol_tartrate'
p3144
NsS'methiazole'
p3145
NsS'brd_a05565054'
p3146
NsS'periplocymarin'
p3147
NsS'rucaparib'
p3148
NsS'sulforaphane'
p3149
NsS'nilotinib'
p3150
NsS'ethosuximide'
p3151
NsS'brd_k23657553'
p3152
NsS'rofecoxib'
p3153
NsS'levocetirizine'
p3154
NsS'brd_k35424586'
p3155
NsS'brd_a42737819'
p3156
NsS'drofenine'
p3157
NsS'brd_a31374339'
p3158
NsS'enrofloxacin'
p3159
NsS'tiratricol'
p3160
NsS'vu0413238_1'
p3161
NsS'methyltestosterone'
p3162
NsS'cediranib'
p3163
NsS'brd_a15914070'
p3164
NsS'2_chloroadenosine'
p3165
NsS'flavoxate'
p3166
NsS'brd_k65904652'
p3167
NsS'brd_k35389996'
p3168
NsS'buspar'
p3169
NsS'omdm_2'
p3170
NsS'flavoxate_hydrochloride'
p3171
NsS'sotalol'
p3172
NsS'fenoprofen'
p3173
NsS'clofarabine'
p3174
NsS'buspirone'
p3175
NsS'ncgc00182608_01'
p3176
NsS'hyperoside'
p3177
NsS'brd_k75329208'
p3178
NsS'vu0424182_2'
p3179
NsS'brd_k17773477'
p3180
NsS'ncgc00182361_01'
p3181
NsS'brd_k53610452'
p3182
NsS'brd_k50387473'
p3183
NsS'tibolone'
p3184
NsS'brd_k44136596'
p3185
NsS'bibr1532'
p3186
NsS'bmy_7378_dihydrochloride'
p3187
NsS'b675700.cdx'
p3188
NsS'cis_(z)_flupenthixol'
p3189
NsS'l469480'
p3190
NsS'sodium_dichromate'
p3191
NsS'everolimus'
p3192
NsS'zm_39923_hydrochloride'
p3193
NsS'felamidin'
p3194
NsS'brd_k91913968'
p3195
NsS'brd_k87343924_(wortmannin)'
p3196
NsS'ticrynafen'
p3197
NsS'3_methyladenine'
p3198
NsS'carmustine'
p3199
NsS'brd_k31491153'
p3200
NsS'pp_30'
p3201
NsS'ql_xii_47'
p3202
NsS'ct_incb'
p3203
NsS'brd_k28180706'
p3204
NsS'brd_k55127335'
p3205
NsS'ns3694'
p3206
NsS'anisindione'
p3207
NsS'brd_k56411643'
p3208
NsS'hg_5_88_01'
p3209
NsS'brd_k53903639'
p3210
NsS'plx4720'
p3211
NsS'fccp'
p3212
NsS'penfluridol'
p3213
NsS'luteolin'
p3214
NsS'brd_k65404805'
p3215
NsS'nortriptyline'
p3216
NsS'sulfamethoxazole'
p3217
((F1.0
S'sulfamethoxazole'
p3218
tp3219
S"(st) matching: ratio , lcs, (key,drug) (keynorm,drugnorm 1.0 sulfamethoxazole ('sulfamethoxazole', 'sulfamethoxazole') ('sulfamethoxazole', 'sulfamethoxazole')"
p3220
tp3221
sS'brd_k73888531'
p3222
NsS'stk397047'
p3223
NsS'brd_a84524947'
p3224
NsS's2004'
p3225
NsS'phenacetin'
p3226
NsS'oxantel_pamoate'
p3227
NsS'nocodazole'
p3228
NsS's2001'
p3229
NsS'brd_k97629076'
p3230
NsS'bw_723c86'
p3231
NsS'triamcinolone'
p3232
NsS'e3380'
p3233
NsS'opipramol_dihydrochloride'
p3234
NsS'nalbuphine_hydrochloride'
p3235
NsS'eugenol'
p3236
NsS'brd_a45657137'
p3237
NsS'brd_k56196992'
p3238
NsS'brd_k17086338'
p3239
NsS'ub_165_fumarate'
p3240
NsS'brd_k50234570'
p3241
NsS'ag_538'
p3242
NsS'peucedanin'
p3243
NsS'linsitinib'
p3244
NsS'brd_k36354764'
p3245
NsS'cetylpyridinium_bromide'
p3246
NsS'brd_a30455275'
p3247
NsS'pizotyline_malate'
p3248
NsS'brd_k34495954'
p3249
NsS'corticosterone'
p3250
((F0.8571428571428571
S'corticosteroid'
p3251
tp3252
S"(st) matching: ratio , lcs, (key,drug) (keynorm,drugnorm 0.857142857143 corticostero ('corticosterone', 'corticosteroid') ('corticosterone', 'corticosteroid')"
p3253
tp3254
sS'5109870'
p3255
NsS'chr_2797'
p3256
NsS'co_dergocrine_mesilate'
p3257
NsS'brivanib'
p3258
NsS'brd_k94544211'
p3259
NsS'mycophenolate_mofetil'
p3260
NsS'np_001445'
p3261
NsS'tripelennamine_citrate'
p3262
NsS'cilostamide'
p3263
NsS'mk_886_cid'
p3264
NsS'phenylhydrazine'
p3265
NsS'prasterone'
p3266
NsS'gdc_0068'
p3267
NsS'brd_a13195221'
p3268
NsS'mln2238'
p3269
NsS'loxoprofen'
p3270
NsS'hydrazine'
p3271
NsS'brd_k61217870'
p3272
NsS'brd_k67470788'
p3273
NsS'brd_k01614657'
p3274
NsS'brd_k42644990'
p3275
NsS'pararosaniline'
p3276
NsS'st4049616'
p3277
NsS'brd_a07614565'
p3278
NsS'brd_k47764688'
p3279
NsS'sb_200646_hydrochloride'
p3280
NsS'deacetoxy_7_oxisogedunin'
p3281
NsS'cgk_733'
p3282
NsS'at7867'
p3283
NsS'brd_k15563106'
p3284
NsS'tolazoline'
p3285
NsS'paroxetine'
p3286
NsS'vu0410183_2'
p3287
NsS'vu0404997_2'
p3288
NsS'hy_10992'
p3289
NsS'anastrozole'
p3290
NsS'mls_0425637.0001'
p3291
NsS'brd_k39944607'
p3292
NsS'brd_k07877311'
p3293
NsS'cobalt(ii)_acetylacetonate'
p3294
NsS'9100'
p3295
NsS'brd_k93578426'
p3296
NsS'brd_k89005359'
p3297
NsS'harringtonine'
p3298
NsS'brd_k27630941'
p3299
NsS'mercaptopurine'
p3300
NsS'brd_k23673040'
p3301
NsS'imd_0354'
p3302
NsS'sulfadiazine'
p3303
NsS'k784_3187'
p3304
NsS'ag_825'
p3305
NsS'brd_k30993697'
p3306
NsS'brd_k78524708'
p3307
NsS'jzl_184'
p3308
NsS'ossk_645668'
p3309
NsS'lansoprazole'
p3310
NsS'hy_10518'
p3311
NsS'brd_k30804015'
p3312
NsS'bas_00535043'
p3313
NsS'h_8'
p3314
NsS'cjd_pla_20_1'
p3315
NsS's1222'
p3316
NsS'cjd_fun_4_2'
p3317
NsS'brd_k23282736'
p3318
NsS'ncgc00229600_01'
p3319
NsS'brd_k89696951'
p3320
NsS'clobetasol_propionate'
p3321
NsS'nabumetone'
p3322
NsS'l_arginine'
p3323
NsS'kin001_269'
p3324
NsS'sulfaguanidine'
p3325
NsS'1_(4_methoxyphenyl)piperazine'
p3326
NsS'ikk_16'
p3327
NsS'kin001_260'
p3328
NsS'mls_0435534.0001'
p3329
NsS'nsc_632839_hydrochloride'
p3330
NsS'kin001_265'
p3331
NsS'kin001_266'
p3332
NsS'brd_k86269644'
p3333
NsS'tc_2559_difumarate'
p3334
NsS'ethacrynic_acid'
p3335
NsS'brd_u25771771'
p3336
NsS'6_methoxy_2_naphthylacetic_acid'
p3337
NsS'niguldipine_hydrochloride'
p3338
NsS't_0070907'
p3339
NsS'lycorine'
p3340
NsS'amphetamine'
p3341
NsS'zinc_sulfate'
p3342
((F1.0
S'zinc_sulfate'
p3343
tp3344
S"Suffix-based-exact-matching ('zinc_sulfate', 'zinc_sulfate') ('zinc_sulfate', 'zinc_sulfate')"
p3345
tp3346
sS'triamcinolone_acetonide'
p3347
NsS'brd_a98248982'
p3348
NsS'brd_k29500995'
p3349
NsS'phenformin_hydrochloride'
p3350
NsS'hypochlorous_acid'
p3351
NsS'thapsigargin'
p3352
NsS'bd_1063_dihydrochloride'
p3353
NsS'brd_k75477256'
p3354
NsS'brd_k13665914'
p3355
NsS'brd_a47714657'
p3356
NsS'brd_k65093687'
p3357
NsS'hy_11067'
p3358
NsS'levodopa'
p3359
NsS'zidovudine'
p3360
NsS'brompheniramine_maleate'
p3361
NsS'nutlin_3'
p3362
NsS'lobelanidine_hydrochloride'
p3363
NsS'hypericin'
p3364
NsS'dcebio'
p3365
NsS'brd_k16331660'
p3366
NsS'labetalol'
p3367
NsS'gp_2a'
p3368
NsS'brd_k12762134'
p3369
NsS'brd_k76079827'
p3370
NsS'flucytosine'
p3371
NsS'dmbi'
p3372
NsS'brd_k63068307'
p3373
NsS'triciribine'
p3374
NsS'brd_k19922318'
p3375
NsS'cerivastatin'
p3376
NsS'pik_93'
p3377
NsS'pik_90'
p3378
NsS'brd_k84770158'
p3379
NsS'rhamnetin'
p3380
NsS'bvt_948'
p3381
NsS'ag_18'
p3382
NsS'cymarin'
p3383
NsS'brd_a36059655'
p3384
NsS'ncgc00181241_02'
p3385
NsS'brd_a43155244'
p3386
NsS'spb02137'
p3387
NsS'brd_k15916856'
p3388
NsS'ossk_645683'
p3389
NsS'brd_k41931739'
p3390
NsS'tocainide'
p3391
NsS'epigallocatechin'
p3392
NsS'ql_xi_92'
p3393
NsS'brd_k27484191'
p3394
NsS'ipriflavone'
p3395
NsS'brd_k88832793'
p3396
NsS'cortisone'
p3397
((F1.0
S'hydrocortisone'
p3398
tp3399
S"(st) matching: ratio , lcs, (key,drug) (keynorm,drugnorm 1.0 cortisone ('cortisone', 'hydrocortisone') ('cortisone', 'hydrocortisone')"
p3400
tp3401
sS's1118'
p3402
NsS'auraptene'
p3403
NsS'pd_98059'
p3404
NsS'brd_k57592392'
p3405
NsS'fluoxetine'
p3406
((F1.0
S'fluoxetine'
p3407
tp3408
S"(st) matching: ratio , lcs, (key,drug) (keynorm,drugnorm 1.0 fluoxetine ('fluoxetine', 'fluoxetine') ('fluoxetine', 'fluoxetine')"
p3409
tp3410
sS'hts_10859'
p3411
NsS'antipyrine'
p3412
NsS'3h_1_2_dithiole_3_thione'
p3413
NsS'auranofin'
p3414
NsS'brd_k15640888'
p3415
NsS'1_benzylimidazole'
p3416
NsS'butamben'
p3417
NsS'fasudil'
p3418
NsS'arachidonamide'
p3419
NsS'su_4312'
p3420
NsS'nn__diphenyl_p_phenylenediamine'
p3421
NsS'brd_k49371609'
p3422
NsS'hki_272'
p3423
NsS'stock4s_23872'
p3424
NsS'ncgc00188530_01'
p3425
NsS'brd_k32101742'
p3426
NsS'ncgc00182371_01'
p3427
NsS'racecadotril'
p3428
NsS'mls_0390982'
p3429
NsS'fexaramine'
p3430
NsS'cyclosporine'
p3431
((F1.0
S'cyclosporine'
p3432
tp3433
S"(st) matching: ratio , lcs, (key,drug) (keynorm,drugnorm 1.0 cyclosporine ('cyclosporine', 'cyclosporine') ('cyclosporine', 'cyclosporine')"
p3434
tp3435
sS'ncgc00188700_01'
p3436
NsS'prostaglandin_a1'
p3437
NsS'methimazole'
p3438
NsS'bromisovalum'
p3439
NsS'brd_k92317137'
p3440
NsS'ki_8751'
p3441
NsS'grepafloxacin'
p3442
NsS'gm6001'
p3443
NsS'pentoxifylline'
p3444
((F1.0
S'pentoxifylline'
p3445
tp3446
S"(st) matching: ratio , lcs, (key,drug) (keynorm,drugnorm 1.0 pentoxifylline ('pentoxifylline', 'pentoxifylline') ('pentoxifylline', 'pentoxifylline')"
p3447
tp3448
sS'brd_k51683034'
p3449
NsS'dinoprostone'
p3450
NsS'brd_k79235952'
p3451
NsS'trimethobenzamide'
p3452
NsS'tolazamide'
p3453
NsS'brd_k98004941'
p3454
NsS'dibutyrylcyclic_amp'
p3455
NsS'sodium_orthovanadate'
p3456
NsS'brd_k76357752'
p3457
NsS'odq'
p3458
NsS'brd_k64099269'
p3459
NsS'herniarin'
p3460
NsS'ramipril'
p3461
((F1.0
S'ramipril'
p3462
tp3463
S"(st) matching: ratio , lcs, (key,drug) (keynorm,drugnorm 1.0 ramipril ('ramipril', 'ramipril') ('ramipril', 'ramipril')"
p3464
tp3465
sS'brd_k61529775'
p3466
NsS'brd_k62818989'
p3467
NsS'perhexiline'
p3468
NsS'bi_2536'
p3469
NsS'kemadrin'
p3470
NsS'dicyclomine'
p3471
NsS'carvedilol'
p3472
NsS'staurosporine'
p3473
NsS'sinensetin'
p3474
NsS'brd_u04166717'
p3475
NsS'hg_14_8_02'
p3476
NsS'interleukin_6'
p3477
((F0.9230769230769231
S'interleukin_7'
p3478
tp3479
S"(st) matching: ratio , lcs, (key,drug) (keynorm,drugnorm 0.923076923077 interleukin_ ('interleukin_6', 'interleukin_7') ('interleukin_6', 'interleukin_7')"
p3480
tp3481
sS'brd_k14609189'
p3482
NsS'permethrin'
p3483
NsS'jnj_10191584_maleate'
p3484
NsS'as_601245'
p3485
NsS'st019366'
p3486
NsS'sr_95639a'
p3487
NsS'st019365'
p3488
NsS'brd_a61858259'
p3489
NsS'alw_ii_38_3'
p3490
NsS'brd_k17953061'
p3491
NsS'ncgc00181921_02'
p3492
NsS'jak3_inhibitor_vi'
p3493
NsS'ncgc00185923_01'
p3494
NsS'aripiprazole'
p3495
NsS'fluocinolone_acetonide'
p3496
NsS'radicicol'
p3497
NsS'baclofen'
p3498
NsS'barasertib'
p3499
NsS'8_{[2_oxo_2_(1_pyrrolidinyl)ethyl]thio}quinoline'
p3500
NsS'gentian_violet'
p3501
NsS'bpde'
p3502
NsS'betamethasone'
p3503
NsS'zopiclone'
p3504
NsS'brd_k64314806'
p3505
NsS'19_norethindrone'
p3506
NsS'brd_k90912239'
p3507
NsS'flecainide_acetate'
p3508
NsS'erastin'
p3509
NsS'brd_k69852452'
p3510
NsS'beta_naphthoflavone'
p3511
NsS'droperidol'
p3512
NsS'dibenzoate'
p3513
NsS'exisulind'
p3514
NsS'brd_k00028814'
p3515
NsS'brd_k22832646'
p3516
NsS'mls_0106435.0004'
p3517
NsS'ncgc00181920_01'
p3518
NsS'lithocholic_acid'
p3519
NsS'brd_k93443135'
p3520
NsS'trequinsin_hydrochloride'
p3521
NsS'meropenem'
p3522
NsS'nafadotride'
p3523
NsS'brd_k72703948'
p3524
NsS'brd_k90826279'
p3525
NsS'brd_k78596368'
p3526
NsS'insulin'
p3527
((F1.0
S'insulin_regimen'
p3528
tp3529
S"(st) matching: ratio , lcs, (key,drug) (keynorm,drugnorm 1.0 insulin ('Insulin', 'insulin_regimen') ('insulin', 'insulin_regimen')"
p3530
tp3531
sS'ctb'
p3532
NsS'azd_1480'
p3533
NsS'dl_pdmp'
p3534
NsS'brd_k92301463'
p3535
NsS'ym_201636'
p3536
NsS'brd_k67010098'
p3537
NsS'sulpiride'
p3538
NsS'brd_k11758216'
p3539
NsS'brd_a64479082'
p3540
NsS'oxytetracycline'
p3541
NsS'thiocolchicoside'
p3542
NsS'bucladesine'
p3543
NsS'pd_198306'
p3544
NsS'rottlerin_ncgc00025228_11'
p3545
NsS'norethynodrel'
p3546
NsS'sb_221284'
p3547
NsS'gliquidone'
p3548
NsS'brd_k31412180'
p3549
NsS'nitrofurantoin'
p3550
NsS'puromycin_hydrochloride'
p3551
NsS'brd_a18725729'
p3552
NsS'n_(4_bromobenzyl)_5_methoxytryptamine'
p3553
NsS'trimipramine'
p3554
NsS'hy_10044'
p3555
NsS'crotamiton'
p3556
NsS'arsenic_cid'
p3557
NsS't5212475'
p3558
NsS'choline_chloride'
p3559
NsS'pkcbeta_inhibitor'
p3560
NsS'coumarin'
p3561
NsS'mestranol'
p3562
NsS'ricinine'
p3563
NsS'1_naphthyl_isothiocyanate'
p3564
NsS'jwh_015'
p3565
NsS'tranexamic_acid'
p3566
((F1.0
S'tranexamic_acid'
p3567
tp3568
S"(st) matching: ratio , lcs, (key,drug) (keynorm,drugnorm 1.0 tranexamic_acid ('tranexamic_acid', 'tranexamic_acid') ('tranexamic_acid', 'tranexamic_acid')"
p3569
tp3570
sS'brd_k37852224'
p3571
NsS'metergoline'
p3572
NsS's1205'
p3573
NsS'brd_k86456986'
p3574
NsS'nimodipine'
p3575
NsS'chloroquine'
p3576
((F1.0
S'chloroquine_sulfate'
p3577
tp3578
S"Suffix-based-exact-matching ('chloroquine', 'chloroquine_sulfate') ('chloroquine', 'chloroquine_sulfate')"
p3579
tp3580
sS'brd_k03651937'
p3581
NsS'demeclocycline'
p3582
NsS'naltrexone_hydrochloride_dihydrate'
p3583
NsS'ncgc00012272_02'
p3584
NsS'12k_613s'
p3585
NsS'torasemide'
p3586
NsS'np_001236'
p3587
NsS'km_03439'
p3588
NsS'deferiprone'
p3589
NsS'brd_a82197375'
p3590
NsS'yo_2'
p3591
NsS'lovastatin'
p3592
NsS'indatraline'
p3593
NsS'ch_55'
p3594
NsS'benperidol'
p3595
NsS'brd_k96433222'
p3596
NsS'brd_k93296644'
p3597
NsS'brd_k50140147'
p3598
NsS'mls_0315771.0001'
p3599
NsS'isoflurane'
p3600
((F1.0
S'isoflurane'
p3601
tp3602
S"(st) matching: ratio , lcs, (key,drug) (keynorm,drugnorm 1.0 isoflurane ('isoflurane', 'isoflurane') ('isoflurane', 'isoflurane')"
p3603
tp3604
sS'brd_k67090983'
p3605
NsS'yc_1'
p3606
NsS'cx_5461'
p3607
NsS'brd_k37340241'
p3608
NsS'brd_k84085265'
p3609
NsS'brd_a86792397'
p3610
NsS'amyleine_hydrochloride'
p3611
NsS'diphenylcyclopropenone'
p3612
NsS'brl_54443'
p3613
NsS'brd_k78373679'
p3614
NsS'cytosporone_b'
p3615
NsS'brd_k90735586'
p3616
NsS'pf_477736'
p3617
NsS'fti_276_trifluoroacetate'
p3618
NsS'aplidin'
p3619
NsS'brd_k96072942'
p3620
NsS'brd_k11540476'
p3621
NsS'terbinafine_hcl'
p3622
NsS'mannitol'
p3623
((F1.0
S'mannitol'
p3624
tp3625
S"(st) matching: ratio , lcs, (key,drug) (keynorm,drugnorm 1.0 mannitol ('mannitol', 'mannitol') ('mannitol', 'mannitol')"
p3626
tp3627
sS'brd_k05323277'
p3628
NsS'camptothecin'
p3629
NsS'amoxapine'
p3630
NsS'embelin'
p3631
NsS'brd_k10705233'
p3632
NsS'tonzonium_bromide'
p3633
NsS'l_701_252'
p3634
NsS'brd_k27630390'
p3635
NsS'hy_10456'
p3636
NsS'brd_k79131428'
p3637
NsS'brd_k89784888'
p3638
NsS'quipazine_dimaleate_salt'
p3639
NsS'pravastatin_sodium'
p3640
NsS'nvp_bgt226'
p3641
NsS'hy_10459'
p3642
NsS'brd_a80574334'
p3643
NsS'brd_k24861700'
p3644
NsS'ncgc00012852_02'
p3645
NsS'brd_a67605442'
p3646
NsS'brd_k67870070'
p3647
NsS'ncgc00182110_02'
p3648
NsS'biperiden_hydrochloride'
p3649
NsS'digoxin'
p3650
NsS'brd_k55216615'
p3651
NsS'ketoconazole'
p3652
NsS'lasalocid_sodium'
p3653
NsS'brd_k63923597'
p3654
NsS'gw_441756'
p3655
NsS'chlorogenic_acid'
p3656
NsS'brd_k49749421'
p3657
NsS'brd_k73319509'
p3658
NsS'bo2_(inhibits_rad51)'
p3659
NsS'benazepril'
p3660
NsS'brd_k74797618'
p3661
NsS'cadmium_acetate'
p3662
NsS'estrone'
p3663
NsS'brd_k11611839'
p3664
NsS'at_csc_18_brd_k01121114'
p3665
NsS'h_7'
p3666
NsS'marimastat'
p3667
NsS'dinoprost'
p3668
NsS'brd_k71935468'
p3669
NsS'gsk_2126458'
p3670
NsS'carbon_tetrachloride'
p3671
NsS'tosufloxacin'
p3672
NsS'brd_k52099002'
p3673
NsS'brd_k08463963'
p3674
NsS'eucalyptol'
p3675
NsS'brd_k99502566'
p3676
NsS's6005'
p3677
NsS'cgp_54626_hydrochloride'
p3678
NsS'brd_k54168141'
p3679
NsS't5715534'
p3680
NsS'axon1408'
p3681
NsS'sorafenib'
p3682
NsS'fluticasone'
p3683
NsS'propentofylline'
p3684
NsS'oxymetazoline'
p3685
NsS'brd_k75430629'
p3686
NsS'kuc103885_kuc103885n'
p3687
NsS'hy_10180'
p3688
NsS'0315926'
p3689
NsS'brd_a93393712'
p3690
NsS'akt_inhibitor_iv'
p3691
NsS'hdac6_inhibitor_isox'
p3692
NsS'ncgc00165193_01'
p3693
NsS'angiogenesis_inhibitor'
p3694
NsS'dexverapamil'
p3695
NsS'ski_ii'
p3696
NsS'kin001_270'
p3697
NsS'phenylpropanolamine'
p3698
NsS'cadmium_chloride'
p3699
NsS'k33720404'
p3700
NsS'papaverine'
p3701
NsS'brd_k05104363'
p3702
NsS'nvp_auy922'
p3703
NsS'clomid'
p3704
NsS'thiostrepton'
p3705
NsS'brd_k22006123'
p3706
NsS'leucine_enkephalin'
p3707
NsS'mls_0390851.0001'
p3708
NsS'isoflupredone_acetate'
p3709
NsS'brd_k71574320'
p3710
NsS'hy_50767'
p3711
NsS'brd_k72307842'
p3712
NsS'brl_15572_hydrochloride'
p3713
NsS'noretynodrel'
p3714
NsS'sant_1'
p3715
NsS'1483_0018'
p3716
NsS'o_2050'
p3717
NsS'brd_k27290412'
p3718
NsS'u_99194_maleate'
p3719
NsS'raf1_kinase_inhibitor_i'
p3720
NsS'azd4547'
p3721
NsS'brd_k46558254'
p3722
NsS'g3420'
p3723
NsS'pha_793887'
p3724
NsS'selamectin'
p3725
NsS'brd_k03814443'
p3726
NsS'sodium_selenate'
p3727
NsS'amg_9810'
p3728
NsS'norpramin'
p3729
NsS'bl_008'
p3730
NsS'brd_k57019930'
p3731
NsS'pfi_1'
p3732
NsS'brd_k16180117'
p3733
NsS'chemistry_2804'
p3734
NsS'psh_013'
p3735
NsS'brd_k06217810'
p3736
NsS'loxapine_succinate'
p3737
NsS'ei_215'
p3738
NsS'cyclobenzaprine'
p3739
NsS'piceatannol'
p3740
NsS'brd_k64517075'
p3741
NsS'mibefradil_dihydrochloride'
p3742
NsS'aminophenazone'
p3743
NsS'nnc_55_0396_dihydrochloride'
p3744
NsS'brd_k29143967'
p3745
NsS'caerulein'
p3746
NsS'vu0405172_2'
p3747
NsS'brd_k88742110'
p3748
NsS'brd_k65955264'
p3749
NsS'sb_216641_hydrochloride'
p3750
NsS'ncgc00012588_02'
p3751
NsS'16_hydroxytriptolide'
p3752
NsS'brd_k88710727'
p3753
NsS'brd_k00816165'
p3754
NsS'sc_68376'
p3755
NsS'vu0415533_1'
p3756
NsS'naloxone'
p3757
NsS'brd_u74615290'
p3758
NsS'estradiol_benzoate'
p3759
NsS'mls_0390857.0001'
p3760
NsS'brd_a77467113'
p3761
NsS'brd_k41303952'
p3762
NsS'mammea_a/ba_+_a/bb'
p3763
NsS'cyclo_[arg_gly_asp_d_phe_val]'
p3764
NsS'methoxy_6_harmalan'
p3765
NsS'brd_k26304855'
p3766
NsS'brd_k92742972'
p3767
NsS'proglumide'
p3768
NsS'allylamine'
p3769
NsS'devazepide'
p3770
NsS'brd_k43782924'
p3771
NsS'brd_k02223034'
p3772
NsS'kn_93'
p3773
NsS'artesunate'
p3774
((F1.0
S'artesunate'
p3775
tp3776
S"(st) matching: ratio , lcs, (key,drug) (keynorm,drugnorm 1.0 artesunate ('artesunate', 'artesunate') ('artesunate', 'artesunate')"
p3777
tp3778
sS'clinafloxacin'
p3779
NsS'brd_k86761848'
p3780
NsS'flunarizine'
p3781
NsS'brd_a43640821'
p3782
NsS'pyrvinium'
p3783
NsS'cgs_15943'
p3784
NsS'sparfloxacin'
p3785
NsS'sdz_21009'
p3786
NsS'bay_11_7821'
p3787
NsS'azaribine'
p3788
NsS'k93060291'
p3789
NsS'my_5445'
p3790
NsS'brd_u33728988'
p3791
NsS's1216'
p3792
NsS'cladribine'
p3793
NsS'brd_k30704475'
p3794
NsS'ergocalciferol'
p3795
NsS'b4313'
p3796
NsS'3_acetamidophenol'
p3797
NsS'gold_sodium_thiomalate'
p3798
NsS'brd_k66438357'
p3799
NsS'nelfinavir'
p3800
NsS'brd_k89558221'
p3801
NsS'cyclopentyladenosine'
p3802
NsS'bromhexine'
p3803
((F1.0
S'bromhexine_hydrochloride'
p3804
tp3805
S"Suffix-based-exact-matching ('bromhexine', 'bromhexine_hydrochloride') ('bromhexine', 'bromhexine_hydrochloride')"
p3806
tp3807
sS'dideoxycytidine'
p3808
NsS'np_000732'
p3809
NsS'kenpaullone'
p3810
NsS'quinisocaine'
p3811
NsS'dipyrone'
p3812
NsS'bml_190'
p3813
NsS'brd_k25150581'
p3814
NsS'canertinib'
p3815
NsS's(_)_timolol'
p3816
NsS'rocilinostat'
p3817
NsS'z2777'
p3818
NsS'azd_8330'
p3819
NsS'brd_k64885524'
p3820
NsS'norgestrel'
p3821
NsS'brd_k83972459'
p3822
NsS'ciglitazone'
p3823
NsS's1107'
p3824
NsS'brd_k70415218'
p3825
NsS'brd_a76019558'
p3826
NsS'brd_k11671649'
p3827
NsS'catechol'
p3828
NsS'vandetanib'
p3829
NsS'azlocillin'
p3830
NsS'brd_k82492171'
p3831
NsS'bw_b70c'
p3832
NsS'pz0004'
p3833
NsS'pz0005'
p3834
NsS'dppe_fumarate'
p3835
NsS'brd_k84106030'
p3836
NsS'ei_231'
p3837
NsS'ro_60_0175'
p3838
NsS'brd_k55612480'
p3839
NsS'dobutamine'
p3840
NsS'glycidol'
p3841
NsS'gr_113808'
p3842
NsS'desoxymetasone'
p3843
NsS'bs_181'
p3844
NsS't3205'
p3845
NsS'temozolomide'
p3846
NsS'brd_k32927008'
p3847
NsS'cyfluthrin'
p3848
NsS'cgs_12066b'
p3849
NsS'ncgc00241435_01'
p3850
NsS'phccc'
p3851
NsS'5_fluoro_2__deoxyuridine'
p3852
NsS'b3063'
p3853
NsS'ellipticine'
p3854
NsS'taxifolin_(+)'
p3855
NsS'brd_k77830450_(forskolin)'
p3856
NsS'brd_k25979535'
p3857
NsS'unc669'
p3858
NsS's1364'
p3859
NsS'brd_k81441552'
p3860
NsS's1367'
p3861
NsS'brd_k88964386'
p3862
NsS'interferon_beta_1b'
p3863
((F1.0
S'interferon_beta_1b'
p3864
tp3865
S"(st) matching: ratio , lcs, (key,drug) (keynorm,drugnorm 1.0 interferon_beta_1b ('Interferon_beta-1b', 'interferon_beta_1b') ('interferon_beta_1b', 'interferon_beta_1b')"
p3866
tp3867
sS'interferon_beta_1a'
p3868
((F1.0
S'interferon_beta_1a'
p3869
tp3870
S"(st) matching: ratio , lcs, (key,drug) (keynorm,drugnorm 1.0 interferon_beta_1a ('Interferon_beta-1a', 'interferon_beta_1a') ('interferon_beta_1a', 'interferon_beta_1a')"
p3871
tp3872
sS'thz_2_98_01'
p3873
NsS'clonidine_hydrochloride'
p3874
NsS'flavokawain_b'
p3875
NsS'bleomycin'
p3876
NsS'brd_k82857306'
p3877
NsS'evista'
p3878
NsS'calcipotriene'
p3879
NsS'tranilast'
p3880
NsS'mls_0391006'
p3881
NsS'mls_0391005'
p3882
NsS's1039'
p3883
NsS'1541b'
p3884
NsS'sb_206553_hydrochloride'
p3885
NsS'linifanib'
p3886
NsS'brd_k97764662'
p3887
NsS'ncgc00242267_03'
p3888
NsS'phorbol'
p3889
NsS'tnf_alpha'
p3890
NsS'valsartan'
p3891
((F1.0
S'valsartan'
p3892
tp3893
S"(st) matching: ratio , lcs, (key,drug) (keynorm,drugnorm 1.0 valsartan ('valsartan', 'valsartan') ('valsartan', 'valsartan')"
p3894
tp3895
sS'trimethadione'
p3896
NsS'cmpd_1'
p3897
NsS'hymecromone'
p3898
NsS'ncgc00165208_01'
p3899
NsS'brd_k53331454'
p3900
NsS'peitc'
p3901
NsS'mls_0435541.0001'
p3902
NsS'brd_k79491139'
p3903
NsS'l_sulforophane'
p3904
NsS'brd_k14939371'
p3905
NsS'flufenamic_acid'
p3906
NsS'1391_0741'
p3907
NsS'2_3_dimethoxy_1_4_naphtoquinone_(dmnq)'
p3908
NsS'brd_k81473043'
p3909
NsS'zk_93423'
p3910
NsS'chlorhexidine'
p3911
NsS'n_ethylmaleimide'
p3912
NsS'rho_kinase_inhibitor_ii'
p3913
NsS'alfacalcidol'
p3914
NsS'o_3m3fbs'
p3915
NsS'jlk_6'
p3916
NsS'r_96544_hydrochloride'
p3917
NsS'ver155008'
p3918
NsS'dasatinib'
p3919
NsS'ncgc00166375_02'
p3920
NsS'streptozocin'
p3921
NsS'beta_escin'
p3922
NsS'azd_6482'
p3923
NsS'brd_k24014699'
p3924
NsS'guggulsterone'
p3925
NsS'6_diazo_5_oxo_l_norleucine'
p3926
NsS'dexfenfluramine'
p3927
NsS'hexylcaine_hydrochloride'
p3928
NsS'dihydroptaeroxylin'
p3929
NsS'fenbendazole'
p3930
NsS'brd_k31688005'
p3931
NsS'diazepam'
p3932
NsS'mls_0390945.0001'
p3933
NsS'racepinephrine'
p3934
NsS'pi_828'
p3935
NsS'brd_a12083771'
p3936
NsS'brd_k60093216'
p3937
NsS'angiotensin_ii_human'
p3938
NsS'lisuride'
p3939
NsS'brd_k85660637'
p3940
NsS'benzopurpurin_(b)'
p3941
NsS'homosalate'
p3942
NsS'brd_k22215695'
p3943
NsS'ncgc00180994_01'
p3944
NsS'np_004121'
p3945
NsS'pepstatin_a'
p3946
NsS'neomycin'
p3947
NsS'niacinamide'
p3948
NsS'etodolac'
p3949
NsS'ncgc00182942_03'
p3950
NsS'prednisone'
p3951
((F1.0
S'prednisone'
p3952
tp3953
S"(st) matching: ratio , lcs, (key,drug) (keynorm,drugnorm 1.0 prednisone ('prednisone', 'prednisone') ('prednisone', 'prednisone')"
p3954
tp3955
sS'troglitazone'
p3956
NsS'brd_k37150847'
p3957
NsS'mianserine_hydrochloride'
p3958
NsS'antimony'
p3959
NsS'brd_k39866321'
p3960
NsS'lidocaine'
p3961
NsS'mesna'
p3962
NsS'acarbose'
p3963
NsS'nvp_bgj398'
p3964
NsS'brd_k58479490'
p3965
NsS'promegestone'
p3966
NsS'pristane'
p3967
NsS'brd_k43913647'
p3968
NsS'brd_k74029109'
p3969
NsS'brd_k99633092'
p3970
NsS'moban'
p3971
NsS'epz004777'
p3972
NsS'imatinib_(glivec)'
p3973
NsS'brd_k23149109'
p3974
NsS'f0447_0125'
p3975
NsS'brd_k01834163'
p3976
NsS'zd_7155_hydrochloride'
p3977
NsS'kin001_260;'
p3978
NsS'brd_a17718497'
p3979
NsS'mls_0226420'
p3980
NsS'brd_u73238814'
p3981
NsS'brd_k33211335'
p3982
NsS'levonorgestrel'
p3983
NsS'beclomethasone'
p3984
NsS'brd_k91145395'
p3985
NsS'brd_k53816294'
p3986
NsS'dimethyl_methylphosphonate'
p3987
NsS'cp466722'
p3988
NsS'cetuximab'
p3989
NsS'ncgc00238536_01'
p3990
NsS'laccaic_acid'
p3991
NsS'daunorubicin'
p3992
NsS'bithionate_sodium'
p3993
NsS'saquinavir'
p3994
NsS't0518_4011'
p3995
NsS'gelsemine'
p3996
NsS'brd_k58306044'
p3997
NsS'hy_11001'
p3998
NsS'flurbiprofen'
p3999
NsS'hy_11007'
p4000
NsS'hy_11004'
p4001
NsS'hy_11005'
p4002
NsS'brd_k89059493'
p4003
NsS'hy_11008'
p4004
NsS'ncgc00188536_01'
p4005
NsS'dienestrol'
p4006
NsS'chloroxine'
p4007
NsS'brd_u29336476'
p4008
NsS'pemoline'
p4009
NsS'meloxicam'
p4010
NsS'nevirapine'
p4011
NsS'cholestyramine'
p4012
NsS'ncs_382'
p4013
NsS'toremifene'
p4014
NsS'clomiphene'
p4015
NsS'brd_k20492338'
p4016
NsS'k92817986'
p4017
NsS'brd_k09716788'
p4018
NsS'brd_k40175214'
p4019
NsS'menadione'
p4020
NsS't5715535'
p4021
NsS'brd_k68588778'
p4022
NsS'brd_k37932103'
p4023
NsS'd3943'
p4024
NsS'trovafloxacin'
p4025
NsS'mls_0315852.0002'
p4026
NsS'clopidogrel'
p4027
((F1.0
S'clopidogrel'
p4028
tp4029
S"(st) matching: ratio , lcs, (key,drug) (keynorm,drugnorm 1.0 clopidogrel ('clopidogrel', 'clopidogrel') ('clopidogrel', 'clopidogrel')"
p4030
tp4031
sS'gemcitabine'
p4032
NsS'vitexin'
p4033
NsS'tobramycin'
p4034
NsS'brd_k71670746'
p4035
NsS'ncgc00183399_01'
p4036
NsS'brd_k05452595'
p4037
NsS'rimcazole'
p4038
NsS'bas_09104376'
p4039
NsS'brd_k19196783'
p4040
NsS'pd_166793'
p4041
NsS'brd_k70161581'
p4042
NsS'brd_k11795542'
p4043
NsS'ncgc00186542_01'
p4044
NsS'kin001_043'
p4045
NsS'aminocaproic_acid'
p4046
NsS'dexibuprofen'
p4047
NsS'brd_k94390040'
p4048
NsS'brd_k10010115'
p4049
NsS'alprostadil'
p4050
NsS'ink_128'
p4051
NsS'ql_x_138'
p4052
NsS'brd_k36038115'
p4053
NsS'bms_182874_hydrochloride'
p4054
NsS'palda'
p4055
NsS'tl_hras26_brd_k01877528'
p4056
NsS'salicylamide'
p4057
NsS'brd_k39345836'
p4058
NsS'ncgc00165199_01'
p4059
NsS'kanamycin'
p4060
NsS'dpn'
p4061
NsS'2_2__4_4__5_5__hexachlorobiphenyl'
p4062
NsS'brd_k91937579'
p4063
NsS'brd_k64835161'
p4064
NsS'nadolol'
p4065
NsS'kuc104233_kuc104233n'
p4066
NsS'cilostazol'
p4067
NsS'brd_k89009594'
p4068
NsS'[imino(methylamino)methyl]_[cas]'
p4069
NsS'methylprednisolone'
p4070
((F1.0
S'methylprednisolone'
p4071
tp4072
S"(st) matching: ratio , lcs, (key,drug) (keynorm,drugnorm 1.0 methylprednisolone ('methylprednisolone', 'methylprednisolone') ('methylprednisolone', 'methylprednisolone')"
p4073
tp4074
sS'st4066738'
p4075
NsS'adriamycin'
p4076
NsS'brd_k25737009'
p4077
NsS'sulfaphenazole'
p4078
NsS'zirconium(iv)_chloride'
p4079
NsS'quinine_hemisulfate_salt_monohydrate'
p4080
NsS'l_741_626'
p4081
NsS'pyrrolidinedithiocarbamate_ammonium'
p4082
NsS'amsacrine'
p4083
NsS'xylometazoline_hydrochloride'
p4084
NsS'on_01910'
p4085
NsS'ncgc00188535_01'
p4086
NsS'brd_k46171503'
p4087
NsS'brd_k76938712'
p4088
NsS'skf_81297_hydrobromide'
p4089
NsS'furosemide'
p4090
NsS'depo_medrol'
p4091
NsS'fendiline'
p4092
NsS'brd_a03926027'
p4093
NsS'clomifene'
p4094
NsS'bmy_45778'
p4095
NsS'sb_239063'
p4096
NsS'kw_2449'
p4097
NsS'hy_70044'
p4098
NsS'doxepin'
p4099
NsS'ex_527'
p4100
NsS'fluconazole'
p4101
NsS'nimesulide'
p4102
NsS'brd_k57037351'
p4103
NsS'angiotensin_ii'
p4104
((F1.0
S'angiotensin_ii'
p4105
tp4106
S"(st) matching: ratio , lcs, (key,drug) (keynorm,drugnorm 1.0 angiotensin_ii ('angiotensin_II', 'angiotensin_ii') ('angiotensin_ii', 'angiotensin_ii')"
p4107
tp4108
sS'curcumin_cid'
p4109
NsS'hydrochlorothiazide'
p4110
NsS't5247673'
p4111
NsS'methylergometrine'
p4112
NsS'6_benzylaminopurine'
p4113
NsS'brd_k09186807'
p4114
NsS'iodipamide'
p4115
NsS'milrinone'
p4116
NsS'a112550.cdx'
p4117
NsS'coenzyme_q10'
p4118
NsS'brd_k59470558'
p4119
NsS'evodiamine'
p4120
NsS'mek1/2_inhibitor'
p4121
NsS'brd_k52080565'
p4122
NsS'brd_k52914903'
p4123
NsS'7b_cis'
p4124
NsS'gr_55562_dihydrochloride'
p4125
NsS'brd_k52446745'
p4126
NsS'vegf_receptor_3_kinase_inhibitor__maz51'
p4127
NsS'brd_k29622226'
p4128
NsS'gr_32191_hydrochloride'
p4129
NsS'ncgc00010428_03'
p4130
NsS'jnj_38877605'
p4131
NsS'azd_5438'
p4132
NsS'ag_012559'
p4133
NsS'brd_k62169556'
p4134
NsS'vu0418947_2'
p4135
NsS'phenobarbital_sodium'
p4136
NsS'timolol'
p4137
NsS'ro_08_2750'
p4138
NsS's1005'
p4139
NsS'azacytidine_5'
p4140
NsS'flumethasone'
p4141
NsS'abt_751'
p4142
NsS's1003'
p4143
NsS'doxycycline'
p4144
((F1.0
S'doxycycline'
p4145
tp4146
S"(st) matching: ratio , lcs, (key,drug) (keynorm,drugnorm 1.0 doxycycline ('doxycycline', 'doxycycline') ('doxycycline', 'doxycycline')"
p4147
tp4148
sS'brd_k68038686'
p4149
NsS'brd_a11095214'
p4150
NsS'brd_k05562558'
p4151
NsS'ferrocene'
p4152
NsS'rosiglitazone'
p4153
NsS'chromium'
p4154
NsS'n__(2_aminoethyl)_4_chlorobenzamide_(ro_16_6491)'
p4155
NsS'dibromochloromethane'
p4156
NsS's1481'
p4157
NsS'ms_275'
p4158
NsS's1483'
p4159
NsS's1485'
p4160
NsS'zm_447439'
p4161
NsS'nitrobenzene'
p4162
NsS'brd_k30849099'
p4163
NsS'amphotericin_b'
p4164
NsS'brd_k51454562'
p4165
NsS'0173570_0000'
p4166
NsS'brd_k67619794'
p4167
NsS'mls_0390876'
p4168
NsS's1175'
p4169
NsS'aceclofenac'
p4170
NsS'b581'
p4171
NsS's1176'
p4172
NsS'brd_k93229693'
p4173
NsS'nsc_3852'
p4174
NsS'bms_387032'
p4175
NsS'brd_k03176945'
p4176
NsS'levetiracetam'
p4177
NsS'cefixime'
p4178
NsS'amitriptyline'
p4179
NsS'pertuzumab'
p4180
((F1.0
S'pertuzumab'
p4181
tp4182
S"(st) matching: ratio , lcs, (key,drug) (keynorm,drugnorm 1.0 pertuzumab ('pertuzumab', 'pertuzumab') ('pertuzumab', 'pertuzumab')"
p4183
tp4184
sS'nickel'
p4185
NsS'mepenzolate_bromide_cid'
p4186
NsS'pz0013'
p4187
NsS'brd_k82580504'
p4188
NsS'nemonapride'
p4189
NsS'ncgc00183237_01'
p4190
NsS'brd_k54687541'
p4191
NsS'deoxyrhapontin'
p4192
NsS'wr_216174'
p4193
NsS'indinavir'
p4194
NsS'calpeptin'
p4195
NsS'bromocriptine'
p4196
NsS'monocrotaline'
p4197
NsS'hexachloroethane'
p4198
NsS'brd_k91509126_(piceatannol)'
p4199
NsS'cholic_acid'
p4200
NsS'dirithromycin'
p4201
NsS'fluprostenol'
p4202
NsS'brd_k21165668'
p4203
NsS'luzindole'
p4204
NsS'prednisolone_hemisuccinate'
p4205
NsS'pentamidine'
p4206
NsS'brd_k08325710'
p4207
NsS'prestwick_1080'
p4208
NsS'kn_62'
p4209
NsS'brd_a83124583'
p4210
NsS'brd_k74989018'
p4211
NsS'ncgc00182828_01'
p4212
NsS'brd_k58288048'
p4213
NsS'brd_k96704748'
p4214
NsS'gr_103'
p4215
NsS'buparlisib'
p4216
NsS'gr_105'
p4217
NsS'brd_k32896438'
p4218
NsS'brd_k45878950'
p4219
NsS'gr_109'
p4220
NsS'pp_110'
p4221
NsS'puromycin__2xec50__1d'
p4222
NsS'chloramphenicol'
p4223
NsS'hy_11006'
p4224
NsS'ncgc00012508_02'
p4225
NsS'enoxacin'
p4226
NsS'boldine'
p4227
NsS'rapamycin'
p4228
NsS'metitepine'
p4229
NsS'kin236'
p4230
NsS'vx'
p4231
NsS'brd_k68174511'
p4232
NsS'a2478'
p4233
NsS'melatonin'
p4234
((F1.0
S'melatonin'
p4235
tp4236
S"(st) matching: ratio , lcs, (key,drug) (keynorm,drugnorm 1.0 melatonin ('melatonin', 'melatonin') ('melatonin', 'melatonin')"
p4237
tp4238
sS'mls_0412059'
p4239
NsS'azaperone'
p4240
NsS'ncgc00182616_01'
p4241
NsS'cgp_37157'
p4242
NsS'gabexate_mesylate'
p4243
NsS'ag_494'
p4244
NsS'brd_k51189903'
p4245
NsS'ag_490'
p4246
NsS'allopurinol'
p4247
NsS'brd_a26199074'
p4248
NsS'sirolimus'
p4249
((F1.0
S'sirolimus'
p4250
tp4251
S"(st) matching: ratio , lcs, (key,drug) (keynorm,drugnorm 1.0 sirolimus ('sirolimus', 'sirolimus') ('sirolimus', 'sirolimus')"
p4252
tp4253
sS'hc_toxin'
p4254
NsS'gsk_2334470'
p4255
NsS'brd_k01806521'
p4256
NsS'brd_k10554164'
p4257
NsS'jwe_035'
p4258
NsS'5_aza_2__deoxycytidine'
p4259
NsS'darinaparsin'
p4260
NsS'vindesine'
p4261
NsS'deoxyandirobin_lactone'
p4262
NsS'cefotaxime'
p4263
NsS'brd_k76595177'
p4264
NsS'galantamine'
p4265
NsS'gabapentin'
p4266
NsS'st012030'
p4267
NsS'mk_0591'
p4268
NsS'brd_k58900438'
p4269
NsS't5220758'
p4270
NsS'brd_k90543092'
p4271
NsS'brd_k04156788'
p4272
NsS'suloctidil'
p4273
NsS'pimecrolimus'
p4274
NsS'ncgc00182913_03'
p4275
NsS'cetraxate'
p4276
NsS'brd_k04923131'
p4277
NsS'hy_10159'
p4278
NsS'bucladesine_sodium_salt'
p4279
NsS'ala_ala_phe_cmk'
p4280
NsS'tretinoin'
p4281
((F1.0
S'isotretinoin'
p4282
tp4283
S"(st) matching: ratio , lcs, (key,drug) (keynorm,drugnorm 1.0 tretinoin ('tretinoin', 'isotretinoin') ('tretinoin', 'isotretinoin')"
p4284
tp4285
sS'doxifluridine'
p4286
NsS'km_00927'
p4287
NsS'ncgc00242557_01'
p4288
NsS'idarubicin'
p4289
NsS'narciclasine'
p4290
NsS'dimethyloxalylglycine'
p4291
NsS'trichostatin_a'
p4292
NsS'crizotinib'
p4293
NsS'ici_185_282'
p4294
NsS'hydroquinone'
p4295
NsS'nintedanib'
p4296
((F1.0
S'nintedanib'
p4297
tp4298
S"(st) matching: ratio , lcs, (key,drug) (keynorm,drugnorm 1.0 nintedanib ('nintedanib', 'nintedanib') ('nintedanib', 'nintedanib')"
p4299
tp4300
sS'fluocinonide'
p4301
NsS'brd_k53592093'
p4302
NsS'st4028268'
p4303
NsS'glycine'
p4304
NsS'brd_k70751730'
p4305
NsS'olomoucine'
p4306
NsS'brd_k77681376'
p4307
NsS'cadmium_cid'
p4308
NsS'brd_k99380810'
p4309
NsS'zafirlukast'
p4310
NsS'plx4720_cid'
p4311
NsS'brd_k84762162'
p4312
NsS'eplerenone'
p4313
NsS'tiaprofenic_acid'
p4314
NsS'loperamide'
p4315
NsS'sch_39166_hydrobromide'
p4316
NsS'mls_0390818.0001'
p4317
NsS'ampicillin'
p4318
NsS'brd_k96167523'
p4319
NsS'chlorpropamide'
p4320
NsS'brd_k83048312'
p4321
NsS'brd_k19624190'
p4322
NsS'diphenhydramine'
p4323
NsS's3002'
p4324
NsS'brd_k13794505'
p4325
NsS'gw_583340_dihydrochloride'
p4326
NsS'brd_k08451418'
p4327
NsS'4_nitrotoluene'
p4328
NsS'cabozantinib'
p4329
NsS'valacyclovir'
p4330
NsS'stat3_inhibitor_vi__s31_201'
p4331
NsS'brd_k56343971'
p4332
NsS'brd_a45664787'
p4333
NsS'fosfosal'
p4334
NsS'terbinafine'
p4335
NsS'hg_9_91_01'
p4336
NsS'brd_k18025010'
p4337
NsS'ncgc00183406_01'
p4338
NsS'brd_k42629487'
p4339
NsS'azd7762'
p4340
NsS'brd_k84203638'
p4341
NsS'prednisolone'
p4342
((F1.0
S'methylprednisolone'
p4343
tp4344
S"(st) matching: ratio , lcs, (key,drug) (keynorm,drugnorm 1.0 prednisolone ('prednisolone', 'methylprednisolone') ('prednisolone', 'methylprednisolone')"
p4345
tp4346
sS'trihexyphenidyl'
p4347
NsS'cgp_7930'
p4348
NsS'maprotiline'
p4349
NsS'buflomedil'
p4350
NsS'vinburnine'
p4351
NsS'vidarabine'
p4352
NsS'actinomycin_d'
p4353
NsS'azauridine'
p4354
NsS'brd_k91836367'
p4355
NsS'ranitidine'
p4356
NsS'dihydroergocristine'
p4357
NsS'ag_879'
p4358
NsS'brd_k08640787'
p4359
NsS'brd_u31801276'
p4360
NsS'brd_k63245238'
p4361
NsS'sotalol_hydrochloride'
p4362
NsS'teicoplanin'
p4363
NsS'p5172'
p4364
NsS'norfloxacin'
p4365
NsS'fluticasone_propionate'
p4366
NsS'granisetron'
p4367
NsS'15_delta_prostaglandin_j2'
p4368
NsS'brd_k05114711'
p4369
NsS'cilnidipine'
p4370
NsS'valerate'
p4371
NsS'l_phenylephrine'
p4372
NsS'esculin_hydrate'
p4373
NsS'norcyclobenzaprine'
p4374
NsS'prednicarbate'
p4375
NsS'5707885'
p4376
NsS's1104'
p4377
NsS'diethanolamine'
p4378
NsS'ncgc00242341_01'
p4379
NsS'ibufenac'
p4380
NsS'irinotecan'
p4381
NsS'4_vinylcyclohexene_diepoxide'
p4382
NsS'epirubicin'
p4383
NsS'mk_2206'
p4384
NsS'cabergoline'
p4385
NsS'imatinib'
p4386
((F1.0
S'imatinib_mesylate'
p4387
tp4388
S"Suffix-based-exact-matching ('imatinib', 'imatinib_mesylate') ('imatinib', 'imatinib_mesylate')"
p4389
tp4390
sS'kin001_055'
p4391
NsS'piplartine'
p4392
NsS'pd_158780'
p4393
NsS'thioridazine'
p4394
NsS'n_desmethylclozapine'
p4395
NsS'k784_3188'
p4396
NsS'salubrinal'
p4397
NsS'cephaeline'
p4398
NsS'mls_0425590.0001'
p4399
NsS'sangivamycin_(nsc_65346)'
p4400
NsS'temsirolimus_[ci779]'
p4401
NsS'mrs_1334'
p4402
NsS'tms'
p4403
NsS'propofol'
p4404
((F1.0
S'propofol'
p4405
tp4406
S"(st) matching: ratio , lcs, (key,drug) (keynorm,drugnorm 1.0 propofol ('propofol', 'propofol') ('propofol', 'propofol')"
p4407
tp4408
sS'tivantinib'
p4409
NsS'np_002383'
p4410
NsS'brd_k89843224'
p4411
NsS'carmofur'
p4412
NsS'brd_k36767861'
p4413
NsS'estradiol'
p4414
((F1.0
S'estradiol_patch'
p4415
tp4416
S"(st) matching: ratio , lcs, (key,drug) (keynorm,drugnorm 1.0 estradiol ('estradiol', 'estradiol_patch') ('estradiol', 'estradiol_patch')"
p4417
tp4418
sS's1173'
p4419
NsS'itraconazole'
p4420
NsS'calcitonin'
p4421
NsS'l_6307'
p4422
NsS'brd_k88708949'
p4423
NsS'brd_k68007270'
p4424
NsS'busulfan'
p4425
NsS'curcubitacin_i'
p4426
NsS'brd_a70311631'
p4427
NsS'strophantine_octahydrate'
p4428
NsS'lobendazole'
p4429
NsS'phensuximide'
p4430
NsS'dcb'
p4431
NsS'brd_k69501658'
p4432
NsS'arc_(nsc_188491)'
p4433
NsS'acetylcysteine'
p4434
((F1.0
S'n_acetylcysteine'
p4435
tp4436
S"(st) matching: ratio , lcs, (key,drug) (keynorm,drugnorm 1.0 acetylcysteine ('acetylcysteine', 'n_acetylcysteine') ('acetylcysteine', 'n_acetylcysteine')"
p4437
tp4438
sS'hinokitiol'
p4439
NsS'ssr_69071'
p4440
NsS'brd_k12393722'
p4441
NsS'ntncb_hydrochloride'
p4442
NsS'i_bet'
p4443
NsS'chlortetracycline'
p4444
NsS'brd_a82238138_(budesonide)'
p4445
NsS'sb_225002'
p4446
NsS'proadifen'
p4447
NsS'brd_k04695623'
p4448
NsS'testosterone'
p4449
NsS'androsta_1_4_dien_3_17_dione'
p4450
NsS'oxfendazole'
p4451
NsS'chloroguanide_hydrochloride'
p4452
NsS'brd_k98426715'
p4453
NsS'gsk_690693'
p4454
NsS'chlorcyclizine'
p4455
NsS'k32010074'
p4456
NsS'gliclazide'
p4457
NsS'ethisterone'
p4458
NsS'su11652'
p4459
NsS'efavirenz'
p4460
NsS'k784_3131'
p4461
NsS'brd_k67941506'
p4462
NsS'thiothixene'
p4463
NsS'brd_k16618170'
p4464
NsS'brd_k56653679'
p4465
NsS'brd_k60070073'
p4466
NsS'brd_k10906552'
p4467
NsS'gr_207'
p4468
NsS'z_leu3_vs'
p4469
NsS'brd_k98676510'
p4470
NsS'niridazole'
p4471
NsS'brd_k52321331'
p4472
NsS'brd_k79554012'
p4473
NsS'brd_k83670234'
p4474
NsS'prozac'
p4475
NsS'icilin'
p4476
NsS'brd_k14975149'
p4477
NsS'brd_k85818861'
p4478
NsS'ncgc00186073_01'
p4479
NsS'acetazolamide'
p4480
NsS'flutamide'
p4481
NsS'fluspirilen'
p4482
NsS'stock1n_27488'
p4483
NsS'thimerosal'
p4484
NsS'(+)_jq1'
p4485
NsS'dcc_2036'
p4486
NsS'rifaximin'
p4487
NsS'econazole'
p4488
NsS'brd_k55827386'
p4489
NsS'brd_k45842176'
p4490
NsS's1018'
p4491
NsS's1019'
p4492
NsS'terfenadine'
p4493
NsS's1017'
p4494
NsS's1014'
p4495
NsS'brd_k28115298'
p4496
NsS's1011'
p4497
NsS'ryanodine'
p4498
NsS'mg_262'
p4499
NsS'abt_888_(veliparib)'
p4500
NsS'ncgc00011606_02'
p4501
NsS'brd_k32485462'
p4502
NsS'gtp_14564'
p4503
NsS'quinpirole'
p4504
NsS'dilazep_dihydrochloride'
p4505
NsS'pyrvinium_pamoate'
p4506
NsS'epirubicin_hydrochloride'
p4507
NsS'(_)_cotinine'
p4508
NsS'acitretin'
p4509
NsS'fluphenazine'
p4510
NsS'harpagoside'
p4511
NsS'ossk_647368'
p4512
NsS'bis_tyrphostin'
p4513
NsS'cyclopropane_carboxylic_acid'
p4514
NsS'pf_00562151_00'
p4515
NsS'bexarotene'
p4516
NsS'gamma_linolenic_acid_(18:3_n_6)'
p4517
NsS'phenylbutazone'
p4518
NsS'799264_48_5_mls_0425609'
p4519
NsS'ebastine'
p4520
NsS'brd_k79222491'
p4521
NsS'allyl_alcohol'
p4522
NsS'brd_k45435259'
p4523
NsS's1169'
p4524
NsS'ku_0063794'
p4525
NsS'brd_a27640568'
p4526
NsS'parthenolide'
p4527
NsS'sp_600125'
p4528
NsS'oxindole_i'
p4529
NsS'mometasone_furoate'
p4530
NsS'cytarabine'
p4531
NsS'sch_442416'
p4532
NsS'tipifarnib_p1'
p4533
NsS'tipifarnib_p2'
p4534
NsS'methotrexate'
p4535
((F1.0
S'methotrexate'
p4536
tp4537
S"(st) matching: ratio , lcs, (key,drug) (keynorm,drugnorm 1.0 methotrexate ('methotrexate', 'methotrexate') ('methotrexate', 'methotrexate')"
p4538
tp4539
sS'xmd11_85h'
p4540
NsS'hydrastinine_hydrochloride'
p4541
NsS'selinidin'
p4542
NsS'eo_1428'
p4543
NsS'mls_0315871.0001'
p4544
NsS'brd_k88008216'
p4545
NsS'doxazosin'
p4546
NsS'etilefrine'
p4547
NsS'brd_k51377689'
p4548
NsS'roscovitine'
p4549
NsS'heregulin'
p4550
NsS'brd_k01896723'
p4551
NsS'vitamin_c'
p4552
((F1.0
S'vitamin_c'
p4553
tp4554
S"(st) matching: ratio , lcs, (key,drug) (keynorm,drugnorm 1.0 vitamin_c ('vitamin_C', 'vitamin_c') ('vitamin_c', 'vitamin_c')"
p4555
tp4556
sS'brd_k28610502'
p4557
NsS'vitamin_a'
p4558
NsS'ku_0060648_trihydrochloride'
p4559
NsS'vitamin_e'
p4560
NsS'fipronil'
p4561
NsS'fr_139317'
p4562
NsS'brd_k32112425'
p4563
NsS'foscarnet'
p4564
NsS'cg_930'
p4565
NsS'g_221'
p4566
NsS'4_chloro_2_nitroaniline'
p4567
NsS'serdemetan'
p4568
NsS'simvastatin'
p4569
((F1.0
S'simvastatin'
p4570
tp4571
S"(st) matching: ratio , lcs, (key,drug) (keynorm,drugnorm 1.0 simvastatin ('simvastatin', 'simvastatin') ('simvastatin', 'simvastatin')"
p4572
tp4573
sS'naloxone_benzoylhydrazone'
p4574
NsS'methyl_methanesulfonate'
p4575
NsS'brd_k69159985'
p4576
NsS'3_chloroaniline'
p4577
NsS'ci_976'
p4578
NsS'brd_k77877933'
p4579
NsS'mafenide_hydrochloride'
p4580
NsS'brd_a89907244'
p4581
NsS'brd_k35133769'
p4582
NsS'valproic_acid'
p4583
NsS'brd_k76698671'
p4584
NsS'thioridazine_hydrochloride'
p4585
NsS'aloisine_a'
p4586
NsS'cjd_pla_49_3'
p4587
NsS'8_azaguanine'
p4588
NsS'stk674938'
p4589
NsS'chloroxylenol'
p4590
NsS'pyrazinamide'
p4591
NsS'brd_u64289953'
p4592
NsS'brd_k73155123'
p4593
NsS'amlodipine'
p4594
NsS'mls_0315872.0001'
p4595
NsS'aztreonam'
p4596
NsS'brd_k71489689'
p4597
NsS'gsk_3b_inhibitor_viii'
p4598
NsS'bl_051'
p4599
NsS'foliosidine'
p4600
NsS'benzamil_hydrochloride'
p4601
NsS'calcipotriol'
p4602
NsS'dovitinib'
p4603
NsS'riboflavin'
p4604
NsS'brd_k19181733'
p4605
NsS'brd_k80334323_(norethynodrel)'
p4606
NsS'brd_a37735495'
p4607
NsS'mls_0327420.0002'
p4608
NsS'prestwick_983'
p4609
NsS'fluvoxamine_maleate'
p4610
((F1.0
S'fluvoxamine'
p4611
tp4612
S"Suffix-based-exact-matching ('fluvoxamine maleate', 'fluvoxamine') ('fluvoxamine_maleate', 'fluvoxamine')"
p4613
tp4614
sS'brd_k28100108'
p4615
Ns.