(dp0
S'apo_desipramine'
p1
NsS'vanco_azupharma'
p2
NsS'vascard'
p3
NsS'neogluconin'
p4
NsS'chloroguanide'
p5
NsS'stromectol'
p6
NsS'betaxolol'
p7
NsS'beta_(aminomethyl)_4_chlorobenzenepropanoic_acid'
p8
NsS'vasoclear'
p9
NsS'testotard'
p10
NsS'procainamide'
p11
NsS'nafcillin__sodium'
p12
NsS'vancomicina_norman'
p13
NsS'cupric_sulfate'
p14
NsS'clofelin'
p15
NsS'ergotoxin__dihydro___monomethasulfonate'
p16
NsS'oraminic_2'
p17
NsS'tryptanol'
p18
NsS'sodium_sulamyd'
p19
NsS'beclomet'
p20
NsS'pathocil'
p21
NsS'tubulicid'
p22
NsS'p_aminohippuric_acid'
p23
NsS'gallodesoxycholic_acid'
p24
NsS'citalopram'
p25
NsS'quomen'
p26
NsS'capralense'
p27
NsS'methoxsalen'
p28
NsS'glimepiride'
p29
NsS'lincomycin'
p30
NsS'estradiol__(17_alpha)_isomer'
p31
NsS'stada__fenofibrat'
p32
NsS'gen_fenofibrate'
p33
NsS'2_propylpentanoic_acid'
p34
NsS'dhe_puren'
p35
NsS'methylergobasin'
p36
NsS'ribodoxo'
p37
NsS'immuran'
p38
NsS'furanthril'
p39
NsS'theonite'
p40
NsS'procarbazine'
p41
NsS'brethaire'
p42
NsS'myocholine'
p43
NsS'protriptyline'
p44
NsS'fluoro_ophtal'
p45
NsS'mercaptopurina_wellcome'
p46
NsS'd\xe3\xa9fanyl'
p47
NsS'pindac'
p48
NsS'rolitetracycline'
p49
NsS'faes__etosuximida'
p50
NsS'euphyllin'
p51
NsS'novo_maprotiline'
p52
NsS'pregna_4_6_diene_3_20_dione__17_hydroxy_6_methyl_'
p53
NsS'diazoxide'
p54
NsS'teturam'
p55
NsS'pms_flutamide'
p56
NsS'cephalexin_monohydrate'
p57
NsS'ethmozine'
p58
NsS'debat__f\xe3\xa9nofibrate'
p59
NsS'ribamide'
p60
NsS'bisulfate__chlortetracycline'
p61
NsS'butaliret'
p62
NsS'pms_mefenamic_acid'
p63
NsS'terbul'
p64
NsS'chlortetracycline_hydrochloride'
p65
NsS'bronchocort'
p66
NsS'apo_doxepin'
p67
NsS'ak_zol'
p68
NsS'hemiton'
p69
NsS'voltric'
p70
NsS'lipidil'
p71
NsS'micronor'
p72
NsS'melleril'
p73
NsS'cefuroxime'
p74
NsS'novo_fenofibrate'
p75
NsS'dihydroergotamine'
p76
NsS'amiloride'
p77
NsS'phenelzine'
p78
NsS'trazon'
p79
NsS'lederderm'
p80
NsS'rogaine'
p81
NsS'sodium__dicloxacillin'
p82
NsS'miraclar'
p83
NsS'd_methorphan'
p84
NsS'clonidine'
p85
NsS'dideoxycytidine'
p86
NsS'fursemide'
p87
NsS'quinidine'
p88
NsS'sulfinpyrazone'
p89
NsS'trifluorothymidine'
p90
NsS'cyclogyl'
p91
NsS'procain_jenapharm'
p92
NsS'droncit'
p93
NsS'pms_desipramine'
p94
NsS'trazodone'
p95
NsS'midodrine_hydrochloride'
p96
NsS'amanta_hci_azu'
p97
NsS'amantahciazu'
p98
NsS'fenelzin'
p99
NsS'reserpine'
p100
NsS'filair'
p101
NsS'testopel'
p102
NsS'chlorpromazine'
p103
NsS'glypidizine'
p104
NsS'suxilep'
p105
NsS'clofen'
p106
NsS'pms_bethanechol_chloride'
p107
NsS'polycillin'
p108
NsS'sodium_phenylbutyrate'
p109
NsS'sectrazide'
p110
NsS'ticarcillin'
p111
NsS'rolitetracycline_hydrochloride'
p112
NsS'phthivazid'
p113
NsS'chlorzoxazone'
p114
NsS'quinidine_sulfate'
p115
NsS'elixophyllin'
p116
NsS'histodil'
p117
NsS'synflex'
p118
NsS'gemfibrozil__genrx'
p119
NsS'prostaglandin_e1'
p120
NsS'hydrochloride__clindamycin'
p121
NsS'triprolidine_hydrochloride_anhydrous'
p122
NsS'primidon_holsten'
p123
NsS'2__deoxy_5_(trifluoromethyl)uridine'
p124
NsS'lexapro'
p125
NsS'sustaire'
p126
NsS'sodium_salt__tretinoin'
p127
NsS'urispas'
p128
NsS'diltiazem_malate'
p129
NsS'perphenazine'
p130
NsS'prudoxin'
p131
NsS'lotrimin'
p132
NsS'mercaptopurine'
p133
NsS'norcolut'
p134
NsS'griseofulvin'
p135
NsS'thioridazine_neurazpharm'
p136
NsS'acsis__prednison'
p137
NsS'netilmicin'
p138
NsS'reminyl'
p139
NsS'constantt'
p140
NsS'fluvoxamin_neuraxpharm'
p141
NsS'mellaril'
p142
NsS'vistagan'
p143
NsS'hydrochloride__triprolidine'
p144
NsS'icht_oral'
p145
NsS'viridal'
p146
NsS'mebendan'
p147
NsS'fenofibrat_ratiopharm'
p148
NsS'enalapril_maleate'
p149
NsS'durolax'
p150
NsS'decaject'
p151
NsS'letrozole'
p152
NsS'al__amantadin'
p153
NsS'tedipulmo'
p154
NsS'metoclopramide_hydrochloride'
p155
NsS'trazodon_neuraxpharm'
p156
NsS'paludrin'
p157
NsS'azathioprine_sodium_salt'
p158
NsS'ergocalciferol'
p159
NsS'pro_ulco'
p160
NsS'dibenzyran'
p161
NsS'acid__chenodeoxycholic'
p162
NsS'hypothiazide'
p163
NsS'v_serp'
p164
NsS'folate'
p165
NsS'cyclacillin'
p166
NsS'proglycem'
p167
NsS'cefoperazone'
p168
NsS'metrogel'
p169
NsS'sugiran'
p170
NsS'dexambutol'
p171
NsS'detreomycin'
p172
NsS'dobutamine_tartrate_(1:1)__(s_(r*_r*))_isomer'
p173
NsS'aneurin'
p174
NsS'celecoxib'
p175
NsS'prostin_vr'
p176
NsS'cefotetan_disodium_salt'
p177
NsS'ofloxacin'
p178
NsS'praziquantel'
p179
NsS'elavil'
p180
NsS'nicocap'
p181
NsS'ak_tracin'
p182
NsS'gen_buspirone'
p183
NsS'clobetasol_17_propionate'
p184
NsS'pontal'
p185
NsS'dimenhydrinate'
p186
NsS'klariderm'
p187
NsS'daraprim'
p188
NsS'cetirizine'
p189
NsS'tiamol'
p190
NsS'duraphyllin'
p191
NsS'trifluoperazine'
p192
NsS'magnesium_ascorbate'
p193
NsS'trasicor'
p194
NsS'ditterolina'
p195
NsS'baci_rx'
p196
NsS'loxapine_monohydrochloride'
p197
NsS'cormax'
p198
NsS'sabril'
p199
NsS'doxazosin_wolff'
p200
NsS'estradiol__(+_)_isomer'
p201
NsS'beloc_duriles'
p202
NsS'amiodarone_hydrochloride'
p203
NsS'scotttussin'
p204
NsS'yutopar'
p205
NsS'azacitidine'
p206
NsS'meta_hydroxynorephedrine'
p207
NsS'midodrine'
p208
NsS'metoclopramide'
p209
NsS'retinoic_acid'
p210
NsS'leupurin'
p211
NsS'quibron_t_sr'
p212
NsS'norgeston'
p213
NsS'cetirizin_azu'
p214
NsS'xyloneural'
p215
NsS'alpha_isomer_lovastatin__1'
p216
NsS'novocainamide'
p217
NsS'adamantylamine'
p218
NsS'antibiotic_ks_r1'
p219
NsS'fenofibrat_hexal'
p220
NsS'imipramine_monohydrochloride'
p221
NsS'macrodantin'
p222
NsS'mycophenolic_acid_morpholinoethyl_ester'
p223
NsS'lekoptin'
p224
NsS'primaquine'
p225
NsS'zefazone'
p226
NsS'flusemide'
p227
NsS'tetracycline_hydrochloride'
p228
NsS'saroten'
p229
NsS'nu_gemfibrozil'
p230
NsS'bepridil__alpha_isomer'
p231
NsS'2_(diethylamino)_n_(2_6_dimethylphenyl)acetamide'
p232
NsS'selegiline__(r_s)_isomer'
p233
NsS'eqvalan'
p234
NsS'apo_beclomethasone'
p235
NsS'digezanol'
p236
NsS'trimeprimine'
p237
NsS'furazol'
p238
NsS'ciba34_647ba'
p239
NsS'cephalexin__monosodium_salt__(6r_(6alpha_7beta))_isomer'
p240
NsS'diamidine'
p241
NsS'fluvoxamine'
p242
NsS'niacin_cobalt_(2+)_salt'
p243
NsS'furacillin'
p244
NsS'hydroxyethylidene_diphosphonic_acid'
p245
NsS'amchafibrin'
p246
NsS'pertofran'
p247
NsS'dicumarol'
p248
NsS'hydrochloride__tetrracaine'
p249
NsS'gemfibrozil'
p250
NsS'sulfona'
p251
NsS'succinate__loxapine'
p252
NsS'etidronate'
p253
NsS'mundiphyllin'
p254
NsS'hydralazine_mono_hydrochloride'
p255
NsS'apolabetalol'
p256
NsS'normon__amikacina'
p257
NsS'sustamycin'
p258
NsS'risperidone'
p259
NsS'strefen'
p260
NsS'sulfate__amantadine'
p261
NsS'doxazosin_heumann'
p262
NsS'lipidil_ter'
p263
NsS'bupivacain_rpr'
p264
NsS'bretylium_tosilate'
p265
NsS'methylfluorprednisolone'
p266
NsS'nifedipine_monohydrochloride'
p267
NsS'methocarbamol'
p268
NsS'ciprofloxacin_monohydrochloride_monohydrate'
p269
NsS'apo_baclofen'
p270
NsS'prochlorperazine_edisylate'
p271
NsS'maleate__diethylcarbamazine'
p272
NsS'dobutamin_hexal'
p273
NsS'plendil'
p274
NsS'humatin'
p275
NsS'pms_levobunolol'
p276
NsS'mif\xe3\xa9gyne'
p277
NsS'hydrochloride__mitoxantrone'
p278
NsS'mizodin'
p279
NsS'edrophonium_chloride'
p280
NsS'cisticid'
p281
NsS'aldactone_a'
p282
NsS'melizide'
p283
NsS'kwells'
p284
NsS'pergolide'
p285
NsS'clozapine'
p286
NsS'alfamedin'
p287
NsS'clonidine_monohydrobromide'
p288
NsS'7_epi_taxol'
p289
NsS'laroxyl'
p290
NsS'aureomycin'
p291
NsS'cefamezine'
p292
NsS'novo_buspirone'
p293
NsS'bumetanide'
p294
NsS'heumann__felodipin'
p295
NsS'norplant_2'
p296
NsS'promazine_hydrochloride'
p297
NsS'metoprolol_tartrate'
p298
NsS'arabinofuranosyladenine'
p299
NsS'dihydroergotamine_sandoz'
p300
NsS'ak_sulf'
p301
NsS'sotalol'
p302
NsS'mefenamine'
p303
NsS'sulfate__vancomycin'
p304
NsS'propaphenin'
p305
NsS'etoposide__(5a_alpha_9_alpha)_isomer'
p306
NsS'doxazosin_stada'
p307
NsS'doxorubicine_baxter'
p308
NsS'pmsamantadine'
p309
NsS'etacrynic_acid'
p310
NsS'isopilocarpine'
p311
NsS'syneudon'
p312
NsS'alupent'
p313
NsS'rythmilen'
p314
NsS'procain_steigerwald'
p315
NsS'florisan_n'
p316
NsS'tobramycin'
p317
NsS'mediamix_v_disthelm'
p318
NsS'pcp_gaba'
p319
NsS'primacin'
p320
NsS'imizin'
p321
NsS'kurantil'
p322
NsS'guanethidine_sulfate_(1:1)'
p323
NsS'oxytetracycline'
p324
NsS'mafenide_acetate'
p325
NsS'cefaclor_anhydrous'
p326
NsS'primidone'
p327
NsS'maleate__enalapril'
p328
NsS'lactate__erythromycin'
p329
NsS'triprolidine_oxalate'
p330
NsS'norethisterone'
p331
NsS'phenazo'
p332
NsS'disipal'
p333
NsS'magnorbin'
p334
NsS'benzide'
p335
NsS'leponex'
p336
NsS'alfacid'
p337
NsS'estreptomicina_cepa'
p338
NsS'diethylstilbestrol'
p339
NsS'podophyllotoxin'
p340
NsS'cardene_i.v.'
p341
NsS'bepridil_monohydrochloride'
p342
NsS'dimelor'
p343
NsS'trimipramine_monohydrochloride'
p344
NsS'deprenyl'
p345
NsS'hydrochloride__ethambutol'
p346
NsS'glycinate__theophylline_sodium'
p347
NsS'piperacillin_fresenius'
p348
NsS'orstanorm'
p349
NsS'mesylate__maprotiline'
p350
NsS'gamadiabet'
p351
NsS'digoxina_boehringer'
p352
NsS'l_deprenyl'
p353
NsS'flutagry'
p354
NsS'theo_24'
p355
NsS'taxol__bris'
p356
NsS'nalidixate_sodium_anhydrous'
p357
NsS'beclocort'
p358
NsS'monosodium_salt__cefmetazole'
p359
NsS'diflunisal'
p360
NsS'amidazine'
p361
NsS'truphylline'
p362
NsS'betoptima'
p363
NsS'disopyramide__l_tartrate_(1:1)__(s)_isomer'
p364
NsS'belph_10'
p365
NsS'imipramine'
p366
NsS'condylox'
p367
NsS'pipera_hameln'
p368
NsS'dihydroergotoxine_methanesulfonate'
p369
NsS'omeprazole'
p370
NsS'procainamide_hydrochloride'
p371
NsS'mefoxin'
p372
NsS'sulfate_anhydrous__atropine'
p373
NsS'1_hydroxyethylidene_1_1_bisphosphonate'
p374
NsS'hydroxytyramine'
p375
NsS'androgel'
p376
NsS'cutason'
p377
NsS'kriptin'
p378
NsS'miconazole'
p379
NsS'terbutalin_ratiopharm'
p380
NsS'amoxicillin_monosodium_salt'
p381
NsS'akne_puren'
p382
NsS'amoxicillin'
p383
NsS'vinblastine_sulfate'
p384
NsS'spironone'
p385
NsS'l\xe3\xbcnopharm__reisetabletten'
p386
NsS'meclofenamate__sodium'
p387
NsS'sulfamethizole'
p388
NsS'chlorpropamide'
p389
NsS'iohexol'
p390
NsS'maleate__prochlorperazine'
p391
NsS'prolecofen'
p392
NsS'guanethidine'
p393
NsS'biocoryl'
p394
NsS'propamerck'
p395
NsS'lincomycin_monohydrochloride__hemihydrate'
p396
NsS'17_beta_oestradiol'
p397
NsS'trihexyphenidyl_hydrochloride_elixir'
p398
NsS'guaiphenesin_carbamate'
p399
NsS'reisetabletten_ratiopharm'
p400
NsS'azo_dine'
p401
NsS'econazole'
p402
NsS'ethacrynate_sodium'
p403
NsS'somalgit'
p404
NsS'pimozide'
p405
NsS'diucardin'
p406
NsS'carbamazepine'
p407
NsS'clindamycin_hydrochloride'
p408
NsS'aquazide'
p409
NsS'decortin'
p410
NsS'methazolamide'
p411
NsS'ratio_trazodone'
p412
NsS'etopos'
p413
NsS'lidocaine_sulfate_(1:1)'
p414
NsS'f\xe3\xa9nofibrate_debat'
p415
NsS'finoptin'
p416
NsS'biltricide'
p417
NsS'chloroxacillin'
p418
NsS'azathioprine'
p419
NsS'nu_fluvoxamine'
p420
NsS'apoacetazolamide'
p421
NsS'breonesin'
p422
NsS'microlut'
p423
NsS'klofenil'
p424
NsS'captopril'
p425
NsS'zentel'
p426
NsS'delestrogen'
p427
NsS'monohydrochloride__midodrine'
p428
NsS'nafazair'
p429
NsS'nardil'
p430
NsS'bacitracine_martinet'
p431
NsS'oestrasid'
p432
NsS'cortifair'
p433
NsS'verapamil'
p434
NsS'panacrine'
p435
NsS'triprolidine_monohydrochloride'
p436
NsS'monohydrochloride__bepridil'
p437
NsS'verospiron'
p438
NsS'disulfide__tetraethylthiuram'
p439
NsS'cefoxitin_sodium'
p440
NsS'pyridoxol'
p441
NsS'meclomen'
p442
NsS'contomin'
p443
NsS'sqworm'
p444
NsS'vertigo_vomex'
p445
NsS'arubendol'
p446
NsS'isradipine'
p447
NsS'naftifine'
p448
NsS'apo_flutamide'
p449
NsS'erganton'
p450
NsS'dopamine'
p451
NsS'megestrol'
p452
NsS'wiregyt'
p453
NsS'phenoxybenzamine'
p454
NsS'lincocin'
p455
NsS'metopirone'
p456
NsS'lanoxin_pg'
p457
NsS'andropatch'
p458
NsS'dimethyl_triazeno_imidazole_carboxamide'
p459
NsS'bisacodyl_uniserts'
p460
NsS'dicoumarol'
p461
NsS'synestrol'
p462
NsS'azathioprine_sulfate'
p463
NsS'guaifenesin'
p464
NsS'felodipine'
p465
NsS'novo_diflunisal'
p466
NsS'ethanehydroxyphosphate'
p467
NsS'spirobeta'
p468
NsS'1_3_dimethylxanthine'
p469
NsS'procaine'
p470
NsS'trichazol'
p471
NsS'hydroxytetracycline'
p472
NsS'magnesium__omeprazole'
p473
NsS'becotide'
p474
NsS'mesylate__phentolamine'
p475
NsS'dilanacin'
p476
NsS'kanamycin_sulfate'
p477
NsS'uniphyllin'
p478
NsS'novoprotect'
p479
NsS'clopheline'
p480
NsS'carbastat'
p481
NsS'praziquantel__(s)_isomer'
p482
NsS'paraflex'
p483
NsS'valproate_calcium'
p484
NsS'ergodesit'
p485
NsS'fluvoxamina_geminis'
p486
NsS'orasone'
p487
NsS'piperacillin_monosodium_salt'
p488
NsS'trihexyphenidyl'
p489
NsS'propafenone__(r)_isomer'
p490
NsS'amiloride_hydrochloride'
p491
NsS'mafenide'
p492
NsS'selegiline_hydrochloride__(r_s)_isomer'
p493
NsS'apo_trihex'
p494
NsS'neomycin'
p495
NsS'gastromiro'
p496
NsS'virazide'
p497
NsS'ca_dtpa'
p498
NsS'erythromycin_c'
p499
NsS'1_hydroxyethane_1_1_diphosphonate'
p500
NsS'ondansetron__(r)_isomer'
p501
NsS'imodium'
p502
NsS'toprol'
p503
NsS'eldepryl'
p504
NsS'somophyllin_t'
p505
NsS'ondansetron_hydrochloride'
p506
NsS'diltiazem'
p507
NsS'estradiol__(16_alpha_17_alpha)_isomer'
p508
NsS'torecan'
p509
NsS'moricizine'
p510
NsS'disodium_1_hydroxyethylene_diphosphonate'
p511
NsS'ketotifene'
p512
NsS'fulvicin_u_f'
p513
NsS'orciprenaline'
p514
NsS'mefloquine'
p515
NsS'ethambutol_hydrochloride'
p516
NsS'cytomel'
p517
NsS'asmabec_clickhaler'
p518
NsS'tricor'
p519
NsS'dacarbazine'
p520
NsS'fenofibrate'
p521
NsS'convulsofin'
p522
NsS'fenofibrat_azu'
p523
NsS'doxycycline_hemiethanolate'
p524
NsS'allegron'
p525
NsS'pontocaine'
p526
NsS'lithium_nicotinate'
p527
NsS'omnipaque'
p528
NsS'cephalexin_monohydrochloride'
p529
NsS'hydrallazin'
p530
NsS'desferroxamine'
p531
NsS'carbachol'
p532
NsS'cordarone'
p533
NsS'meladinine'
p534
NsS'genrx_gemfibrozil'
p535
NsS'propofol_mct'
p536
NsS'agostilben'
p537
NsS'lomper'
p538
NsS'desitin__amitriptylin'
p539
NsS'nitrofurazone'
p540
NsS'troxidone'
p541
NsS'minotab'
p542
NsS'decaject_l.a.'
p543
NsS'bromide__neostigmine'
p544
NsS'fluor_op'
p545
NsS'isovue'
p546
NsS'ocutracin'
p547
NsS'ocufen'
p548
NsS'metindamide'
p549
NsS'carisoma'
p550
NsS'oxprenolol'
p551
NsS'chloroquine_sulfate'
p552
NsS'sulfacetamide__monosodium_salt__anhydrous'
p553
NsS'pamelor'
p554
NsS'maprotilin_von_ct'
p555
NsS'bisac_evac'
p556
NsS'nitrate__rolitetracycline'
p557
NsS'imurel'
p558
NsS'cana_dtpa'
p559
NsS'desipramine'
p560
NsS'embay_8440'
p561
NsS'felodipin_heumann'
p562
NsS'eldoral'
p563
NsS'peritol'
p564
NsS'enalapril'
p565
NsS'clomipramine_monohydrochloride'
p566
NsS'chenic_acid'
p567
NsS'1_alpha_isomer_lovastatin'
p568
NsS'2_bromoergocryptine'
p569
NsS'ratio_fluvoxamine'
p570
NsS'niacin'
p571
NsS'boehringer__digoxina'
p572
NsS'dihydrochloride__cetirizine'
p573
NsS'methoxypropiocin'
p574
NsS'maninil'
p575
NsS'metronidazole_monohydrochloride'
p576
NsS'isonicotinic_acid_vanillylidenehydrazide'
p577
NsS'adreson'
p578
NsS'fevarin'
p579
NsS'cefalexin'
p580
NsS'disopyramide__l_tartrate__(s)_isomer'
p581
NsS'triamcinolone'
p582
NsS'felocor'
p583
NsS'novalsan'
p584
NsS'desitriptyline'
p585
NsS'clemastine'
p586
NsS'azidothymidine'
p587
NsS'carbamazepine_hydrochloride'
p588
NsS'syntostigmine'
p589
NsS'oxyphenbutazone'
p590
NsS'carticaine_hydrochloride'
p591
NsS'cephalexin_hemihydrate'
p592
NsS'disulfiram'
p593
NsS'trans_retinoic_acid'
p594
NsS'salt__cefotetan_disodium'
p595
NsS'bisacodyl__fleet'
p596
NsS'mitoxantrone'
p597
NsS'6_aminocaproic_acid'
p598
NsS'flecainid_isis'
p599
NsS'clofibrate'
p600
NsS'ortacrone'
p601
NsS'mesoridazine'
p602
NsS'liothyronine'
p603
NsS'm\xe3\xa9topirone'
p604
NsS'neomycin_sulfate'
p605
NsS'maprotilin_teva'
p606
NsS'moricizine_hydrochloride'
p607
NsS'clindamycin_monohydrochloride'
p608
NsS'tamoxifen'
p609
NsS'halcinonide'
p610
NsS'terazosin'
p611
NsS'diflorasone'
p612
NsS'fradiomycin_sulfate'
p613
NsS'2_desoxy_d_glucose'
p614
NsS'atropine_sulfate_anhydrous'
p615
NsS'colchicine__(r)_isomer'
p616
NsS'folvite'
p617
NsS'tranylcypromine'
p618
NsS'naloxone_hydrochloride'
p619
NsS'terbutalin_stada'
p620
NsS'chlorlincocin'
p621
NsS'benzthiazide'
p622
NsS'apo_buspirone'
p623
NsS'bupropion_hydrochloride'
p624
NsS'diclofenac_potassium'
p625
NsS'bisacodyl'
p626
NsS'altracin'
p627
NsS'contimit'
p628
NsS'ifosfamide'
p629
NsS'ethinyl_estradiol_3_methyl_ether'
p630
NsS'benhydramin'
p631
NsS'tamoxifen_citrate'
p632
NsS'apo_quinidine'
p633
NsS'triiodothyronine'
p634
NsS'sulphadiazine'
p635
NsS'phyllocontin'
p636
NsS'felodipin_abz'
p637
NsS't_amcha'
p638
NsS'rhotrimine'
p639
NsS'trihexane'
p640
NsS'riluzole'
p641
NsS'beconase_aq'
p642
NsS'mino_wolff'
p643
NsS'chlornitromycin'
p644
NsS'acetohexamide'
p645
NsS'dianhydrosorbitol'
p646
NsS'salagen'
p647
NsS'lactate__milrinone'
p648
NsS'azt_(antiviral)'
p649
NsS'etidronic_acid'
p650
NsS'hydrochloride__phenazopyridine'
p651
NsS'chlordelazine'
p652
NsS'iopamiro'
p653
NsS'amphocil'
p654
NsS'apo_methyldopa'
p655
NsS'fenoprofen_calcium'
p656
NsS'tazidime'
p657
NsS'amoxicilline'
p658
NsS'araminol'
p659
NsS'nitrate__miconasil'
p660
NsS'lincomycin_a'
p661
NsS'iproveratril'
p662
NsS'isoptin'
p663
NsS'ratio_flurbiprofen'
p664
NsS'flutaplex'
p665
NsS'apo_diflunisal'
p666
NsS'gen_baclofen'
p667
NsS'hydromedin'
p668
NsS'dicloxsig'
p669
NsS'clonidine_dihydrochloride'
p670
NsS'sodium_glycinate__theophylline'
p671
NsS'leflunomide'
p672
NsS'tampovagan'
p673
NsS'bladuril'
p674
NsS'levomycetin'
p675
NsS'microx'
p676
NsS'novo_doxepin'
p677
NsS'pyrilamine'
p678
NsS'topiramate'
p679
NsS'azonatural'
p680
NsS'acetate__guanabenz'
p681
NsS'infectoflu'
p682
NsS'propofol_lipuro'
p683
NsS'mexiletine_hydrochloride'
p684
NsS'flodil'
p685
NsS'bis(diethylthiocarbamoyl)_disulfide'
p686
NsS'parkinane'
p687
NsS'minocin'
p688
NsS'sulfamylon'
p689
NsS'raupasil'
p690
NsS'tenakrin'
p691
NsS'vancomycin_sulfate'
p692
NsS'nicotinic_acid'
p693
NsS'grispeg'
p694
NsS'methylergonovine'
p695
NsS'kanbine'
p696
NsS'ivermectin'
p697
NsS'dehydrocortisone'
p698
NsS'lodrane'
p699
NsS'vitamin_b9'
p700
NsS'vigabatrin'
p701
NsS'pms_nortriptyline'
p702
NsS'munobal'
p703
NsS'diethylstilbestrol__(z)_isomer'
p704
NsS'diphenhydramine_citrate'
p705
NsS'fungizone'
p706
NsS'sulfate__cupric'
p707
NsS'dimedrol'
p708
NsS'tolmetin_sodium__anhydrous'
p709
NsS'simplotan'
p710
NsS'apo_levobunolol'
p711
NsS'atarax'
p712
NsS'detapac'
p713
NsS'r\xe3\xb6wo_procain'
p714
NsS'apimid'
p715
NsS'1_1_hydroxyethylenediphosphonate'
p716
NsS'remsed'
p717
NsS'gyno_pevaryl'
p718
NsS'hydrochloride__minocycline'
p719
NsS'theopek'
p720
NsS'cefazolin'
p721
NsS'dichlothiazide'
p722
NsS'prepar'
p723
NsS'amfebutamone'
p724
NsS'hydrochloride_anhydrous__ciprofloxacin'
p725
NsS'transamin'
p726
NsS'tevacor'
p727
NsS'hcl__prazosin'
p728
NsS'kendrick'
p729
NsS'pinacidil'
p730
NsS'metoprolol'
p731
NsS'4_epitetracycline'
p732
NsS'retin_a'
p733
NsS'acid__ethacrynic'
p734
NsS'tubocurarine_chloride'
p735
NsS'trimpex'
p736
NsS'dimetane_ten'
p737
NsS'anhydrous__triprolidine_hydrochloride'
p738
NsS'siozwo'
p739
NsS'pms_fluorometholone'
p740
NsS'monitan'
p741
NsS'netromicina'
p742
NsS'myotonine'
p743
NsS'fulvestrant'
p744
NsS'cardil'
p745
NsS'apo_chlorpropamide'
p746
NsS'dantrolene'
p747
NsS'methanesulfonate__2_bromoergocryptine'
p748
NsS'fluticasone'
p749
NsS'escitalopram_oxalate'
p750
NsS'dicloxacillin_sodium'
p751
NsS'folic_acid__monopotassium_salt'
p752
NsS'vikela'
p753
NsS'nu_medopa'
p754
NsS'labetalol'
p755
NsS'sulfate__amikacin'
p756
NsS'fluvoxamin_stada'
p757
NsS'compound_545'
p758
NsS'scopolamine'
p759
NsS'daonil'
p760
NsS'ferrous_ascorbate'
p761
NsS'hydrochloride__doxepin'
p762
NsS'symmetrel'
p763
NsS'deticene'
p764
NsS'pms_amantadine'
p765
NsS'cephotaxim'
p766
NsS'estropipate'
p767
NsS'surfont'
p768
NsS'lysantin'
p769
NsS'mrz_2593_br'
p770
NsS'privin'
p771
NsS'alpha_ara_a'
p772
NsS'vancomycin'
p773
NsS'salt__tretinoin_sodium'
p774
NsS'guaiphenesin'
p775
NsS'sulfazine'
p776
NsS'spirolactone'
p777
NsS'naturetin'
p778
NsS'n_methyl_9_10_ethanoanthracene_9(10h)_propylamine'
p779
NsS'pipcil'
p780
NsS'rhythmodan'
p781
NsS'ozidia'
p782
NsS'carteolol_monohydrochloride'
p783
NsS'amatine'
p784
NsS'novo_gemfibrozil'
p785
NsS'ascorbate__sodium'
p786
NsS'reactine'
p787
NsS'thiamine_mononitrate'
p788
NsS'oxaprozin'
p789
NsS'lidocaine_monohydrochloride__monohydrate'
p790
NsS'pindolol'
p791
NsS'pyridoxine'
p792
NsS'miccil'
p793
NsS'flavoquine'
p794
NsS'timoptic'
p795
NsS'demeclocycline__calcium_(1:2)_salt'
p796
NsS'selegyline'
p797
NsS'thiethylperazine'
p798
NsS'betaloc'
p799
NsS'narcanti'
p800
NsS'pensa__vasoconstrictor'
p801
NsS'genamantadine'
p802
NsS'7_chloro_7_deoxylincomycin'
p803
NsS'ranitidine'
p804
NsS'norfloxacin'
p805
NsS'paclitaxel'
p806
NsS'demeclocycline__4_epimer'
p807
NsS'hexadrol'
p808
NsS'niftolide'
p809
NsS'oxytetracycline_monohydrochloride'
p810
NsS'folic_acid__(dl)_isomer'
p811
NsS'butoconazole'
p812
NsS'agaroletten'
p813
NsS'estradiol_anhydrous'
p814
NsS'eskazine'
p815
NsS'novo_levobunolol'
p816
NsS'ampicillin_sodium'
p817
NsS'bigumal'
p818
NsS'cefadroxil_monohydrate'
p819
NsS'nebupent'
p820
NsS'apo_propafenone'
p821
NsS'furosemide'
p822
NsS'clofibric_acid__ethyl_ester'
p823
NsS'levobunolol_hydrochloride'
p824
NsS'doxazosin'
p825
NsS'ribavirin'
p826
NsS'amitrip'
p827
NsS'cephalexin__(6r_(6alpha_7beta(s*)))_isomer'
p828
NsS'certomycin'
p829
NsS'doxa_puren'
p830
NsS'phentolamine_mesylate'
p831
NsS'glycopyrrolate'
p832
NsS'pipercillin'
p833
NsS'nu_diflunisal'
p834
NsS'2_chloro_11_(1_piperazinyl)dibenz(b_f)(1_4)oxazepine'
p835
NsS'meclofenamic_acid'
p836
NsS'bepridil_monohydrochloride__alpha_isomer'
p837
NsS'naltrexone_hydrochloride'
p838
NsS'methyldopa'
p839
NsS'dysman'
p840
NsS'nystatin_g'
p841
NsS'dopegyt'
p842
NsS'paromomycin_i'
p843
NsS'demolox'
p844
NsS'saquinavir_monomethanesulfonate'
p845
NsS'mydriaticum'
p846
NsS'((2_hexahydro_1(2h)_azocinyl)ethyl)guanidine'
p847
NsS'colchicine'
p848
NsS'chlortetracycline__4_epimer'
p849
NsS'metolazone'
p850
NsS'benzide_m'
p851
NsS'anhydrous_tolmetin_sodium'
p852
NsS'r_r_labetalol'
p853
NsS'reisetabletten_l\xe3\xbcnopharm'
p854
NsS'aquafol'
p855
NsS'hydrochloride__naphazoline'
p856
NsS'prazosin_hcl'
p857
NsS'adriablastine'
p858
NsS'gabapentin'
p859
NsS'antistenocardin'
p860
NsS'lincomycin_monohydrochloride__(2s_cis)_isomer'
p861
NsS'chenix'
p862
NsS'5_trifluoromethyl_2__deoxyuridine'
p863
NsS'felo_puren'
p864
NsS'clobex'
p865
NsS'baxarytmon'
p866
NsS'methanesulfonate__deferoxamine'
p867
NsS'trimipramine__(_)_isomer'
p868
NsS'flucon__isopto'
p869
NsS'urobactam'
p870
NsS'chimax'
p871
NsS'humazolamide'
p872
NsS'2_methyl_5_nitroimidazole_1_ethanol'
p873
NsS'theophyllin_eda_ratiopharm'
p874
NsS'diabinese'
p875
NsS'ranisen'
p876
NsS'mefenamic_acid'
p877
NsS'minocycline__(4r_(4_alpha_4a_beta_5a_beta_12a_beta))_isomer'
p878
NsS'bisoprolol__(_)_isomer'
p879
NsS'reverin'
p880
NsS'acid__trans_retinoic'
p881
NsS'vanceril'
p882
NsS'diaval'
p883
NsS'afonilum'
p884
NsS'metrogyl'
p885
NsS'apo_sulfinpyrazone'
p886
NsS'danizol'
p887
NsS'sulfonyldianiline'
p888
NsS'deferoxamine_mesilate'
p889
NsS'mecamylamine'
p890
NsS'fluocinolide'
p891
NsS'dihydroergotamin_al'
p892
NsS'furadantin'
p893
NsS'propheniramine'
p894
NsS'nifedipine'
p895
NsS'bacitracin_zinc'
p896
NsS'colircusi_tropicamida'
p897
NsS'chlorotetracycline'
p898
NsS'terbutaline'
p899
NsS'bayvit__gemfibrozilo'
p900
NsS'norethindrone'
p901
NsS'nymalize'
p902
NsS'niacin_lithium_salt__hemihydrate'
p903
NsS'trazodonneuraxpharm'
p904
NsS'nalone'
p905
NsS'isoniazid'
p906
NsS'banworm'
p907
NsS'cephuroxime'
p908
NsS'metrizamide'
p909
NsS'maprotilin_holsten'
p910
NsS'ethambutol'
p911
NsS'13_cis_retinoic_acid'
p912
NsS'dienestrol__(z_z)_isomer'
p913
NsS'guanabenz_acetate_wyeth_ayerst'
p914
NsS'amantadine'
p915
NsS'cytovene'
p916
NsS'selegiline_hydrochloride'
p917
NsS'carbostesin'
p918
NsS'homatropine'
p919
NsS'praxel'
p920
NsS'aldizem'
p921
NsS'oxytetracycline_anhydrous'
p922
NsS'sulfate__quinidine'
p923
NsS'orphenadrine'
p924
NsS'dentomycin'
p925
NsS'2_6_dichlorobenzylideneaminoguanidine'
p926
NsS'4_4__diaminophenyl_sulfone'
p927
NsS'arabinosyladenine'
p928
NsS'diflamil'
p929
NsS'scopolamine_cooper'
p930
NsS'carbamazepine_phosphate'
p931
NsS'norpregneninolone'
p932
NsS'etoposide__(5s)_isomer'
p933
NsS'cl\xe3\xa9ridium'
p934
NsS'contramareo'
p935
NsS'dextromethorphan_hydrochloride'
p936
NsS'triazide'
p937
NsS'tropicamide_faure'
p938
NsS'4h_carbazol_4_one__1_2_3_9_tetrahydro_9_methyl_3_((2_methyl_1h_imidazol_1_yl)methyl)_'
p939
NsS'novo_mexiletine'
p940
NsS'demethyl_epipodophyllotoxin_ethylidine_glucoside'
p941
NsS'hydrochloride__chlorpromazine'
p942
NsS'doxazomerck'
p943
NsS'dalcaine'
p944
NsS'albendazole'
p945
NsS'endoplus'
p946
NsS'niacin_zinc_salt'
p947
NsS'ascorbate__ferrous'
p948
NsS'prilocaine'
p949
NsS'molindone_monohydrochloride'
p950
NsS'trimethoprim'
p951
NsS'all_trans_retinoic_acid'
p952
NsS'disopyramide_phosphate_(1:1)__(+_)_isomer'
p953
NsS'methoxa_dome'
p954
NsS'cerebramed'
p955
NsS'theo_von_ct'
p956
NsS'gen_nortriptyline'
p957
NsS'metaprel'
p958
NsS'dixarit'
p959
NsS'disopyramide__(r)_isomer'
p960
NsS'3_hydroxy_l_tyrosine'
p961
NsS'ocutropic'
p962
NsS'fenofibrat_fph'
p963
NsS'oxsoralen_ultra'
p964
NsS'rifabutine'
p965
NsS'tacrine'
p966
NsS'bromocriptine'
p967
NsS'theophylline_anhydrous'
p968
NsS'athromidin'
p969
NsS'novo_acebutolol'
p970
NsS'ratio_bisacodyl'
p971
NsS'nasobec_aqueous'
p972
NsS'clotrimazole'
p973
NsS'hydrochloride__niacin'
p974
NsS'histerone'
p975
NsS'cinoxacin'
p976
NsS'brulamycin'
p977
NsS'hydrocortisone__(11_alpha)_isomer'
p978
NsS'erythromycin'
p979
NsS'lipantil'
p980
NsS'felodipin_stada'
p981
NsS'bepadin'
p982
NsS'adriblastine'
p983
NsS'fugerel'
p984
NsS'citanest'
p985
NsS'slo_phyllin'
p986
NsS'oxpentifylline'
p987
NsS'cefixime_trihydrate'
p988
NsS'isosorbide'
p989
NsS'naphazoline'
p990
NsS'fresofol'
p991
NsS'proazamine'
p992
NsS'para_aminohippuric_acid'
p993
NsS'diethylcarbamazine_l_tartrate_(1:1)'
p994
NsS'glipizide'
p995
NsS'rolitetracycline_mononitrate__sesquihydrate'
p996
NsS'timacar'
p997
NsS'laxans_ratiopharm'
p998
NsS'd_norgestrel'
p999
NsS'hydrochloride__guanfacine'
p1000
NsS'palpitine'
p1001
NsS'ticlodone'
p1002
NsS'transamine'
p1003
NsS'mexitil'
p1004
NsS'doxazosina_alter'
p1005
NsS'cephalexin'
p1006
NsS'pmslevobunolol'
p1007
NsS'sodium_nalidixic_acid__monohydrate'
p1008
NsS'cetirizine_dihydrochloride'
p1009
NsS'calciferols'
p1010
NsS'metaproterenol_sulfate'
p1011
NsS'dermalog'
p1012
NsS'isotretinoin_zinc_salt__13_cis_isomer'
p1013
NsS'podocon_25'
p1014
NsS'sodium__cloxacillin'
p1015
NsS'nitrumon'
p1016
NsS'tosylate__niacin'
p1017
NsS'dapsone'
p1018
NsS'alfuzosin'
p1019
NsS'8_isotestosterone'
p1020
NsS'gyno_pevaril'
p1021
NsS'magnesium_di_l_ascorbate'
p1022
NsS'sulfasalazine_fna'
p1023
NsS'apo_trazodone'
p1024
NsS'apo_nortriptyline'
p1025
NsS'monohydrochloride__carteolol'
p1026
NsS'doxazosin_mesylate'
p1027
NsS'sodium_salt__cefoperazone'
p1028
NsS'mycophenolate_mofetil_hydrochloride'
p1029
NsS'triptone'
p1030
NsS'imipenem'
p1031
NsS'disodium_etidronate'
p1032
NsS'apo_flurbiprofen'
p1033
NsS'isopropylmeprobamate'
p1034
NsS'tradozone'
p1035
NsS'strepto_hefa'
p1036
NsS'flecainide'
p1037
NsS'enkortolon'
p1038
NsS'altace'
p1039
NsS'sodium__cephazolin'
p1040
NsS'deprenalin'
p1041
NsS'mometasone'
p1042
NsS'pioglitazone'
p1043
NsS'citalopram_hydrobromide'
p1044
NsS'miscleron'
p1045
NsS'nicotinate__lithium'
p1046
NsS'aratac'
p1047
NsS'alcobon'
p1048
NsS'abello__naloxone'
p1049
NsS'carbacholine'
p1050
NsS'curantyl'
p1051
NsS'isobarin'
p1052
NsS'geminis__fluvoxamina'
p1053
NsS'apogemfibrozil'
p1054
NsS'diblocin'
p1055
NsS'fotexina'
p1056
NsS'3_7_dihydro_1_3_dimethyl_1h_purine_2_6_dione'
p1057
NsS'iohexol_350'
p1058
NsS'agapurin'
p1059
NsS'saquinavir'
p1060
NsS'dibenzyline'
p1061
NsS'spironolactone'
p1062
NsS'amantadine_sulfate'
p1063
NsS'finlepsin'
p1064
NsS'salt__prochlorperazine_edisylate'
p1065
NsS'pms_baclofen'
p1066
NsS'apo_mefenamic'
p1067
NsS'ipratropium_bromide__(exo_syn)_isomer'
p1068
NsS'panavir'
p1069
NsS'isopto_carbachol'
p1070
NsS'eufilina_venosa'
p1071
NsS'cetilich'
p1072
NsS'bacitracin'
p1073
NsS'vermox'
p1074
NsS'azo_natural'
p1075
NsS'tobracin'
p1076
NsS'propafenon_hexal'
p1077
NsS'cefmetazole'
p1078
NsS'monolitum'
p1079
NsS'trilafon'
p1080
NsS'tolazamide'
p1081
NsS'novo_doxazosin'
p1082
NsS'loniten'
p1083
NsS'azulfidine_en'
p1084
NsS'theophyllin_edaratiopharm'
p1085
NsS'd_tamin_retard_l.u.t.'
p1086
NsS'apo_feno_micro'
p1087
NsS'amipaque'
p1088
NsS'pms_fenofibrate_micro'
p1089
NsS'rapamune'
p1090
NsS'bisoprolol_fumarate'
p1091
NsS'citrate__diethylcarbamazine'
p1092
NsS'neostigmine_bromide'
p1093
NsS'carisoprodol'
p1094
NsS'ondansetron_monohydrochloride'
p1095
NsS'para_bromdylamine'
p1096
NsS'la__nicardipine'
p1097
NsS'gris_peg'
p1098
NsS'glibenclamide'
p1099
NsS'kanesten'
p1100
NsS'acid__nalidixic'
p1101
NsS'streptomycin'
p1102
NsS'afonilum_retard'
p1103
NsS'sulfanilamide'
p1104
NsS'ratio_nortriptyline'
p1105
NsS'transderm_v'
p1106
NsS'cefotetan'
p1107
NsS'onkoposid'
p1108
NsS'procyclid'
p1109
NsS'amizepine'
p1110
NsS'metronidazole_phosphoester'
p1111
NsS'trimipramin_neurazpharm'
p1112
NsS'purimethol'
p1113
NsS'ketotifen'
p1114
NsS'duraspiron'
p1115
NsS'cephazolin__sodium'
p1116
NsS'nu_baclo'
p1117
NsS'2_deoxy_d_glucose'
p1118
NsS'eulexine'
p1119
NsS'2_(3_benzoylphenyl)propionic_acid'
p1120
NsS'sodium_anhydrous__tolmetin'
p1121
NsS'glyburide'
p1122
NsS'monohydrate__ciprofloxacin_monohydrochloride'
p1123
NsS'becloturmant'
p1124
NsS'procarbazine_monohydrobromide'
p1125
NsS'ergoloid_mesylates'
p1126
NsS'diphenhydramine'
p1127
NsS'doxycycline_monohydrochloride__6_epimer'
p1128
NsS'buspirone'
p1129
NsS'anzatax'
p1130
NsS'dobutamine_phosphate_(1:1)_salt__(_)_isomer'
p1131
NsS'hydroxyzine_dihydrochloride'
p1132
NsS'orthophen'
p1133
NsS'epsilon_aminocaproic_acid'
p1134
NsS'tegretol'
p1135
NsS'novoflutamide'
p1136
NsS'miconazole_nitrate'
p1137
NsS'apressoline'
p1138
NsS'gemfi_1a_pharma'
p1139
NsS'amantadina_llorente'
p1140
NsS'vepesid'
p1141
NsS'guanethidine_sulfate'
p1142
NsS'geroxalen'
p1143
NsS'efflumidex'
p1144
NsS'rytmonorm'
p1145
NsS'fasigin'
p1146
NsS'novo_flutamide'
p1147
NsS'euphyllin_retard'
p1148
NsS'daunoblastine'
p1149
NsS'gentamicin'
p1150
NsS'ddc_(antiviral)'
p1151
NsS'ak_con'
p1152
NsS'parnate'
p1153
NsS'stilbene_estrogen'
p1154
NsS'doxepin_rph'
p1155
NsS'vupral'
p1156
NsS'propantheline_bromide'
p1157
NsS'apothioridazine'
p1158
NsS'trimipramine_maleate_(1:1)__(+)_isomer'
p1159
NsS'heumann__fenofibrat'
p1160
NsS'apotrimip'
p1161
NsS'veroshpiron'
p1162
NsS'isonex'
p1163
NsS'celeston'
p1164
NsS'propylthiouracil'
p1165
NsS'az_threonam'
p1166
NsS'gen_gemfibrozil'
p1167
NsS'monohydrobromide__procarbazine'
p1168
NsS'aprinox'
p1169
NsS'urogesic'
p1170
NsS'2_amino_6_trifluoromethoxybenzothiazole'
p1171
NsS'tropicamide'
p1172
NsS'maprotilin_neuraxpharm'
p1173
NsS'doxamax'
p1174
NsS'ceftotan'
p1175
NsS'bendapar'
p1176
NsS'bronchoparat'
p1177
NsS'midodrin'
p1178
NsS'aminophylline_df'
p1179
NsS'aminobenzyl_penicillin'
p1180
NsS'coliriocilina_sulfacetam'
p1181
NsS'ipratropium_bromide_monohydrate'
p1182
NsS'novo_desipramine'
p1183
NsS'doxacor'
p1184
NsS'ketoprofen'
p1185
NsS'praziquantel__(+_)_isomer'
p1186
NsS'doxazosin_findusfit'
p1187
NsS'2_(4_(4__chlorophenyl)cyclohexyl)_3_hydroxy_1_4_naphthoquinone'
p1188
NsS'solutrast_370'
p1189
NsS'fludrocortisone'
p1190
NsS'cyklokapron'
p1191
NsS'ladogal'
p1192
NsS'furadonine'
p1193
NsS'albalon'
p1194
NsS'acetazolam'
p1195
NsS'nitrofural'
p1196
NsS'cognex'
p1197
NsS'distilb\xe3\xa8ne'
p1198
NsS'prazosin'
p1199
NsS'parkotil'
p1200
NsS'amikacin'
p1201
NsS'n_isopropylatropine'
p1202
NsS'doxazosina_ratiopharm'
p1203
NsS'deferoxamine_methanesulfonate'
p1204
NsS'diphenhydramine_theoclate'
p1205
NsS'piroxicam'
p1206
NsS'propafenone_hydrochloride__(r)_isomer'
p1207
NsS'tacrolimus__anhydrous'
p1208
NsS'bisoprolol'
p1209
NsS'carduran_neo'
p1210
NsS'novo_spiroton'
p1211
NsS'ikaran'
p1212
NsS'depakine'
p1213
NsS'paromomycin_sulfate'
p1214
NsS'albendazole_monohydrochloride'
p1215
NsS'ofloxacin_hydrochloride'
p1216
NsS'dormin'
p1217
NsS'cortril'
p1218
NsS'nadolol'
p1219
NsS'lopirin'
p1220
NsS'anhydrous__imipenem'
p1221
NsS'doxorubicin'
p1222
NsS'oxytetracycline__(4a_beta_5_beta_5a_beta_12a_beta)_isomer'
p1223
NsS'hydrochlorothiazide'
p1224
NsS'loxapine'
p1225
NsS'loperamide_monohydrochloride'
p1226
NsS'doneurin'
p1227
NsS'neostigmine'
p1228
NsS'haloperidol'
p1229
NsS'theophylline'
p1230
NsS'divalproex'
p1231
NsS'viomycins'
p1232
NsS'ribamidyl'
p1233
NsS'cloxacillin'
p1234
NsS'vincaleukoblastine'
p1235
NsS'hydralazine'
p1236
NsS'naloxone_hydrochloride_dihydride'
p1237
NsS'aminosidine'
p1238
NsS'baclof\xe3\xa8ne_irex'
p1239
NsS'6_thiohypoxanthine'
p1240
NsS'tolmetin_sodium'
p1241
NsS'mebendazole'
p1242
NsS'atropine'
p1243
NsS'amphenicols'
p1244
NsS'nalgesic'
p1245
NsS'desmethylimipramine'
p1246
NsS'amantadin_al'
p1247
NsS'sulfate__colistin'
p1248
NsS'acid__retinoic'
p1249
NsS'paromomycin__beta_d_glucopyranosyl_isomer'
p1250
NsS'sulfasalazin_medac'
p1251
NsS'tetracycline'
p1252
NsS'calm_x'
p1253
NsS'triflumann'
p1254
NsS'isoglaucon'
p1255
NsS'nafcillin'
p1256
NsS'grisefuline'
p1257
NsS'cetidura'
p1258
NsS'hydrochloride__loxapine'
p1259
NsS'arestin'
p1260
NsS'fna__sulfamethizol'
p1261
NsS'catapres'
p1262
NsS'flugalin'
p1263
NsS'oxybutynin'
p1264
NsS'etomidate'
p1265
NsS'm_hydroxyphenylpropanolamine'
p1266
NsS'metaclopramide'
p1267
NsS'mycophenolate_sodium'
p1268
NsS'nitrofurantoin'
p1269
NsS'chlortetracycline_sulfate_(1:1)'
p1270
NsS'etidronate__sodium'
p1271
NsS'd.h.e._45'
p1272
NsS'alrheumum'
p1273
NsS'fluvoxadura'
p1274
NsS'1_aminoadamantane'
p1275
NsS'albenza'
p1276
NsS'petylyl'
p1277
NsS'prograf'
p1278
NsS'metyrapone'
p1279
NsS'oxyterracin'
p1280
NsS'periostat'
p1281
NsS'centyl'
p1282
NsS'terconazole'
p1283
NsS'normalip'
p1284
NsS'apo_gemfibrozil'
p1285
NsS'tuberactinomycin_b'
p1286
NsS'vinblastin_hexal'
p1287
NsS'prolixin'
p1288
NsS'5_azacytidine'
p1289
NsS'sodium__dantrolene'
p1290
NsS'nebicin'
p1291
NsS'sulfacetamide'
p1292
NsS'dbl_gemfibrozil'
p1293
NsS'heumann__dimen'
p1294
NsS'moracizine'
p1295
NsS'chloride__bethanechol'
p1296
NsS'progesterone'
p1297
NsS'miostat'
p1298
NsS'bethanechol_chloride'
p1299
NsS'ponalgic'
p1300
NsS'prochlorperazine'
p1301
NsS'cardophyllin'
p1302
NsS'oxprenolol_hydrochloride'
p1303
NsS'nausicalm'
p1304
NsS're_azo'
p1305
NsS'glauconox'
p1306
NsS'sulphamethoxazole'
p1307
NsS'vilona'
p1308
NsS'propitocaine'
p1309
NsS'dibenyline'
p1310
NsS'dramanate'
p1311
NsS'gineflavir'
p1312
NsS'memantine_hydrochloride'
p1313
NsS'becodisks'
p1314
NsS'demeclocycline_hydrochloride'
p1315
NsS'neptal'
p1316
NsS'lisinopril_maleate_(1:1)'
p1317
NsS'corotrope'
p1318
NsS'celestona'
p1319
NsS'guiatuss'
p1320
NsS'mysoline'
p1321
NsS'trichlormethiazide'
p1322
NsS'voltaren'
p1323
NsS'tinidazole'
p1324
NsS'monohydrobromide__clonidine'
p1325
NsS'amiloberag'
p1326
NsS'edisylate_salt__prochlorperazine'
p1327
NsS'dilren'
p1328
NsS'von_ct__ergotam'
p1329
NsS'bayer_5360'
p1330
NsS'propaderm'
p1331
NsS'ab_piperacillin'
p1332
NsS'hydrochloride__buspirone'
p1333
NsS'diphosphonate__disodium_1_hydroxyethylene'
p1334
NsS'pre_par'
p1335
NsS'tioguanine'
p1336
NsS'hydroxyphenylpropanolamine'
p1337
NsS'pms_buspirone'
p1338
NsS'dapson_fatol'
p1339
NsS'mofetil_hydrochloride__mycophenolate'
p1340
NsS'xanthotoxin'
p1341
NsS'tetrakain'
p1342
NsS'dextromethorphan_hydrobromide__monohydrate'
p1343
NsS'cyproheptadine'
p1344
NsS'pentamidine'
p1345
NsS'mesylate__2_bromoergocryptine'
p1346
NsS'hcl__metformin'
p1347
NsS'(s)_1_((1_1_dimethylethyl)amino)_3_((4_(4_morpholinyl)_1_2_5_thiadazol_3_yl)oxy)_2_propanol'
p1348
NsS'novocaine'
p1349
NsS'neomycin_e'
p1350
NsS'doxorubicina_funk'
p1351
NsS'korinfar'
p1352
NsS'baclospas'
p1353
NsS'cefobid'
p1354
NsS'pepcid'
p1355
NsS'amodiaquine_hydrochloride'
p1356
NsS'trifluridine'
p1357
NsS'redergin'
p1358
NsS'triprolidine'
p1359
NsS'acid__chenic'
p1360
NsS'prinivil'
p1361
NsS'pentamidine_isethionate'
p1362
NsS'fluta_gry'
p1363
NsS'niacin_tartrate'
p1364
NsS'aristocort'
p1365
NsS'ganciclovir__monosodium_salt'
p1366
NsS'hydrochloride__ranitidine'
p1367
NsS'ketorolac'
p1368
NsS'metformin'
p1369
NsS'carteolol'
p1370
NsS'clamoxyl_g.a.'
p1371
NsS'tindurine'
p1372
NsS'camoquine'
p1373
NsS'azu__fenofibrat'
p1374
NsS'nitrate__pilocarpine'
p1375
NsS'trimipramine_maleate_(1:1)__(_)_isomer'
p1376
NsS'imidobenzyle'
p1377
NsS'acid__azolinic'
p1378
NsS'cordipine'
p1379
NsS'regitine'
p1380
NsS'ceftazidime'
p1381
NsS'nu_buspirone'
p1382
NsS'citrate__norflex_orphenadrine'
p1383
NsS'flecainide__5_ho_n_(6_oxo)_derivative__(+_)_isomer'
p1384
NsS'drogenil'
p1385
NsS'phenergan'
p1386
NsS'vorigeno'
p1387
NsS'sulfamethizol_fna'
p1388
NsS'decitabine'
p1389
NsS'dhe_45'
p1390
NsS'dihydride__naloxone_hydrochloride'
p1391
NsS'isopromethazine'
p1392
NsS'cortisone'
p1393
NsS'octadine'
p1394
NsS'propeshia'
p1395
NsS'alpha_methyl_l_dopa'
p1396
NsS'colo_pleon'
p1397
NsS'b_12__vitamin'
p1398
NsS'sustanon'
p1399
NsS'oxytetracycline__disodium_salt__dihydrate'
p1400
NsS'cimetidine'
p1401
NsS'marcaine'
p1402
NsS'spirono_isis'
p1403
NsS'paroxetine_hydrochloride_hemihydrate'
p1404
NsS'ultracef'
p1405
NsS'zantac'
p1406
NsS'bromocriptine_mesylate'
p1407
NsS'fluvastatin'
p1408
NsS'exemestane'
p1409
NsS'ciclacillin'
p1410
NsS'atropinol'
p1411
NsS'glycerol_guaiacolate'
p1412
NsS'hydrochloride__nortriptyline'
p1413
NsS'glycopyrronium_bromide'
p1414
NsS'danazol_ratiopharm'
p1415
NsS'dicalcium_etidronate'
p1416
NsS'flecainide__(r)_isomer'
p1417
NsS'loxipine_succinate'
p1418
NsS'sulphapyridine'
p1419
NsS'nu_trazodone'
p1420
NsS'sulfate__chloroquine'
p1421
NsS'ortoton'
p1422
NsS'bretylium_tosylate'
p1423
NsS'pryleugan'
p1424
NsS'famotidine_hydrochloride'
p1425
NsS'dicloxacillin'
p1426
NsS'infecto_flu'
p1427
NsS'dehidrobenzperidol'
p1428
NsS'terramycin'
p1429
NsS'monohydrochloride__doxazosin'
p1430
NsS'acid__all_trans_retinoic'
p1431
NsS'euglucon_5'
p1432
NsS'melipramine'
p1433
NsS'ratio_buspirone'
p1434
NsS'progesterone__(13_alpha_17_alpha)_(+_)_isomer'
p1435
NsS'cyclopentolate'
p1436
NsS'n_(4_(4_(2_pyrimidinyl)_1_piperazinyl)butyl)_1_cyclopentanediacetamide'
p1437
NsS'lisinopril'
p1438
NsS'cetalerg'
p1439
NsS'dimetane'
p1440
NsS'nystatin'
p1441
NsS'fungicidin'
p1442
NsS'amitriptylin_beta'
p1443
NsS'doxycycline_monohydrate'
p1444
NsS'amitriptyline'
p1445
NsS'ethymal'
p1446
NsS'amodiaquine'
p1447
NsS'mono_hydrochloride__phentolamine'
p1448
NsS'fenoprain'
p1449
NsS'mevinolin'
p1450
NsS'ratio_levobunolol'
p1451
NsS'atrofen'
p1452
NsS'quenobilan'
p1453
NsS'sertan'
p1454
NsS'dulco_lax'
p1455
NsS'biodramina'
p1456
NsS'gemfibrozil__sbpa'
p1457
NsS'disodium__cefotetan'
p1458
NsS'apodoxepin'
p1459
NsS'dobutamina_inibsa'
p1460
NsS'levomethorphan'
p1461
NsS'sulfacetam__coliriocilina'
p1462
NsS'serentil'
p1463
NsS'hydrochloride__procarbazine'
p1464
NsS'ceporexine'
p1465
NsS'dobutamin_ratiopharm'
p1466
NsS'gen_doxazosin'
p1467
NsS'procetofen__antara_micronized'
p1468
NsS'primacor'
p1469
NsS'cimetidine_hcl'
p1470
NsS'alclometasone'
p1471
NsS'mitoxantrone_hydrochloride'
p1472
NsS'niacin_magnesium_salt'
p1473
NsS'ratio_doxazosin'
p1474
NsS'allerdryl'
p1475
NsS'hydrochloride__dobutamine'
p1476
NsS'progynova'
p1477
NsS'zinc_salt__tretinoin'
p1478
NsS'mycophenolic_acid'
p1479
NsS'amicar'
p1480
NsS'scott_tussin'
p1481
NsS'norflex'
p1482
NsS'nico400'
p1483
NsS'ratiotrazodone'
p1484
NsS'tiazac'
p1485
NsS'piperacillin'
p1486
NsS'etmozin'
p1487
NsS'colistin'
p1488
NsS'dolobis'
p1489
NsS'metoclopramide_monohydrochloride'
p1490
NsS'alpha_6_deoxyoxytetracycline'
p1491
NsS'dexamethasone'
p1492
NsS'permax'
p1493
NsS'mirena'
p1494
NsS'diuramide'
p1495
NsS'caproamin'
p1496
NsS'predate'
p1497
NsS'3__azido_2__3__dideoxythymidine'
p1498
NsS'bupropion'
p1499
NsS'phentolamine_mono_hydrochloride'
p1500
NsS'nifurazolidone'
p1501
NsS'laxysat_b\xe3\xbcrger'
p1502
NsS'amide__procaine'
p1503
NsS'lin_buspirone'
p1504
NsS'theobid'
p1505
NsS'von_ct__theo'
p1506
NsS'trimethobenzamide'
p1507
NsS'ancotil'
p1508
NsS'clear_eyes'
p1509
NsS'chlorhexidine_acetate'
p1510
NsS'nor_qd'
p1511
NsS'von_ct__felodipin'
p1512
NsS'ciprofloxacin'
p1513
NsS'minocycline'
p1514
NsS'hexalense'
p1515
NsS'isradipine__(r)_isomer'
p1516
NsS'bidocef'
p1517
NsS'co_dergine_mesylate'
p1518
NsS'cyclomen'
p1519
NsS'clobetasol'
p1520
NsS'pentetate_calcium_trisodium'
p1521
NsS'aureocyclin'
p1522
NsS'brainal'
p1523
NsS'amoxicillin_anhydrous'
p1524
NsS'cilpen'
p1525
NsS'niacin_hydrochloride'
p1526
NsS'mini_lix'
p1527
NsS'isobamate'
p1528
NsS'dimen_heumann'
p1529
NsS'pyridiate'
p1530
NsS'vitamin_b_1'
p1531
NsS'pheniramine_bimaleate'
p1532
NsS'danazol'
p1533
NsS'salbutamol'
p1534
NsS'theo_dur'
p1535
NsS'apodiflunisal'
p1536
NsS'levopa'
p1537
NsS'baclof\xe3\xa8neirex'
p1538
NsS'maphenid'
p1539
NsS'podofilox'
p1540
NsS'diatracin'
p1541
NsS'flutamin'
p1542
NsS'kemadrin'
p1543
NsS'cordemcura'
p1544
NsS'disoprivan'
p1545
NsS'hydrochloride__metoclopramide'
p1546
NsS'theophyllamin_jenapharm'
p1547
NsS'sodium_salt__niacin'
p1548
NsS'bwa509u'
p1549
NsS'vinblastine'
p1550
NsS'gramaxin'
p1551
NsS'sodium_naproxenate'
p1552
NsS'tretinoin'
p1553
NsS'hypnomidate'
p1554
NsS'lemblastine'
p1555
NsS'vasoconstrictor_pensa'
p1556
NsS'ks_r1__antibiotic'
p1557
NsS'tolmetin'
p1558
NsS'teva__etoposide'
p1559
NsS'aminophylline'
p1560
NsS'naproxen'
p1561
NsS'9_fluorocortisol'
p1562
NsS'hydrochloride__carticaine'
p1563
NsS'dopamet'
p1564
NsS'spesicor'
p1565
NsS'tolbutamide'
p1566
NsS'sulf_10'
p1567
NsS'dactarin'
p1568
NsS'naphthamidopenicillin'
p1569
NsS'aknin_mino'
p1570
NsS'monohydrochloride__albendazole'
p1571
NsS'4_homosulfanilamide'
p1572
NsS'naphazoline_monohydrochloride'
p1573
NsS'mononitrate__rolitetracycline'
p1574
NsS'biolf_62'
p1575
NsS'albuterol_sulfate'
p1576
NsS'estradiol_17_beta'
p1577
NsS'litarek'
p1578
NsS'tacrolimus'
p1579
NsS'aquaphyllin'
p1580
NsS'dobutamine_(+)_isomer'
p1581
NsS'prostogenat'
p1582
NsS'clofazimine'
p1583
NsS'fluocinonide'
p1584
NsS'repaglinide'
p1585
NsS'juventus__amantadina'
p1586
NsS'stada__reisetabletten'
p1587
NsS'somophyllin'
p1588
NsS'normodyne'
p1589
NsS'cloxacillin__sodium'
p1590
NsS'ftivazide'
p1591
NsS'(s)_1_(3_mercapto_2_methyl_1_oxopropyl)_l_proline'
p1592
NsS'cinobac'
p1593
NsS'hydrochloride__daunorubicin'
p1594
NsS'lincomycin__(2s_cis)_isomer'
p1595
NsS'novaldex'
p1596
NsS'transderm_scop'
p1597
NsS'tetraethylthioperoxydicarbonic_diamide__((h2n)c(s))2s2'
p1598
NsS'aciclovir'
p1599
NsS'metoprolol_cr_xl'
p1600
NsS'betaxolol_hydrochloride'
p1601
NsS'kestrone'
p1602
NsS'minidiab'
p1603
NsS'dihexazin'
p1604
NsS'novo_dipiradol'
p1605
NsS'cardene'
p1606
NsS'viomycin'
p1607
NsS'copper_sulfate'
p1608
NsS'acid__ascorbic'
p1609
NsS'beclazone_easy_breathe'
p1610
NsS'lycoremine'
p1611
NsS'minoxidil'
p1612
NsS'l_dopa'
p1613
NsS'ergont'
p1614
NsS'benzonatate'
p1615
NsS'primperan'
p1616
NsS'felodipin_ratiopharm'
p1617
NsS'chibro_proscar'
p1618
NsS'di_adreson_f'
p1619
NsS'encortone'
p1620
NsS'topsyne'
p1621
NsS'ticlopidine'
p1622
NsS'cyclomin'
p1623
NsS'surmontil_maleate'
p1624
NsS'piperacillin_sodium'
p1625
NsS'etoposide__alpha_d_glucopyranosyl_isomer'
p1626
NsS'ratio_sulfasalazine'
p1627
NsS'asulfidine'
p1628
NsS'doxo_cell'
p1629
NsS'beta_all_trans_retinoic_acid'
p1630
NsS'phentolamine'
p1631
NsS'biocarbazine'
p1632
NsS'norplant'
p1633
NsS'articaine'
p1634
NsS'neo_naclex'
p1635
NsS'diisopyramide'
p1636
NsS'acid__etacrynic'
p1637
NsS'laxanin'
p1638
NsS'ipratropium'
p1639
NsS'sinophenin'
p1640
NsS'nitrate__naphazoline'
p1641
NsS'aminohippuric_acid'
p1642
NsS'cefotaxim'
p1643
NsS'pluryl'
p1644
NsS'ondansetron'
p1645
NsS'betamethasone'
p1646
NsS'wehgen'
p1647
NsS'ralenova'
p1648
NsS'oxytetracycline_dihydrate'
p1649
NsS'mtw_fenofibrat'
p1650
NsS'rectodelt'
p1651
NsS'pentoxifylline'
p1652
NsS'pentaacetic_acid__diethylenetriamine'
p1653
NsS'rifabutin'
p1654
NsS'prostacur'
p1655
NsS'hydroflumethiazide'
p1656
NsS'nu_nortriptyline'
p1657
NsS'doxazosina_combino_pharm'
p1658
NsS'keclor'
p1659
NsS'vitamin_b_12'
p1660
NsS'hydramycin'
p1661
NsS'midoride'
p1662
NsS'metronidazole'
p1663
NsS'monohydrochloride_dihydrate__ondansetron'
p1664
NsS'mexiletine'
p1665
NsS'tartrate__metaraminol'
p1666
NsS'hydrochloride__amiloride'
p1667
NsS'vancomycine_dakota'
p1668
NsS'sodium_cephazolin'
p1669
NsS'netilmicin_sulfate'
p1670
NsS'syntomycin'
p1671
NsS'puvalen'
p1672
NsS'fentolamin'
p1673
NsS'vitamin_b12'
p1674
NsS'liskantin'
p1675
NsS'tambocor'
p1676
NsS'vancocin'
p1677
NsS'sulfasalazine'
p1678
NsS'flecadura'
p1679
NsS'tropicamide_monohydrochloride__(s)_isomer'
p1680
NsS'566c80_hydroxynaphthoquinone'
p1681
NsS'gamma_vinyl_gamma_aminobutyric_acid'
p1682
NsS'lansoprazole_sodium'
p1683
NsS'theospan'
p1684
NsS'estradiol__(9_beta_17_beta)_isomer'
p1685
NsS'oxyphenylbutazone'
p1686
NsS'fluriproben'
p1687
NsS'clomipramine'
p1688
NsS'imipenem_anhydrous'
p1689
NsS'2_bromoergocryptine_mesylate'
p1690
NsS'methyldiphenylhydramine'
p1691
NsS'caprolest'
p1692
NsS'polstigmine'
p1693
NsS'ethionamide'
p1694
NsS'hydroxynaphthoquinone_566c80'
p1695
NsS'promethazine'
p1696
NsS'rolitetracycline_nitrate'
p1697
NsS'tropicamide__(r)_isomer'
p1698
NsS'isotretinoin'
p1699
NsS'embeline_e'
p1700
NsS'hydrochloride__procyclidine'
p1701
NsS'apo_doxazosin'
p1702
NsS'pilocarpine_nitrate'
p1703
NsS'timolol_maleate__(1:1)_salt'
p1704
NsS'doxazosin_azu'
p1705
NsS'ceftazidime_pentahydrate'
p1706
NsS'anhydrous__pinacidil'
p1707
NsS'raloxifene_hydrochloride'
p1708
NsS'rogitine'
p1709
NsS'biomet400'
p1710
NsS'iso_endoxan'
p1711
NsS'deoxyglucose'
p1712
NsS'chlorpiprazine'
p1713
NsS'budesonide'
p1714
NsS'levobunolol'
p1715
NsS'felo_biochemie'
p1716
NsS'flurbiprofen'
p1717
NsS'minocycline_hydrochloride'
p1718
NsS'amiodarone'
p1719
NsS'fasigyn'
p1720
NsS'hydrochloride__procaine'
p1721
NsS'pentetic_acid'
p1722
NsS'procardia_xl'
p1723
NsS'glidiazinamide'
p1724
NsS'unicordium'
p1725
NsS'memantine'
p1726
NsS'amphotericin_b_colloidal_dispersion'
p1727
NsS'metformin_hcl'
p1728
NsS'rausedyl'
p1729
NsS'ipratropium_bromide'
p1730
NsS'5_thia_1_azabicyclo(4.2.0)oct_2_ene_2_carboxylic_acid__7_((aminophenylacetyl)amino)_3_chloro_8_oxo___(6r_(6alpha_7beta(r*)))_'
p1731
NsS'atosil'
p1732
NsS'v\xe3\xa9p\xe3\xa9side_sandoz'
p1733
NsS'sodium__cefmetazole'
p1734
NsS'obracin'
p1735
NsS'dtic_dome'
p1736
NsS'sulfate__guanethidine'
p1737
NsS'renitek'
p1738
NsS'1_2_3_4_tetrahydroaminoacridine'
p1739
NsS'compound_64716'
p1740
NsS'diphenylhydramine'
p1741
NsS'2_bromoergocryptine_methanesulfonate'
p1742
NsS'salt_etidronate__tetrapotassium'
p1743
NsS'dorzolamide'
p1744
NsS'flecatab'
p1745
NsS'sulfoxyphenylpyrazolidin'
p1746
NsS'methanesulfonate__dihydroergotoxine'
p1747
NsS'disopyramide_phosphate'
p1748
NsS'hydrochloride__proguanil'
p1749
NsS'nico_400'
p1750
NsS'amoxycillin'
p1751
NsS'acetazolamide_sodium__(sterile)'
p1752
NsS'pr\xe3\xb6caine_chlorhydrate_lavoisier'
p1753
NsS'scopace'
p1754
NsS'bisoprolol__fumarate_(2:1)_salt'
p1755
NsS'hydroxyzine_pamoate'
p1756
NsS'carbazepin'
p1757
NsS'etoposide'
p1758
NsS'tetraverin'
p1759
NsS'azt__antiviral'
p1760
NsS'novapirina'
p1761
NsS'hydrobromide__dextromethorphan'
p1762
NsS'penicillin__aminobenzyl'
p1763
NsS'clindamycin'
p1764
NsS'froben'
p1765
NsS'monohydrochloride__guanfacine'
p1766
NsS'probucol'
p1767
NsS'posiject'
p1768
NsS'pipril'
p1769
NsS'lior\xe3\xa9sal'
p1770
NsS'holoxan'
p1771
NsS'6_methylprednisolone'
p1772
NsS'naloxon_ratiopharm'
p1773
NsS'flumid'
p1774
NsS'dynacirc'
p1775
NsS'aknemin'
p1776
NsS'metaproterenol'
p1777
NsS'novo_fluvoxamine'
p1778
NsS'vitamin_d2'
p1779
NsS'aldomet'
p1780
NsS'diclofenac'
p1781
NsS'menadione'
p1782
NsS'disodium__ticarcillin'
p1783
NsS'primafen'
p1784
NsS'cetamide'
p1785
NsS'molindone'
p1786
NsS'fumarate__ketotifen'
p1787
NsS'jutanorm'
p1788
NsS'aerobin'
p1789
NsS'ethosuximide'
p1790
NsS'nitrofurantoin__monohydrate'
p1791
NsS'flubenisolone'
p1792
NsS'pyknolepsinum'
p1793
NsS'vesanoid'
p1794
NsS'n_formimidoylthienamycin'
p1795
NsS'nudiflunisal'
p1796
NsS'paroxetine_hydrochloride'
p1797
NsS'estreptomicina_normon'
p1798
NsS'atromid'
p1799
NsS'nalbuphine'
p1800
NsS'flavoxate'
p1801
NsS'3_pyridinecarboxylic_acid'
p1802
NsS'sulphacetamide'
p1803
NsS'doxycycline_calcium'
p1804
NsS'fenoprofen'
p1805
NsS'albuterol'
p1806
NsS'adrimedac'
p1807
NsS'cyanocobalamin'
p1808
NsS'vibra_tabs'
p1809
NsS'apatef'
p1810
NsS'cefaclor'
p1811
NsS'diphosphate__primaquine'
p1812
NsS'corbionax'
p1813
NsS'4_aminohippuric_acid'
p1814
NsS'panasol'
p1815
NsS'bepridil'
p1816
NsS'apo_acetazolamide'
p1817
NsS'carmustine'
p1818
NsS'zinacef'
p1819
NsS'gen_trazodone'
p1820
NsS'tryptizol'
p1821
NsS'3_4_dihydroxyphenethylamine'
p1822
NsS'pilder'
p1823
NsS'methylergonovine_maleate'
p1824
NsS'm\xe3\xa9foxin'
p1825
NsS'nortriptyline'
p1826
NsS'etidronate__dicalcium'
p1827
NsS'paclitaxel__(4_alpha)_isomer'
p1828
NsS'carboptic'
p1829
NsS'ocu_tropic'
p1830
NsS'clonofilin'
p1831
NsS'streptomycin_sulphate'
p1832
NsS'apoacebutolol'
p1833
NsS'dauno_rubidomycine'
p1834
NsS'flecainide_monoacetate__(s)_isomer'
p1835
NsS'lidocaine_hydrochloride'
p1836
NsS'galanthamine_hydrobromide'
p1837
NsS'vancomycin_hydrochloride'
p1838
NsS'chloromycetin'
p1839
NsS'hydrochloride__rolitetracycline'
p1840
NsS'amiodarex'
p1841
NsS'diethylcarbamazine_citrate_(1:2)'
p1842
NsS'buspirone_hydrochloride'
p1843
NsS'artane'
p1844
NsS'bupivacaina_braun'
p1845
NsS'viocin'
p1846
NsS'zelapar'
p1847
NsS'boro_scopol'
p1848
NsS'canesten'
p1849
NsS'onkotrone'
p1850
NsS'noroxin'
p1851
NsS'tropicamide_monofree'
p1852
NsS'co_dergocrine_mesilate'
p1853
NsS'estrovarin'
p1854
NsS'zyntabac'
p1855
NsS'ticarcillin_disodium'
p1856
NsS'trom__amiduret'
p1857
NsS'promazine'
p1858
NsS'pms_gemfibrozil'
p1859
NsS'dimetabs'
p1860
NsS'nortrilen'
p1861
NsS'doxazosina_normon'
p1862
NsS'ansatipine'
p1863
NsS'amikason_s'
p1864
NsS'hytuss'
p1865
NsS'propafenone_hydrochloride'
p1866
NsS'testoderm'
p1867
NsS'zabien'
p1868
NsS'1_butyl_n_(2_6_dimethylphenyl)_2_piperidinecarboxamide'
p1869
NsS'urokit_doxo_cell'
p1870
NsS'paroxetine'
p1871
NsS'ludiomil'
p1872
NsS'parafon'
p1873
NsS'celiomycin'
p1874
NsS'naproxenate__sodium'
p1875
NsS'11_epicortisol'
p1876
NsS'frumikal'
p1877
NsS'acetopt'
p1878
NsS'dhe_ratiopharm'
p1879
NsS'pyridoxin'
p1880
NsS'sulfadiazine'
p1881
NsS'l_norgestrel'
p1882
NsS'cefoperazone_sodium'
p1883
NsS'keoxifene'
p1884
NsS'lansoprazole'
p1885
NsS'1_amino_3_5_dimethyladamantane'
p1886
NsS'prevacid'
p1887
NsS'cerucal'
p1888
NsS'kerlone'
p1889
NsS'ramace'
p1890
NsS'nabumetone'
p1891
NsS'niopam'
p1892
NsS'estradiol_hemihydrate'
p1893
NsS'pilocarpine'
p1894
NsS'naphcon_forte'
p1895
NsS'budesonide__(s)_isomer'
p1896
NsS'angionorm'
p1897
NsS'ethacrynic_acid'
p1898
NsS'amidal'
p1899
NsS'toprol_xl'
p1900
NsS'9_beta_d_arabinofuranosyladenine'
p1901
NsS'estraderm_tts'
p1902
NsS'novoacebutolol'
p1903
NsS'levodopa'
p1904
NsS'zidovudine'
p1905
NsS'brompheniramine_maleate'
p1906
NsS'iopamidol'
p1907
NsS'maleate__loxipine'
p1908
NsS'ciprofloxacin_hydrochloride_anhydrous'
p1909
NsS'bespar'
p1910
NsS'indapamide'
p1911
NsS'flucytosine'
p1912
NsS'protriptyline_hydrochloride'
p1913
NsS'circanol'
p1914
NsS'sulfamethoxazole'
p1915
NsS'xylocaine'
p1916
NsS'ocu_tracin'
p1917
NsS'progandol_neo'
p1918
NsS'selegiline'
p1919
NsS'capronor'
p1920
NsS'apo_trifluoperazine'
p1921
NsS'anti_worm'
p1922
NsS'theoclate__diphenhydramine'
p1923
NsS'probecid'
p1924
NsS'guanfacine'
p1925
NsS'cephamezine'
p1926
NsS'prednison_acsis'
p1927
NsS'nafcillin_sodium'
p1928
NsS'deferrioxamine_b'
p1929
NsS'carbamazepine_anhydrous'
p1930
NsS'fluoxetine'
p1931
NsS'nalidixic_acid'
p1932
NsS'fumarate__bisoprolol'
p1933
NsS'trifluoroperazine'
p1934
NsS'antaxone'
p1935
NsS'ciclopirox'
p1936
NsS'm\xe3\xa9ladinine'
p1937
NsS'apolevobunolol'
p1938
NsS'hydopa'
p1939
NsS'diclophenac'
p1940
NsS'n_cyano_n__methyl_n___(2_(((5_methyl_1h_imidazol_4_yl)methyl)thio)ethyl)guanidine'
p1941
NsS'curasan__piperacillin'
p1942
NsS'esidrex'
p1943
NsS'desferioximine'
p1944
NsS'9_alpha_fluorohydrocortisone'
p1945
NsS't_stat'
p1946
NsS'dopamine_hydrochloride'
p1947
NsS'amitriptylin_neuraxpharm'
p1948
NsS'podophyllotoxin__(5r_(5_alpha_5a_alpha_8a_alpha_9_beta))_isomer'
p1949
NsS'fortum'
p1950
NsS'ramipril'
p1951
NsS'diacarb'
p1952
NsS'azodine'
p1953
NsS'cefoxitin'
p1954
NsS'winpred'
p1955
NsS'acetonide_21_acetate__fluocinolone'
p1956
NsS'amantadinratiopharm'
p1957
NsS'achromycin'
p1958
NsS'quibron_tsr'
p1959
NsS'c\xe3\xa9fobis'
p1960
NsS'rimetin'
p1961
NsS'procyclidine'
p1962
NsS'2_deoxyglucose'
p1963
NsS'dienestrol__(e_e)_isomer'
p1964
NsS'sterapred'
p1965
NsS'gascop'
p1966
NsS'diaphenylsulfone'
p1967
NsS'genbaclofen'
p1968
NsS'apresoline'
p1969
NsS'amikin'
p1970
NsS'baclofen'
p1971
NsS'nizatidine'
p1972
NsS'arechine'
p1973
NsS'gyno_pervaryl_150'
p1974
NsS'epilincomycin'
p1975
NsS'xidiphon'
p1976
NsS'mydral'
p1977
NsS'droperidol'
p1978
NsS'ratio_desipramine'
p1979
NsS'radenarkon'
p1980
NsS'mefloquine_hydrochloride'
p1981
NsS'robaxin'
p1982
NsS'frusemide'
p1983
NsS'thiozine'
p1984
NsS'cetirigamma'
p1985
NsS'meropenem'
p1986
NsS'bendroflumethiazide'
p1987
NsS'mifepristone'
p1988
NsS'colisticin'
p1989
NsS'doxepin_hydrochloride__cis_trans_isomer_mixture_(approximately_1:5)'
p1990
NsS'nimodipino_bayvit'
p1991
NsS'2_phenethylhydrazine'
p1992
NsS'guanfacine_hydrochloride'
p1993
NsS'methbipyranone'
p1994
NsS'apo_trimip'
p1995
NsS'nativelle__digoxine'
p1996
NsS'desferrioxamine_b'
p1997
NsS'tridione'
p1998
NsS'daunomycin'
p1999
NsS'notezine'
p2000
NsS'thiamine'
p2001
NsS'antabus'
p2002
NsS'coly_mycin'
p2003
NsS'chlortetracycline__calcium_salt'
p2004
NsS'lucenfal'
p2005
NsS'pyrrolidinium__3_((cyclopentylhydroxyphenylacetyl)oxy)_1_1_dimethyl___bromide'
p2006
NsS'trimipramine'
p2007
NsS'niacin_potassium_salt'
p2008
NsS'nimodipin_isis'
p2009
NsS'apo_thioridazine'
p2010
NsS'prothazin'
p2011
NsS'motion_aid'
p2012
NsS'mestranol'
p2013
NsS'apo_dipyridamole'
p2014
NsS'tranexamic_acid'
p2015
NsS'nimodipine'
p2016
NsS'trecator_sc'
p2017
NsS'chloroquine'
p2018
NsS'urocarb'
p2019
NsS'demeclocycline'
p2020
NsS'cortancyl'
p2021
NsS'ceti_tad'
p2022
NsS'triftazin'
p2023
NsS'ganciclovir'
p2024
NsS'lovastatin'
p2025
NsS'ledermycin'
p2026
NsS'eureceptor'
p2027
NsS'novo_trazodone'
p2028
NsS'bupivacaine_monohydrochloride__monohydrate'
p2029
NsS'bupivacaine_carbonate'
p2030
NsS'niacin_ammonium_salt'
p2031
NsS'lopressor'
p2032
NsS'nalidixin'
p2033
NsS'sonapax'
p2034
NsS'iopamidol__(r)_isomer'
p2035
NsS'apo_bisacodyl'
p2036
NsS'prozerin'
p2037
NsS'folic_acid__potassium_salt'
p2038
NsS'nystatin_a2'
p2039
NsS'mifegyne'
p2040
NsS'nubain'
p2041
NsS'fulvicinuf'
p2042
NsS'vanillylidenehydrazide__isonicotinic_acid'
p2043
NsS'amoxapine'
p2044
NsS'farmiblastina'
p2045
NsS'minomycin'
p2046
NsS'hydrochloride_dihydride__naloxone'
p2047
NsS'doxorubicin_nc'
p2048
NsS'thioridazine_hydrochloride'
p2049
NsS'thiethylperazine_malate'
p2050
NsS'tritace'
p2051
NsS'tretinoin_sodium_salt'
p2052
NsS'indium_dtpa'
p2053
NsS'hydrochloride__chlorhexidine'
p2054
NsS'bwa_509u'
p2055
NsS'lorelco'
p2056
NsS'digoxin'
p2057
NsS'ketoconazole'
p2058
NsS'estradiol__(8_alpha_17_beta)_isomer'
p2059
NsS'streptomycin_sulfate_(2:3)_salt'
p2060
NsS'soprodol'
p2061
NsS'pipolfen'
p2062
NsS'prostigmine'
p2063
NsS'paroxetine__cis_(+)_isomer'
p2064
NsS'ansaid'
p2065
NsS'trimineurin_maleate'
p2066
NsS'rytmo_puren'
p2067
NsS'estrone'
p2068
NsS'6_propyl_2_thiouracil'
p2069
NsS'bishydroxycoumarin'
p2070
NsS'atrovent'
p2071
NsS'magnesium_valproate'
p2072
NsS'isofosfamide'
p2073
NsS'apo_dimenhydrinate'
p2074
NsS'awd__baclofen'
p2075
NsS'beta_phenylethylhydrazine'
p2076
NsS'bisolvomycin'
p2077
NsS'procanbid'
p2078
NsS'gerokit'
p2079
NsS'novo_nortriptyline'
p2080
NsS'mtw_doxazosin'
p2081
NsS'ethosuccimid'
p2082
NsS'maprotiline_mesylate'
p2083
NsS'omeprazole_sodium'
p2084
NsS'dexverapamil'
p2085
NsS'sodium__cefotaxime'
p2086
NsS'sodium_para_aminohippurate'
p2087
NsS'biosint'
p2088
NsS'zinc_dtpa'
p2089
NsS'famotidine'
p2090
NsS'mecloprodin'
p2091
NsS'bimaleate__pheniramine'
p2092
NsS'chenofalk'
p2093
NsS'mepyramine'
p2094
NsS'cobalamins'
p2095
NsS'norpramin'
p2096
NsS'rubidomycin'
p2097
NsS'2_6_bis(1_methylethyl)phenol'
p2098
NsS'drenural'
p2099
NsS'wellvone'
p2100
NsS'spiro_l.u.t.'
p2101
NsS'b9__vitamin'
p2102
NsS'novantrone'
p2103
NsS'paromomycin'
p2104
NsS'estrone__(8_alpha)_isomer'
p2105
NsS'stelazine'
p2106
NsS'fluoropos'
p2107
NsS'glupitel'
p2108
NsS'dextromethorphan'
p2109
NsS'6h_purine_6_thione__1_7_dihydro_'
p2110
NsS'metaraminol_bitartrate'
p2111
NsS'nu_flurbiprofen'
p2112
NsS'azthreonam'
p2113
NsS'phenazopyridine'
p2114
NsS'methylergometrine'
p2115
NsS'para_aminohippurate__sodium'
p2116
NsS'zeba_rx'
p2117
NsS'mitroxone'
p2118
NsS'trivazol'
p2119
NsS'naloxone'
p2120
NsS'dobutamine_hydrochloride'
p2121
NsS'wehamine'
p2122
NsS'meclofenamate_sodium_monohydrate'
p2123
NsS'fluocinolone_acetonide_21_acetate'
p2124
NsS'seroxat'
p2125
NsS'estradiol__sodium_salt'
p2126
NsS'thiosulfil'
p2127
NsS'dilacor_xr'
p2128
NsS'orudis'
p2129
NsS'lipo_pge1'
p2130
NsS'orabet'
p2131
NsS'bacitin'
p2132
NsS'natulan'
p2133
NsS'nu_desipramine'
p2134
NsS'dimethylguanylguanidine'
p2135
NsS'2_naphthacenecarboxamide__4_(dimethylamino)_1_4_4a_5_5a_6_11_12a_octahydro_3_5_10_12_12a_pentahydroxy_6_methyl_1_11_dioxo___(4s_(4alpha_4aalpha_5alpha_5aalpha_6alpha_12aalpha))_'
p2136
NsS'anturane'
p2137
NsS'eposin'
p2138
NsS'amikafur'
p2139
NsS'sensorcaine'
p2140
NsS'metaradrin'
p2141
NsS'imidazole_carboxamide__dimethyl'
p2142
NsS'amantadin_ratiopharm'
p2143
NsS'methergine'
p2144
NsS'constant_t'
p2145
NsS'prozac'
p2146
NsS'lofibra'
p2147
NsS'topicycline'
p2148
NsS'trimipramine_maleate'
p2149
NsS'apo_labetalol'
p2150
NsS'zirtek'
p2151
NsS'benuryl'
p2152
NsS'dumirox'
p2153
NsS'asendis'
p2154
NsS'traziquantel'
p2155
NsS'wyeth_ayerst_of_guanabenz_acetate'
p2156
NsS'sodium_chenodeoxycholate'
p2157
NsS'lidocaine_carbonate'
p2158
NsS'mesylate__deferoxamine'
p2159
NsS'brompheniramine'
p2160
NsS'bromocryptin'
p2161
NsS'dobutamine'
p2162
NsS'pilocarpine_hydrochloride'
p2163
NsS'tavist'
p2164
NsS'sodium__lansoprazole'
p2165
NsS'metosyn'
p2166
NsS'dulcolax_perles'
p2167
NsS'phenethylhydrazine'
p2168
NsS'lamprene'
p2169
NsS'mantadix'
p2170
NsS'6_mercaptopurine_monohydrate'
p2171
NsS'prednidib'
p2172
NsS'nalbuphine_hydrochloride'
p2173
NsS'hydrochloride__labetalol'
p2174
NsS'vancomicina_chiesi'
p2175
NsS'ametop'
p2176
NsS'alcon__betaxolol'
p2177
NsS'evista'
p2178
NsS'sulfacyl'
p2179
NsS'hedspa'
p2180
NsS'probenecid'
p2181
NsS'cortone_acetate'
p2182
NsS'carticaine'
p2183
NsS'alcophobin'
p2184
NsS'catapresan'
p2185
NsS'trimethadione'
p2186
NsS'nilstat'
p2187
NsS'n_ethyl_n_(4_pyridylmethyl)tropamide'
p2188
NsS'vermicol'
p2189
NsS'hydrochloride__hydralazine'
p2190
NsS'orphenadrine_citrate'
p2191
NsS'gemhexal'
p2192
NsS'tele_stulln'
p2193
NsS'chlorhexidine'
p2194
NsS'baridium'
p2195
NsS'eto_gry'
p2196
NsS'osnervan'
p2197
NsS'blocadren'
p2198
NsS'monohydrochloride__chlortetracycline'
p2199
NsS'ridene'
p2200
NsS'benecid'
p2201
NsS'albucid'
p2202
NsS'ecobec'
p2203
NsS'anthisan'
p2204
NsS'amoxicillin_trihydrate'
p2205
NsS'vomex_a'
p2206
NsS'nu_fenofibrate'
p2207
NsS'kordaron'
p2208
NsS'napaltan'
p2209
NsS'clomipramine_hydrochloride'
p2210
NsS'proguanil'
p2211
NsS'pentacin'
p2212
NsS'minakne'
p2213
NsS'prednisone'
p2214
NsS'velban'
p2215
NsS'furosemide_monohydrochloride'
p2216
NsS'gen_amantadine'
p2217
NsS'conceplan'
p2218
NsS'anuject'
p2219
NsS'lidocaine'
p2220
NsS'rytmil'
p2221
NsS'prindolol'
p2222
NsS'hydrochloride__flavoxate'
p2223
NsS'propafenone'
p2224
NsS'atropen'
p2225
NsS'2_(2_(1_(4_chlorophenyl)_1_phenylethoxy)ethyl)_1_methylpyrrolidine'
p2226
NsS'nu_mefenamic'
p2227
NsS'disopyramide_phosphate_(1:1)__(s)_isomer'
p2228
NsS'dibencycladine'
p2229
NsS'(2_(4_((4_chlorophenyl)phenylmethyl)_1_piperazinyl)ethoxy)acetic_acid'
p2230
NsS'levonorgestrel'
p2231
NsS'beclomethasone'
p2232
NsS'metipred'
p2233
NsS'bisco_lax'
p2234
NsS'n_methylacetazolamide'
p2235
NsS'tegopen'
p2236
NsS'daunorubicin'
p2237
NsS'insogen'
p2238
NsS'contraflam'
p2239
NsS'gemfibrozilo_bexal'
p2240
NsS'serpivite'
p2241
NsS'naprosyn'
p2242
NsS'progynon_depot'
p2243
NsS'dienestrol'
p2244
NsS'ascorbic_acid'
p2245
NsS'rastinon'
p2246
NsS'lipox_gemfi'
p2247
NsS'procamide'
p2248
NsS'bisoprolol_methanesulfonate_salt'
p2249
NsS'anapsique'
p2250
NsS'sulfapyridine'
p2251
NsS'penamox'
p2252
NsS'fluorometholone'
p2253
NsS'lanacordin'
p2254
NsS'droleptan'
p2255
NsS'ritodrine'
p2256
NsS'virophta'
p2257
NsS'novospiroton'
p2258
NsS'feloran'
p2259
NsS'amukin'
p2260
NsS'ulcolax'
p2261
NsS'pheniramine'
p2262
NsS'artosin'
p2263
NsS'nu_sulfinpyrazone'
p2264
NsS'estradiol_valerate'
p2265
NsS'oxodal'
p2266
NsS'maleate__pyrilamine'
p2267
NsS'aminocaproic_acid'
p2268
NsS'liquid_pred'
p2269
NsS'alprostadil'
p2270
NsS'chenodeoxycholate'
p2271
NsS'cefmetazole_sodium'
p2272
NsS'bepridil__(+_)_isomer'
p2273
NsS'kanamycin'
p2274
NsS'promethazine_hydrochloride'
p2275
NsS'procetofen'
p2276
NsS'pralidoxime'
p2277
NsS'norfenon'
p2278
NsS'lansoprazol'
p2279
NsS'methylprednisolone'
p2280
NsS'adriamycin'
p2281
NsS'iobenguane'
p2282
NsS'kaluril'
p2283
NsS'sodium__omeprazole'
p2284
NsS'ekonazole'
p2285
NsS'dobuject'
p2286
NsS'guanabenz'
p2287
NsS'monohydrochloride__minocycline'
p2288
NsS'hexal__nimodipin'
p2289
NsS'bricanyl_sa'
p2290
NsS'podophyllotoxin__(5r_(5_alpha_5a_beta_8a_alpha_9_beta))_isomer'
p2291
NsS'doxepin'
p2292
NsS'novo_flurprofen'
p2293
NsS'trifluoperazine_hcl'
p2294
NsS'sodium_mefenamine'
p2295
NsS'aquareduct'
p2296
NsS'primaquine_phosphate'
p2297
NsS'novotripramine'
p2298
NsS'netromycin'
p2299
NsS'theovent'
p2300
NsS'6_methylcompactin'
p2301
NsS'flecainide_monoacetate__(+_)_isomer'
p2302
NsS'hydrochloride__fluphenazine'
p2303
NsS'carbinoxamine'
p2304
NsS'cebutid'
p2305
NsS'(1_hydroxyethylene)diphosphonic_acid__tetrapotassium_salt'
p2306
NsS'guanabenz_monoacetate'
p2307
NsS'diethylenetriamine_pentaacetic_acid'
p2308
NsS'nicardipino_seid'
p2309
NsS'cardura'
p2310
NsS'apo_minocycline'
p2311
NsS'beclo_azu'
p2312
NsS'amantadin_stada'
p2313
NsS'erymax'
p2314
NsS'timolol'
p2315
NsS'biphenabid'
p2316
NsS'doxycycline'
p2317
NsS'astonin_h'
p2318
NsS'nicardipine'
p2319
NsS'warticon'
p2320
NsS'danazant'
p2321
NsS'aluminum_salt__niacin'
p2322
NsS'persantine'
p2323
NsS'rosiglitazone'
p2324
NsS'diaphyllin'
p2325
NsS'thyroid_hormone__t3'
p2326
NsS'hyoscine'
p2327
NsS'diethylcarbamazine'
p2328
NsS'pulmicort'
p2329
NsS'salicylazosulfapyridine'
p2330
NsS'naltrexone'
p2331
NsS'amphotericin_b'
p2332
NsS'lenoxin'
p2333
NsS'hydrochloride__demeclocycline'
p2334
NsS'zyban_(anti_smoking)'
p2335
NsS'2_bromo_alpha_ergocryptine'
p2336
NsS'cefixime'
p2337
NsS'ventolin'
p2338
NsS'furazolidone'
p2339
NsS'mono_hydrochloride__hydralazine'
p2340
NsS'concor'
p2341
NsS'ketotiphen'
p2342
NsS'folic_acid'
p2343
NsS'betaloc_astra'
p2344
NsS'monohydrochloride__clindamycin'
p2345
NsS'nuelin_s.a.'
p2346
NsS'espironolactona_mundogen'
p2347
NsS'5_amino_(3_4__bipyridine)_6(1h)_one'
p2348
NsS'dihydrate_tolmetin_sodium'
p2349
NsS'p_aminohippurate'
p2350
NsS'ribovirin'
p2351
NsS'prednison_hexal'
p2352
NsS'beta_ara_a'
p2353
NsS'adaquin'
p2354
NsS'minipress'
p2355
NsS'sodium_anhydrous__nalidixate'
p2356
NsS'trecator'
p2357
NsS'penthanil'
p2358
NsS'melzine'
p2359
NsS'chloramphenicol'
p2360
NsS'lysinopril'
p2361
NsS'nilutamide'
p2362
NsS'trangorex'
p2363
NsS'viarin'
p2364
NsS'fluoxetine_hydrochloride'
p2365
NsS'nifangin'
p2366
NsS'diclofenac__sodium'
p2367
NsS'corinfar'
p2368
NsS'deferoxamine'
p2369
NsS'bethanechol'
p2370
NsS'chloriguane'
p2371
NsS'sirolimus'
p2372
NsS'clamoxyl'
p2373
NsS'benzoic_acid__2_((2_6_dichloro_3_methylphenyl)amino)___monosodium_salt__monohydrate'
p2374
NsS'jutalar'
p2375
NsS'disopyramide'
p2376
NsS'phenoxybenzamine_hydrochloride'
p2377
NsS'lovastatin__1_alpha_isomer'
p2378
NsS'galantamine'
p2379
NsS'risperdal_consta'
p2380
NsS'hydroxyzine'
p2381
NsS'pyrazinamide'
p2382
NsS'pamoate__hydroxyzine'
p2383
NsS'6_mercaptopurine'
p2384
NsS'naloxone_abello'
p2385
NsS'delsym'
p2386
NsS'deptran'
p2387
NsS'sulfacetamide_monosodium_salt'
p2388
NsS'loxapinsuccinate'
p2389
NsS'propofol_abbott'
p2390
NsS'theoconfin_continuous'
p2391
NsS'apo_amitriptyline'
p2392
NsS'oradexon'
p2393
NsS'flunisolide'
p2394
NsS'stamycin'
p2395
NsS'epsikapron'
p2396
NsS'sodium__piperacillin'
p2397
NsS'dobutrex'
p2398
NsS'apocard'
p2399
NsS'duricef'
p2400
NsS'torental'
p2401
NsS'17_beta_hydroxy_4_androsten_3_one'
p2402
NsS'apo_acebutolol'
p2403
NsS'desyrel'
p2404
NsS'tetrapotassium_salt_etidronate'
p2405
NsS'monovent'
p2406
NsS'nicardipine_la'
p2407
NsS'trimox'
p2408
NsS'loperamide'
p2409
NsS'nitrate__econazole'
p2410
NsS'ampicillin'
p2411
NsS'chenodeoxycholic_acid'
p2412
NsS'2__3__dideoxycytidine'
p2413
NsS'beclometasone'
p2414
NsS'paroxetine__trans_(+)_isomer'
p2415
NsS'flufenazin'
p2416
NsS'fluken'
p2417
NsS'finasteride'
p2418
NsS'clidinium_bromide'
p2419
NsS'ponstan_forte'
p2420
NsS'doxorubicin_hexal'
p2421
NsS'hetrazan'
p2422
NsS'miambutol'
p2423
NsS'nivalin'
p2424
NsS'prednisolone'
p2425
NsS'fenofibrat_von_ct'
p2426
NsS'amikacina_medical'
p2427
NsS'ranitidin'
p2428
NsS'maprotiline'
p2429
NsS'huma_zolamide'
p2430
NsS'doxylamine'
p2431
NsS'vibramycin'
p2432
NsS'diethylcarbamazine_monohydrochloride'
p2433
NsS'vidarabine'
p2434
NsS'simvastatin'
p2435
NsS'emb_hefa'
p2436
NsS'sotalol_hydrochloride'
p2437
NsS'terbuturmant'
p2438
NsS'ticlid'
p2439
NsS'oestradiol'
p2440
NsS'demethylimipramine'
p2441
NsS'prednicarbate'
p2442
NsS'fenoprofen__anhydrous__calcium_salt'
p2443
NsS'terry_white_chemists_gemfibrozil'
p2444
NsS'hydrocortisone'
p2445
NsS'zalcitabine'
p2446
NsS'imatinib'
p2447
NsS'tolectin'
p2448
NsS'dipivefrine'
p2449
NsS'acebutolol'
p2450
NsS'thioridazine'
p2451
NsS'antalon'
p2452
NsS'hermes__myo'
p2453
NsS'propofol'
p2454
NsS'dipropyl_acetate'
p2455
NsS'tetracaine'
p2456
NsS'novo_tripramine'
p2457
NsS'disopyramide__d_tartrate_(1:1)__(s)_isomer'
p2458
NsS'namenda'
p2459
NsS'bamalite'
p2460
NsS'oxytetracycline__anhydrous'
p2461
NsS'estradiol'
p2462
NsS'rodovan'
p2463
NsS'digitek'
p2464
NsS'doxycycline_phosphate_(1:1)'
p2465
NsS'dihydroergotamine_methanesulfonate'
p2466
NsS'p_bromdylamine'
p2467
NsS'pyrilamine_maleate'
p2468
NsS'vancocin_hcl'
p2469
NsS'myocet'
p2470
NsS'dynapen'
p2471
NsS'erythromycin_phosphate'
p2472
NsS'valproic_acid'
p2473
NsS'co_dergocrine_mesylate'
p2474
NsS'chlortetracycline'
p2475
NsS'testosterone'
p2476
NsS'celance'
p2477
NsS'fml_liquifilm'
p2478
NsS'solutrast'
p2479
NsS'lanoxicaps'
p2480
NsS'pyrimethamine'
p2481
NsS'dobutamine__(_)_isomer'
p2482
NsS'raloxifene'
p2483
NsS'bisoprolol_fumarate_(1:1)_salt__(+_)_isomer'
p2484
NsS'milrinone'
p2485
NsS'ergocalciferols'
p2486
NsS'zitazonium'
p2487
NsS'zinc_bacitracin'
p2488
NsS'theolair'
p2489
NsS'redergam'
p2490
NsS'pancuronium_bromide'
p2491
NsS'dipyridamole'
p2492
NsS'lincil'
p2493
NsS'cefepime'
p2494
NsS'labetalol__(r_r)_isomer'
p2495
NsS'cyclobenzaprine'
p2496
NsS'invirase'
p2497
NsS'hydrochloride__oxprenolol'
p2498
NsS'sulfamethylisoxazole'
p2499
NsS'histapyridamine'
p2500
NsS'trihydrate__ampicillin'
p2501
NsS'salazopyrin'
p2502
NsS'semisodium_valproate'
p2503
NsS'methyldopate'
p2504
NsS'hydrochloride__clomipramine'
p2505
NsS'felogamma'
p2506
NsS'pentetate__calcium_trisodium'
p2507
NsS'decaspray'
p2508
NsS'acetazolamide'
p2509
NsS'cyclodol'
p2510
NsS'flutamide'
p2511
NsS'diclocil'
p2512
NsS'bumedyl'
p2513
NsS'ponstel'
p2514
NsS'benzhydramine'
p2515
NsS'octocaine'
p2516
NsS'guanethidine_sulfate_(2:1)__14c_labeled'
p2517
NsS'l_ascorbic_acid'
p2518
NsS'halcimat'
p2519
NsS'triamterene'
p2520
NsS'metaraminol'
p2521
NsS'bupivacaine'
p2522
NsS'vancomycin_phosphate_(1:2)__decahydrate'
p2523
NsS'fluphenazine'
p2524
NsS'trans_2_phenylcyclopropylamine'
p2525
NsS'felodipin_al'
p2526
NsS'pripsen_mebendazole'
p2527
NsS'4_hydroxycephalexin'
p2528
NsS'aminazine'
p2529
NsS'anhydrous__tacrolimus'
p2530
NsS'maprotilin_ratiopharm'
p2531
NsS'deltasoralen'
p2532
NsS'dicloxacillin__monosodium_salt__mono_hydrate'
p2533
NsS'pms_trazodone'
p2534
NsS'9_alpha_fludrohydrocortisone'
p2535
NsS'methanesulfonate__dihydroergotamine'
p2536
NsS'amrinone'
p2537
NsS'khingamin'
p2538
NsS'carbamoylcholine'
p2539
NsS'pronestyl'
p2540
NsS'apo_primidone'
p2541
NsS'chingamin'
p2542
NsS'sanasthmyl'
p2543
NsS'sodium__nafcillin'
p2544
NsS'cefotaxime'
p2545
NsS'respocort'
p2546
NsS'maleate__brompheniramine'
p2547
NsS'vitamin_c'
p2548
NsS'paromomycin_sulfate_(1:1)'
p2549
NsS'sinequan'
p2550
NsS'cefadroxil'
p2551
NsS'atovaquone'
p2552
NsS'estomycin'
p2553
NsS'pms_fluvoxamine'
p2554
NsS'fenofanton'
p2555
NsS'aerobec'
p2556
NsS'dantrium'
p2557
NsS'diprazin'
p2558
NsS'quincardine'
p2559
NsS'nu_trimipramine'
p2560
NsS'chlomipramine'
p2561
NsS'triprolidine_monohydrochloride__(z)_isomer'
p2562
NsS'progesterone__(9_beta_10_alpha)_isomer'
p2563
NsS'valproate'
p2564
NsS'levothyroxine_sodium'
p2565
NsS'biklin'
p2566
NsS'dexpak'
p2567
NsS'guaiacol_glyceryl_ether'
p2568
NsS'etoposide_pierre_fabre'
p2569
NsS'paroxetine_acetate'
p2570
NsS'pentamidin'
p2571
NsS'vira_a'
p2572
NsS'von_ct__doxazosin'
p2573
NsS'aztreonam'
p2574
NsS'fluvoxamine_maleate'
p2575
NsS'pinalgesic'
p2576
NsS'trimipramin_azu'
p2577
NsS'procaina_serra'
p2578
NsS'lastet'
p2579
Ns.