(dp0
S'apo_desipramine'
p1
NsS'vanco_azupharma'
p2
NsS'betaxolol'
p3
NsS'neogluconin'
p4
NsS'chloroguanide'
p5
NsS'vascard'
p6
NsS'beta_(aminomethyl)_4_chlorobenzenepropanoic_acid'
p7
NsS'vasoclear'
p8
NsS'testotard'
p9
NsS'procainamide'
p10
NsS'nafcillin__sodium'
p11
NsS'vancomicina_norman'
p12
NsS'cupric_sulfate'
p13
NsS'clofelin'
p14
NsS'ergotoxin__dihydro___monomethasulfonate'
p15
NsS'oraminic_2'
p16
NsS'tryptanol'
p17
NsS'sodium_sulamyd'
p18
NsS'beclomet'
p19
NsS'pathocil'
p20
NsS'tubulicid'
p21
NsS'p_aminohippuric_acid'
p22
NsS'tambocor'
p23
NsS'citalopram'
p24
NsS'quomen'
p25
NsS'capralense'
p26
NsS'methoxsalen'
p27
NsS'glimepiride'
p28
NsS'lincomycin'
p29
NsS'stada__fenofibrat'
p30
NsS'gen_fenofibrate'
p31
NsS'2_propylpentanoic_acid'
p32
NsS'dhe_puren'
p33
NsS'methylergobasin'
p34
NsS'ribodoxo'
p35
NsS'immuran'
p36
NsS'furanthril'
p37
NsS'theonite'
p38
NsS'procarbazine'
p39
NsS'brethaire'
p40
NsS'myocholine'
p41
NsS'protriptyline'
p42
NsS'fluoro_ophtal'
p43
NsS'mercaptopurina_wellcome'
p44
NsS'd\xe3\xa9fanyl'
p45
NsS'pindac'
p46
NsS'leucovorin__(r)_isomer'
p47
NsS'rolitetracycline'
p48
NsS'faes__etosuximida'
p49
NsS'euphyllin'
p50
NsS'novo_maprotiline'
p51
NsS'pregna_4_6_diene_3_20_dione__17_hydroxy_6_methyl_'
p52
NsS'diazoxide'
p53
NsS'teturam'
p54
NsS'pms_flutamide'
p55
NsS'cephalexin_monohydrate'
p56
NsS'ethmozine'
p57
NsS'debat__f\xe3\xa9nofibrate'
p58
NsS'bisulfate__chlortetracycline'
p59
NsS'butaliret'
p60
NsS'pms_mefenamic_acid'
p61
NsS'terbul'
p62
NsS'chlortetracycline_hydrochloride'
p63
NsS'digoxina_boehringer'
p64
NsS'apo_doxepin'
p65
NsS'ak_zol'
p66
NsS'hemiton'
p67
NsS'voltric'
p68
NsS'lipidil'
p69
NsS'micronor'
p70
NsS'melleril'
p71
NsS'cefuroxime'
p72
NsS'novo_fenofibrate'
p73
NsS'dihydroergotamine'
p74
NsS'amiloride'
p75
NsS'phenelzine'
p76
NsS'trazon'
p77
NsS'lederderm'
p78
NsS'rogaine'
p79
NsS'sodium__dicloxacillin'
p80
NsS'miraclar'
p81
NsS'd_methorphan'
p82
NsS'clonidine'
p83
NsS'dideoxycytidine'
p84
NsS'fursemide'
p85
NsS'quinidine'
p86
NsS'sulfinpyrazone'
p87
NsS'trifluorothymidine'
p88
NsS'cyclogyl'
p89
NsS'droncit'
p90
NsS'pms_desipramine'
p91
NsS'trazodone'
p92
NsS'leucovorin'
p93
NsS'midodrine_hydrochloride'
p94
NsS'amantahciazu'
p95
NsS'fenelzin'
p96
NsS'reserpine'
p97
NsS'filair'
p98
NsS'testopel'
p99
NsS'glypidizine'
p100
NsS'suxilep'
p101
NsS'etodolac__(+_)_isomer'
p102
NsS'pms_bethanechol_chloride'
p103
NsS'polycillin'
p104
NsS'sodium_phenylbutyrate'
p105
NsS'sectrazide'
p106
NsS'ticarcillin'
p107
NsS'rolitetracycline_hydrochloride'
p108
NsS'phthivazid'
p109
NsS'chlorzoxazone'
p110
NsS'quinidine_sulfate'
p111
NsS'elixophyllin'
p112
NsS'grispeg'
p113
NsS'gemfibrozil__genrx'
p114
NsS'prostaglandin_e1'
p115
NsS'triprolidine_hydrochloride_anhydrous'
p116
NsS'primidon_holsten'
p117
NsS'2__deoxy_5_(trifluoromethyl)uridine'
p118
NsS'lexapro'
p119
NsS'sustaire'
p120
NsS'urispas'
p121
NsS'perphenazine'
p122
NsS'prudoxin'
p123
NsS'lotrimin'
p124
NsS'mercaptopurine'
p125
NsS'norcolut'
p126
NsS'griseofulvin'
p127
NsS'thioridazine_neurazpharm'
p128
NsS'netilmicin'
p129
NsS'reminyl'
p130
NsS'constantt'
p131
NsS'mellaril'
p132
NsS'vistagan'
p133
NsS'hydrochloride__triprolidine'
p134
NsS'icht_oral'
p135
NsS'sodium_chenodeoxycholate'
p136
NsS'mebendan'
p137
NsS'fenofibrat_ratiopharm'
p138
NsS'enalapril_maleate'
p139
NsS'durolax'
p140
NsS'letrozole'
p141
NsS'al__amantadin'
p142
NsS'tedipulmo'
p143
NsS'metoclopramide_hydrochloride'
p144
NsS'trazodon_neuraxpharm'
p145
NsS'lidocaine_carbonate'
p146
NsS'ergocalciferol'
p147
NsS'dibenzyran'
p148
NsS'acid__chenodeoxycholic'
p149
NsS'hypothiazide'
p150
NsS'v_serp'
p151
NsS'cyclacillin'
p152
NsS'leucovorin__calcium_(1:1)_salt'
p153
NsS'cefoperazone'
p154
NsS'metrogel'
p155
NsS'sugiran'
p156
NsS'dexambutol'
p157
NsS'detreomycin'
p158
NsS'dobutamine_tartrate_(1:1)__(s_(r*_r*))_isomer'
p159
NsS'aneurin'
p160
NsS'celecoxib'
p161
NsS'prostin_vr'
p162
NsS'cefotetan_disodium_salt'
p163
NsS'ofloxacin'
p164
NsS'praziquantel'
p165
NsS'elavil'
p166
NsS'nicocap'
p167
NsS'ak_tracin'
p168
NsS'gen_buspirone'
p169
NsS'clobetasol_17_propionate'
p170
NsS'pontal'
p171
NsS'dimenhydrinate'
p172
NsS'klariderm'
p173
NsS'daraprim'
p174
NsS'cetirizine'
p175
NsS'tiamol'
p176
NsS'duraphyllin'
p177
NsS'trifluoperazine'
p178
NsS'clozapine'
p179
NsS'trasicor'
p180
NsS'ditterolina'
p181
NsS'baci_rx'
p182
NsS'loxapine_monohydrochloride'
p183
NsS'cormax'
p184
NsS'sabril'
p185
NsS'doxazosin_wolff'
p186
NsS'beloc_duriles'
p187
NsS'antalon'
p188
NsS'scotttussin'
p189
NsS'yutopar'
p190
NsS'azacitidine'
p191
NsS'meta_hydroxynorephedrine'
p192
NsS'midodrine'
p193
NsS'metoclopramide'
p194
NsS'leupurin'
p195
NsS'quibron_t_sr'
p196
NsS'norgeston'
p197
NsS'cetirizin_azu'
p198
NsS'xyloneural'
p199
NsS'alpha_isomer_lovastatin__1'
p200
NsS'novocainamide'
p201
NsS'adamantylamine'
p202
NsS'antibiotic_ks_r1'
p203
NsS'fenofibrat_hexal'
p204
NsS'imipramine_monohydrochloride'
p205
NsS'macrodantin'
p206
NsS'mycophenolic_acid_morpholinoethyl_ester'
p207
NsS'primaquine'
p208
NsS'zefazone'
p209
NsS'flusemide'
p210
NsS'tetracycline_hydrochloride'
p211
NsS'saroten'
p212
NsS'nu_gemfibrozil'
p213
NsS'bepridil__alpha_isomer'
p214
NsS'2_(diethylamino)_n_(2_6_dimethylphenyl)acetamide'
p215
NsS'selegiline__(r_s)_isomer'
p216
NsS'hydrochloride__procarbazine'
p217
NsS'apo_beclomethasone'
p218
NsS'digezanol'
p219
NsS'trimeprimine'
p220
NsS'furazol'
p221
NsS'ciba34_647ba'
p222
NsS'cephalexin__monosodium_salt__(6r_(6alpha_7beta))_isomer'
p223
NsS'colistin'
p224
NsS'niacin_cobalt_(2+)_salt'
p225
NsS'furacillin'
p226
NsS'hydroxyethylidene_diphosphonic_acid'
p227
NsS'pertofran'
p228
NsS'dicumarol'
p229
NsS'hydrochloride__tetrracaine'
p230
NsS'gemfibrozil'
p231
NsS'urobactam'
p232
NsS'succinate__loxapine'
p233
NsS'etidronate'
p234
NsS'mundiphyllin'
p235
NsS'hydralazine_mono_hydrochloride'
p236
NsS'apolabetalol'
p237
NsS'normon__amikacina'
p238
NsS'memantine_hydrochloride'
p239
NsS'risperidone'
p240
NsS'sulfate__amantadine'
p241
NsS'doxazosin_heumann'
p242
NsS'lipidil_ter'
p243
NsS'bupivacain_rpr'
p244
NsS'bretylium_tosilate'
p245
NsS'nifedipine_monohydrochloride'
p246
NsS'methocarbamol'
p247
NsS'ciprofloxacin_monohydrochloride_monohydrate'
p248
NsS'apo_baclofen'
p249
NsS'prochlorperazine_edisylate'
p250
NsS'maleate__diethylcarbamazine'
p251
NsS'dobutamin_hexal'
p252
NsS'plendil'
p253
NsS'humatin'
p254
NsS'pms_levobunolol'
p255
NsS'mif\xe3\xa9gyne'
p256
NsS'hydrochloride__mitoxantrone'
p257
NsS'mizodin'
p258
NsS'edrophonium_chloride'
p259
NsS'cisticid'
p260
NsS'raloxifene_hydrochloride'
p261
NsS'ranisen'
p262
NsS'kwells'
p263
NsS'pergolide'
p264
NsS'alfamedin'
p265
NsS'clonidine_monohydrobromide'
p266
NsS'7_epi_taxol'
p267
NsS'laroxyl'
p268
NsS'aureomycin'
p269
NsS'cefamezine'
p270
NsS'novo_buspirone'
p271
NsS'bumetanide'
p272
NsS'heumann__felodipin'
p273
NsS'norplant_2'
p274
NsS'promazine_hydrochloride'
p275
NsS'metoprolol_tartrate'
p276
NsS'arabinofuranosyladenine'
p277
NsS'dihydroergotamine_sandoz'
p278
NsS'ak_sulf'
p279
NsS'sotalol'
p280
NsS'hedspa'
p281
NsS'sulfate__vancomycin'
p282
NsS'doxazosin_stada'
p283
NsS'doxorubicine_baxter'
p284
NsS'pmsamantadine'
p285
NsS'etacrynic_acid'
p286
NsS'isopilocarpine'
p287
NsS'syneudon'
p288
NsS'alupent'
p289
NsS'protriptyline_hydrochloride'
p290
NsS'procain_steigerwald'
p291
NsS'florisan_n'
p292
NsS'tobramycin'
p293
NsS'mediamix_v_disthelm'
p294
NsS'pcp_gaba'
p295
NsS'primacin'
p296
NsS'imizin'
p297
NsS'monosodium_salt_leucovorin'
p298
NsS'guanethidine_sulfate_(1:1)'
p299
NsS'oxytetracycline'
p300
NsS'mafenide_acetate'
p301
NsS'prothazin'
p302
NsS'primidone'
p303
NsS'maleate__enalapril'
p304
NsS'lactate__erythromycin'
p305
NsS'triprolidine_oxalate'
p306
NsS'norethisterone'
p307
NsS'phenazo'
p308
NsS'disipal'
p309
NsS'benzide'
p310
NsS'leponex'
p311
NsS'alfacid'
p312
NsS'estreptomicina_cepa'
p313
NsS'fluoropos'
p314
NsS'podophyllotoxin'
p315
NsS'zeba_rx'
p316
NsS'bepridil_monohydrochloride'
p317
NsS'dimelor'
p318
NsS'trimipramine_monohydrochloride'
p319
NsS'6_mercaptopurine_monohydrate'
p320
NsS'deprenyl'
p321
NsS'hydrochloride__ethambutol'
p322
NsS'glycinate__theophylline_sodium'
p323
NsS'orstanorm'
p324
NsS'mesylate__maprotiline'
p325
NsS'gamadiabet'
p326
NsS'probenecid'
p327
NsS'l_deprenyl'
p328
NsS'flutagry'
p329
NsS'theo_24'
p330
NsS'taxol__bris'
p331
NsS'nalidixate_sodium_anhydrous'
p332
NsS'beclocort'
p333
NsS'monosodium_salt__cefmetazole'
p334
NsS'diflunisal'
p335
NsS'amidazine'
p336
NsS'truphylline'
p337
NsS'betoptima'
p338
NsS'disopyramide__l_tartrate_(1:1)__(s)_isomer'
p339
NsS'belph_10'
p340
NsS'imipramine'
p341
NsS'condylox'
p342
NsS'dihydroergotoxine_methanesulfonate'
p343
NsS'procainamide_hydrochloride'
p344
NsS'betamethasone'
p345
NsS'mefoxin'
p346
NsS'sulfate_anhydrous__atropine'
p347
NsS'nabumetone'
p348
NsS'1_hydroxyethylidene_1_1_bisphosphonate'
p349
NsS'hydroxytyramine'
p350
NsS'androgel'
p351
NsS'kriptin'
p352
NsS'miconazole'
p353
NsS'terbutalin_ratiopharm'
p354
NsS'akne_puren'
p355
NsS'trecator'
p356
NsS'vinblastine_sulfate'
p357
NsS'l\xe3\xbcnopharm__reisetabletten'
p358
NsS'meclofenamate__sodium'
p359
NsS'sulfamethizole'
p360
NsS'chlorpropamide'
p361
NsS'iohexol'
p362
NsS'maleate__prochlorperazine'
p363
NsS'prolecofen'
p364
NsS'guanethidine'
p365
NsS'propamerck'
p366
NsS'lincomycin_monohydrochloride__hemihydrate'
p367
NsS'trihexyphenidyl_hydrochloride_elixir'
p368
NsS'guaiphenesin_carbamate'
p369
NsS'reisetabletten_ratiopharm'
p370
NsS'azo_dine'
p371
NsS'econazole'
p372
NsS'ethacrynate_sodium'
p373
NsS'somalgit'
p374
NsS'd.h.e._45'
p375
NsS'diucardin'
p376
NsS'droperidol'
p377
NsS'carbamazepine'
p378
NsS'aquazide'
p379
NsS'methazolamide'
p380
NsS'ratio_trazodone'
p381
NsS'somophyllin_t'
p382
NsS'f\xe3\xa9nofibrate_debat'
p383
NsS'irinotecan'
p384
NsS'biltricide'
p385
NsS'chloroxacillin'
p386
NsS'azathioprine'
p387
NsS'amanta_hci_azu'
p388
NsS'apoacetazolamide'
p389
NsS'breonesin'
p390
NsS'microlut'
p391
NsS'klofenil'
p392
NsS'avlocardyl'
p393
NsS'zentel'
p394
NsS'monohydrochloride__midodrine'
p395
NsS'nafazair'
p396
NsS'nardil'
p397
NsS'bacitracine_martinet'
p398
NsS'oestrasid'
p399
NsS'panacrine'
p400
NsS'triprolidine_monohydrochloride'
p401
NsS'monohydrochloride__bepridil'
p402
NsS'doxorubicina_funk'
p403
NsS'cefoxitin_sodium'
p404
NsS'pyridoxol'
p405
NsS'meclomen'
p406
NsS'sqworm'
p407
NsS'vertigo_vomex'
p408
NsS'arubendol'
p409
NsS'isradipine'
p410
NsS'dexpropranolol'
p411
NsS'naftifine'
p412
NsS'apo_flutamide'
p413
NsS'erganton'
p414
NsS'dopamine'
p415
NsS'megestrol'
p416
NsS'wiregyt'
p417
NsS'phenoxybenzamine'
p418
NsS'lincocin'
p419
NsS'metopirone'
p420
NsS'lanoxin_pg'
p421
NsS'andropatch'
p422
NsS'dimethyl_triazeno_imidazole_carboxamide'
p423
NsS'bisacodyl_uniserts'
p424
NsS'dicoumarol'
p425
NsS'synestrol'
p426
NsS'guaifenesin'
p427
NsS'felodipine'
p428
NsS'novo_diflunisal'
p429
NsS'leukovorin'
p430
NsS'ethanehydroxyphosphate'
p431
NsS'1_3_dimethylxanthine'
p432
NsS'procaine'
p433
NsS'trichazol'
p434
NsS'hydroxytetracycline'
p435
NsS'becotide'
p436
NsS'mesylate__phentolamine'
p437
NsS'dilanacin'
p438
NsS'kanamycin_sulfate'
p439
NsS'uniphyllin'
p440
NsS'novoprotect'
p441
NsS'clopheline'
p442
NsS'carbastat'
p443
NsS'praziquantel__(s)_isomer'
p444
NsS'apo_sulin'
p445
NsS'valproate_calcium'
p446
NsS'ergodesit'
p447
NsS'pontocaine'
p448
NsS'etodolac__(s)_isomer'
p449
NsS'trihexyphenidyl'
p450
NsS'propafenone__(r)_isomer'
p451
NsS'amiloride_hydrochloride'
p452
NsS'mafenide'
p453
NsS'selegiline_hydrochloride__(r_s)_isomer'
p454
NsS'apo_trihex'
p455
NsS'neomycin'
p456
NsS'gastromiro'
p457
NsS'bisacodyl__fleet'
p458
NsS'ca_dtpa'
p459
NsS'erythromycin_c'
p460
NsS'1_hydroxyethane_1_1_diphosphonate'
p461
NsS'paraflex'
p462
NsS'imodium'
p463
NsS'toprol'
p464
NsS'triprolidine'
p465
NsS'ondansetron_hydrochloride'
p466
NsS'bronchocort'
p467
NsS'torecan'
p468
NsS'orphenadrine'
p469
NsS'disodium_1_hydroxyethylene_diphosphonate'
p470
NsS'ketotifene'
p471
NsS'histodil'
p472
NsS'fulvicin_u_f'
p473
NsS'orciprenaline'
p474
NsS'ethambutol_hydrochloride'
p475
NsS'cytomel'
p476
NsS'dynacirc'
p477
NsS'tricor'
p478
NsS'dacarbazine'
p479
NsS'fenofibrate'
p480
NsS'convulsofin'
p481
NsS'fenofibrat_azu'
p482
NsS'allegron'
p483
NsS'lithium_nicotinate'
p484
NsS'omnipaque'
p485
NsS'cephalexin_monohydrochloride'
p486
NsS'hydrallazin'
p487
NsS'carbachol'
p488
NsS'cefadroxil_monohydrate'
p489
NsS'meladinine'
p490
NsS'genrx_gemfibrozil'
p491
NsS'agostilben'
p492
NsS'lomper'
p493
NsS'desitin__amitriptylin'
p494
NsS'nitrofurazone'
p495
NsS'troxidone'
p496
NsS'minotab'
p497
NsS'prindolol'
p498
NsS'fluor_op'
p499
NsS'ocutracin'
p500
NsS'ocufen'
p501
NsS'metindamide'
p502
NsS'carisoma'
p503
NsS'oxprenolol'
p504
NsS'sulfacetamide__monosodium_salt__anhydrous'
p505
NsS'pamelor'
p506
NsS'maprotilin_von_ct'
p507
NsS'bisac_evac'
p508
NsS'nitrate__rolitetracycline'
p509
NsS'imurel'
p510
NsS'cana_dtpa'
p511
NsS'3_4_dihydroxyphenethylamine'
p512
NsS'desipramine'
p513
NsS'felodipin_heumann'
p514
NsS'eldoral'
p515
NsS'dihydrate_tolmetin_sodium'
p516
NsS'folinate__calcium'
p517
NsS'enalapril'
p518
NsS'clomipramine_monohydrochloride'
p519
NsS'chenic_acid'
p520
NsS'1_alpha_isomer_lovastatin'
p521
NsS'2_bromoergocryptine'
p522
NsS'cetirizine_dihydrochloride'
p523
NsS'boehringer__digoxina'
p524
NsS'etodolic_acid'
p525
NsS'dihydrochloride__cetirizine'
p526
NsS'maninil'
p527
NsS'9_fluorocortisol'
p528
NsS'diblocin'
p529
NsS'mifegyne'
p530
NsS'cetamide'
p531
NsS'disopyramide__l_tartrate__(s)_isomer'
p532
NsS'triamcinolone'
p533
NsS'carisoprodol'
p534
NsS'novalsan'
p535
NsS'desitriptyline'
p536
NsS'apo_buspirone'
p537
NsS'clemastine'
p538
NsS'azidothymidine'
p539
NsS'rytmonorm'
p540
NsS'syntostigmine'
p541
NsS'oxyphenbutazone'
p542
NsS'novo_sundac'
p543
NsS'carticaine_hydrochloride'
p544
NsS'cephalexin_hemihydrate'
p545
NsS'disulfiram'
p546
NsS'salt__cefotetan_disodium'
p547
NsS'galanthamine_hydrobromide'
p548
NsS'mitoxantrone'
p549
NsS'6_aminocaproic_acid'
p550
NsS'flecainid_isis'
p551
NsS'clofibrate'
p552
NsS'triflumann'
p553
NsS'liothyronine'
p554
NsS'm\xe3\xa9topirone'
p555
NsS'neomycin_sulfate'
p556
NsS'maprotilin_teva'
p557
NsS'moricizine_hydrochloride'
p558
NsS'halcinonide'
p559
NsS'terazosin'
p560
NsS'diflorasone'
p561
NsS'fradiomycin_sulfate'
p562
NsS'2_desoxy_d_glucose'
p563
NsS'atropine_sulfate_anhydrous'
p564
NsS'transderm_v'
p565
NsS'tranylcypromine'
p566
NsS'naloxone_hydrochloride'
p567
NsS'terbutalin_stada'
p568
NsS'benzthiazide'
p569
NsS'ondansetron__(r)_isomer'
p570
NsS'bupropion_hydrochloride'
p571
NsS'diclofenac_potassium'
p572
NsS'bisacodyl'
p573
NsS'altracin'
p574
NsS'contimit'
p575
NsS'ifosfamide'
p576
NsS'ethinyl_estradiol_3_methyl_ether'
p577
NsS'benhydramin'
p578
NsS'apo_quinidine'
p579
NsS'triiodothyronine'
p580
NsS'sulphadiazine'
p581
NsS'phyllocontin'
p582
NsS'felodipin_abz'
p583
NsS'rhotrimine'
p584
NsS'trihexane'
p585
NsS'riluzole'
p586
NsS'melipramine'
p587
NsS'mino_wolff'
p588
NsS'chlornitromycin'
p589
NsS'acetohexamide'
p590
NsS'dianhydrosorbitol'
p591
NsS'salagen'
p592
NsS'lactate__milrinone'
p593
NsS'contraflam'
p594
NsS'azt_(antiviral)'
p595
NsS'etidronic_acid'
p596
NsS'propanolol'
p597
NsS'hydrochloride__phenazopyridine'
p598
NsS'iopamiro'
p599
NsS'amphocil'
p600
NsS'apo_methyldopa'
p601
NsS'fenoprofen_calcium'
p602
NsS'tazidime'
p603
NsS'araminol'
p604
NsS'nitrate__miconasil'
p605
NsS'lincomycin_a'
p606
NsS'ratio_flurbiprofen'
p607
NsS'flutaplex'
p608
NsS'theo_von_ct'
p609
NsS'apo_diflunisal'
p610
NsS'gen_baclofen'
p611
NsS'hydromedin'
p612
NsS'dicloxsig'
p613
NsS'clonidine_dihydrochloride'
p614
NsS'sodium_glycinate__theophylline'
p615
NsS'ratio_sulfasalazine'
p616
NsS'tampovagan'
p617
NsS'vorigeno'
p618
NsS'levomycetin'
p619
NsS'lipox_gemfi'
p620
NsS'novo_doxepin'
p621
NsS'pyrilamine'
p622
NsS'topiramate'
p623
NsS'azonatural'
p624
NsS'acetate__guanabenz'
p625
NsS'infectoflu'
p626
NsS'strefen'
p627
NsS'mexiletine_hydrochloride'
p628
NsS'flodil'
p629
NsS'bis(diethylthiocarbamoyl)_disulfide'
p630
NsS'parkinane'
p631
NsS'minocin'
p632
NsS'ethionamide'
p633
NsS'raupasil'
p634
NsS'anapsique'
p635
NsS'vancomycin_sulfate'
p636
NsS'nicotinic_acid'
p637
NsS'dihydride__naloxone_hydrochloride'
p638
NsS'methylergonovine'
p639
NsS'cefaclor'
p640
NsS'atosil'
p641
NsS'lodrane'
p642
NsS'vigabatrin'
p643
NsS'pms_nortriptyline'
p644
NsS'munobal'
p645
NsS'diethylstilbestrol__(z)_isomer'
p646
NsS'4_aminohippuric_acid'
p647
NsS'fungizone'
p648
NsS'sulfate__cupric'
p649
NsS'dimedrol'
p650
NsS'tolmetin_sodium__anhydrous'
p651
NsS'simplotan'
p652
NsS'propeshia'
p653
NsS'apo_levobunolol'
p654
NsS'atarax'
p655
NsS'detapac'
p656
NsS'r\xe3\xb6wo_procain'
p657
NsS'apimid'
p658
NsS'1_1_hydroxyethylenediphosphonate'
p659
NsS'remsed'
p660
NsS'gyno_pevaryl'
p661
NsS'hydrochloride__minocycline'
p662
NsS'theopek'
p663
NsS'cefazolin'
p664
NsS'dichlothiazide'
p665
NsS'prepar'
p666
NsS'embay_8440'
p667
NsS'tevacor'
p668
NsS'kendrick'
p669
NsS'pinacidil'
p670
NsS'metoprolol'
p671
NsS'4_epitetracycline'
p672
NsS'acid__ethacrynic'
p673
NsS'tubocurarine_chloride'
p674
NsS'mycophenolate_mofetil_hydrochloride'
p675
NsS'dimetane_ten'
p676
NsS'anhydrous__triprolidine_hydrochloride'
p677
NsS'siozwo'
p678
NsS'pms_fluorometholone'
p679
NsS'monitan'
p680
NsS'netromicina'
p681
NsS'myotonine'
p682
NsS'fulvestrant'
p683
NsS'apo_chlorpropamide'
p684
NsS'dantrolene'
p685
NsS'methanesulfonate__2_bromoergocryptine'
p686
NsS'fluticasone'
p687
NsS'escitalopram_oxalate'
p688
NsS'dicloxacillin_sodium'
p689
NsS'vikela'
p690
NsS'nu_medopa'
p691
NsS'labetalol'
p692
NsS'sulfate__amikacin'
p693
NsS'compound_545'
p694
NsS'scopolamine'
p695
NsS'daonil'
p696
NsS'hydrochloride__doxepin'
p697
NsS'symmetrel'
p698
NsS'deticene'
p699
NsS'pms_amantadine'
p700
NsS'cephotaxim'
p701
NsS'estropipate'
p702
NsS'surfont'
p703
NsS'lysantin'
p704
NsS'mrz_2593_br'
p705
NsS'privin'
p706
NsS'alpha_ara_a'
p707
NsS'vancomycin'
p708
NsS'tryptizol'
p709
NsS'sulfazine'
p710
NsS'chenodeoxycholate'
p711
NsS'n_methyl_9_10_ethanoanthracene_9(10h)_propylamine'
p712
NsS'rhythmodan'
p713
NsS'ozidia'
p714
NsS'carteolol_monohydrochloride'
p715
NsS'amatine'
p716
NsS'novo_gemfibrozil'
p717
NsS'reactine'
p718
NsS'thiamine_mononitrate'
p719
NsS'oxaprozin'
p720
NsS'lidocaine_monohydrochloride__monohydrate'
p721
NsS'pindolol'
p722
NsS'pyridoxine'
p723
NsS'm\xe3\xa9foxin'
p724
NsS'flavoquine'
p725
NsS'timoptic'
p726
NsS'demeclocycline__calcium_(1:2)_salt'
p727
NsS'selegyline'
p728
NsS'thiethylperazine'
p729
NsS'betaloc'
p730
NsS'narcanti'
p731
NsS'pensa__vasoconstrictor'
p732
NsS'genamantadine'
p733
NsS'ranitidine'
p734
NsS'norfloxacin'
p735
NsS'paclitaxel'
p736
NsS'niftolide'
p737
NsS'oxytetracycline_monohydrochloride'
p738
NsS'streptomycin_sulphate'
p739
NsS'butoconazole'
p740
NsS'agaroletten'
p741
NsS'eskazine'
p742
NsS'novo_levobunolol'
p743
NsS'ampicillin_sodium'
p744
NsS'bigumal'
p745
NsS'nebupent'
p746
NsS'apo_propafenone'
p747
NsS'furosemide'
p748
NsS'clofibric_acid__ethyl_ester'
p749
NsS'leucovorin__calcium_(1:1)_salt__(dl)_isomer'
p750
NsS'levobunolol_hydrochloride'
p751
NsS'doxazosin'
p752
NsS'amitrip'
p753
NsS'cephalexin__(6r_(6alpha_7beta(s*)))_isomer'
p754
NsS'certomycin'
p755
NsS'doxa_puren'
p756
NsS'phentolamine_mesylate'
p757
NsS'glycopyrrolate'
p758
NsS'flugalin'
p759
NsS'nu_diflunisal'
p760
NsS'meclofenamic_acid'
p761
NsS'bepridil_monohydrochloride__alpha_isomer'
p762
NsS'methyldopa'
p763
NsS'dysman'
p764
NsS'nystatin_g'
p765
NsS'paromomycin_i'
p766
NsS'demolox'
p767
NsS'saquinavir_monomethanesulfonate'
p768
NsS'mydriaticum'
p769
NsS'((2_hexahydro_1(2h)_azocinyl)ethyl)guanidine'
p770
NsS'chlortetracycline__4_epimer'
p771
NsS'metolazone'
p772
NsS'benzide_m'
p773
NsS'anhydrous_tolmetin_sodium'
p774
NsS'r_r_labetalol'
p775
NsS'danazol_ratiopharm'
p776
NsS'hydrochloride__naphazoline'
p777
NsS'adriablastine'
p778
NsS'gabapentin'
p779
NsS'lincomycin_monohydrochloride__(2s_cis)_isomer'
p780
NsS'chenix'
p781
NsS'5_trifluoromethyl_2__deoxyuridine'
p782
NsS'felo_puren'
p783
NsS'clobex'
p784
NsS'baxarytmon'
p785
NsS'buspirone_hydrochloride'
p786
NsS'flucon__isopto'
p787
NsS'sulfona'
p788
NsS'chimax'
p789
NsS'humazolamide'
p790
NsS'2_methyl_5_nitroimidazole_1_ethanol'
p791
NsS'theophyllin_eda_ratiopharm'
p792
NsS'diabinese'
p793
NsS'melizide'
p794
NsS'mefenamic_acid'
p795
NsS'minocycline__(4r_(4_alpha_4a_beta_5a_beta_12a_beta))_isomer'
p796
NsS'bisoprolol__(_)_isomer'
p797
NsS'reverin'
p798
NsS'vanceril'
p799
NsS'diaval'
p800
NsS'afonilum'
p801
NsS'metrogyl'
p802
NsS'apo_sulfinpyrazone'
p803
NsS'danizol'
p804
NsS'sulfonyldianiline'
p805
NsS'mecamylamine'
p806
NsS'dihydroergotamin_al'
p807
NsS'furadantin'
p808
NsS'propheniramine'
p809
NsS'nifedipine'
p810
NsS'bacitracin_zinc'
p811
NsS'colircusi_tropicamida'
p812
NsS'chlorotetracycline'
p813
NsS'terbutaline'
p814
NsS'norethindrone'
p815
NsS'nymalize'
p816
NsS'niacin_lithium_salt__hemihydrate'
p817
NsS'trazodonneuraxpharm'
p818
NsS'nalone'
p819
NsS'isoniazid'
p820
NsS'banworm'
p821
NsS'cephuroxime'
p822
NsS'metrizamide'
p823
NsS'maprotilin_holsten'
p824
NsS'ethambutol'
p825
NsS'dienestrol__(z_z)_isomer'
p826
NsS'guanabenz_acetate_wyeth_ayerst'
p827
NsS'amantadine'
p828
NsS'cytovene'
p829
NsS'selegiline_hydrochloride'
p830
NsS'para_aminohippuric_acid'
p831
NsS'homatropine'
p832
NsS'oxytetracycline_anhydrous'
p833
NsS'sulfate__quinidine'
p834
NsS'moricizine'
p835
NsS'dentomycin'
p836
NsS'co_dergocrine_mesilate'
p837
NsS'4_4__diaminophenyl_sulfone'
p838
NsS'arabinosyladenine'
p839
NsS'diflamil'
p840
NsS'scopolamine_cooper'
p841
NsS'carbamazepine_phosphate'
p842
NsS'norpregneninolone'
p843
NsS'contramareo'
p844
NsS'dextromethorphan_hydrochloride'
p845
NsS'triazide'
p846
NsS'tropicamide_faure'
p847
NsS'4h_carbazol_4_one__1_2_3_9_tetrahydro_9_methyl_3_((2_methyl_1h_imidazol_1_yl)methyl)_'
p848
NsS'novo_mexiletine'
p849
NsS'doxazomerck'
p850
NsS'dalcaine'
p851
NsS'albendazole'
p852
NsS'endoplus'
p853
NsS'niacin_zinc_salt'
p854
NsS'prilocaine'
p855
NsS'molindone_monohydrochloride'
p856
NsS'disopyramide_phosphate_(1:1)__(+_)_isomer'
p857
NsS'methoxa_dome'
p858
NsS'cerebramed'
p859
NsS'hydrochloride_anhydrous__ciprofloxacin'
p860
NsS'dimetane'
p861
NsS'gen_nortriptyline'
p862
NsS'metaprel'
p863
NsS'dixarit'
p864
NsS'disopyramide__(r)_isomer'
p865
NsS'3_hydroxy_l_tyrosine'
p866
NsS'ocutropic'
p867
NsS'fenofibrat_fph'
p868
NsS'oxsoralen_ultra'
p869
NsS'rifabutine'
p870
NsS'tacrine'
p871
NsS'bromocriptine'
p872
NsS'theophylline_anhydrous'
p873
NsS'athromidin'
p874
NsS'novo_acebutolol'
p875
NsS'ratio_bisacodyl'
p876
NsS'nasobec_aqueous'
p877
NsS'clotrimazole'
p878
NsS'hydrochloride__niacin'
p879
NsS'histerone'
p880
NsS'cinoxacin'
p881
NsS'brulamycin'
p882
NsS'erythromycin'
p883
NsS'chibret'
p884
NsS'lipantil'
p885
NsS'felodipin_stada'
p886
NsS'bepadin'
p887
NsS'adriblastine'
p888
NsS'fugerel'
p889
NsS'citanest'
p890
NsS'slo_phyllin'
p891
NsS'cefixime_trihydrate'
p892
NsS'isosorbide'
p893
NsS'naphazoline'
p894
NsS'ametop'
p895
NsS'proazamine'
p896
NsS'carbostesin'
p897
NsS'diethylcarbamazine_l_tartrate_(1:1)'
p898
NsS'glipizide'
p899
NsS'rolitetracycline_mononitrate__sesquihydrate'
p900
NsS'timacar'
p901
NsS'laxans_ratiopharm'
p902
NsS'd_norgestrel'
p903
NsS'hydrochloride__guanfacine'
p904
NsS'palpitine'
p905
NsS'ticlodone'
p906
NsS'transamine'
p907
NsS'mexitil'
p908
NsS'doxazosina_alter'
p909
NsS'cephalexin'
p910
NsS'pmslevobunolol'
p911
NsS'sodium_nalidixic_acid__monohydrate'
p912
NsS'calciferols'
p913
((F0.9090909090909091
S'cholecalciferol'
p914
tp915
S"(st) matching: ratio , lcs, (key,drug) (keynorm,drugnorm 0.909090909091 calciferol ('calciferols', 'cholecalciferol') ('calciferols', 'cholecalciferol')"
p916
tp917
sS'metaproterenol_sulfate'
p918
NsS'dermalog'
p919
NsS'podocon_25'
p920
NsS'sodium__cloxacillin'
p921
NsS'nitrumon'
p922
NsS'tosylate__niacin'
p923
NsS'dapsone'
p924
NsS'alfuzosin'
p925
NsS'8_isotestosterone'
p926
NsS'gyno_pevaril'
p927
NsS'sulfasalazine_fna'
p928
NsS'apo_trazodone'
p929
NsS'apo_nortriptyline'
p930
NsS'monohydrochloride__carteolol'
p931
NsS'doxazosin_mesylate'
p932
NsS'sodium_salt__cefoperazone'
p933
NsS'citrovorum_factor'
p934
NsS'triptone'
p935
NsS'imipenem'
p936
NsS'disodium_etidronate'
p937
NsS'apo_flurbiprofen'
p938
NsS'isopropylmeprobamate'
p939
NsS'tradozone'
p940
NsS'strepto_hefa'
p941
NsS'flecainide'
p942
NsS'sodium__cephazolin'
p943
NsS'deprenalin'
p944
NsS'mometasone'
p945
NsS'citalopram_hydrobromide'
p946
NsS'miscleron'
p947
NsS'nicotinate__lithium'
p948
NsS'alcobon'
p949
NsS'ramodar'
p950
NsS'carbacholine'
p951
NsS'etidronate__sodium'
p952
NsS'isobarin'
p953
NsS'apogemfibrozil'
p954
NsS'isonicotinic_acid_vanillylidenehydrazide'
p955
NsS'fotexina'
p956
NsS'proglycem'
p957
NsS'3_7_dihydro_1_3_dimethyl_1h_purine_2_6_dione'
p958
NsS'iohexol_350'
p959
NsS'dibenzyline'
p960
NsS'amantadine_sulfate'
p961
NsS'finlepsin'
p962
NsS'salt__prochlorperazine_edisylate'
p963
NsS'pms_baclofen'
p964
NsS'apo_mefenamic'
p965
NsS'ipratropium_bromide__(exo_syn)_isomer'
p966
NsS'panavir'
p967
NsS'isopto_carbachol'
p968
NsS'eufilina_venosa'
p969
NsS'cetilich'
p970
NsS'bacitracin'
p971
NsS'vermox'
p972
NsS'azo_natural'
p973
NsS'tobracin'
p974
NsS'propafenon_hexal'
p975
NsS'cefmetazole'
p976
NsS'monolitum'
p977
NsS'trilafon'
p978
NsS'tolazamide'
p979
NsS'novo_doxazosin'
p980
NsS'loniten'
p981
NsS'azulfidine_en'
p982
NsS'theophyllin_edaratiopharm'
p983
NsS'd_tamin_retard_l.u.t.'
p984
NsS'apo_feno_micro'
p985
NsS'amipaque'
p986
NsS'pms_fenofibrate_micro'
p987
NsS'bisoprolol_fumarate'
p988
NsS'citrate__diethylcarbamazine'
p989
NsS'neostigmine_bromide'
p990
NsS'felocor'
p991
NsS'ondansetron_monohydrochloride'
p992
NsS'para_bromdylamine'
p993
NsS'la__nicardipine'
p994
NsS'gris_peg'
p995
NsS'glibenclamide'
p996
NsS'kanesten'
p997
NsS'acid__nalidixic'
p998
NsS'streptomycin'
p999
NsS'afonilum_retard'
p1000
NsS'sulfanilamide'
p1001
NsS'ratio_nortriptyline'
p1002
NsS'sulindac'
p1003
NsS'cefotetan'
p1004
NsS'tetraethylthioperoxydicarbonic_diamide__((h2n)c(s))2s2'
p1005
NsS'sulindal'
p1006
NsS'procyclid'
p1007
NsS'amizepine'
p1008
NsS'metronidazole_phosphoester'
p1009
NsS'trimipramin_neurazpharm'
p1010
NsS'purimethol'
p1011
NsS'ketotifen'
p1012
NsS'cephazolin__sodium'
p1013
NsS'nu_baclo'
p1014
NsS'2_deoxy_d_glucose'
p1015
NsS'klinoril'
p1016
NsS'eulexine'
p1017
NsS'tartrate__metaraminol'
p1018
NsS'sodium_anhydrous__tolmetin'
p1019
NsS'glyburide'
p1020
NsS'monohydrate__ciprofloxacin_monohydrochloride'
p1021
NsS'becloturmant'
p1022
NsS'neo_naclex'
p1023
NsS'procarbazine_monohydrobromide'
p1024
NsS'ergoloid_mesylates'
p1025
NsS'diphenhydramine'
p1026
NsS'deoxyglucose'
p1027
NsS'buspirone'
p1028
NsS'anzatax'
p1029
NsS'dobutamine_phosphate_(1:1)_salt__(_)_isomer'
p1030
NsS'hydroxyzine_dihydrochloride'
p1031
NsS'orthophen'
p1032
NsS'epsilon_aminocaproic_acid'
p1033
NsS'tegretol'
p1034
NsS'miconazole_nitrate'
p1035
NsS'apressoline'
p1036
NsS'gemfi_1a_pharma'
p1037
NsS'amantadina_llorente'
p1038
NsS'naloxon_ratiopharm'
p1039
NsS'guanethidine_sulfate'
p1040
NsS'geroxalen'
p1041
NsS'efflumidex'
p1042
NsS'carbamazepine_hydrochloride'
p1043
NsS'fasigin'
p1044
NsS'novo_flutamide'
p1045
NsS'euphyllin_retard'
p1046
NsS'daunoblastine'
p1047
NsS'gentamicin'
p1048
NsS'ddc_(antiviral)'
p1049
NsS'ak_con'
p1050
NsS'parnate'
p1051
NsS'stilbene_estrogen'
p1052
NsS'vupral'
p1053
NsS'propantheline_bromide'
p1054
NsS'apothioridazine'
p1055
NsS'trimipramine_maleate_(1:1)__(+)_isomer'
p1056
NsS'heumann__fenofibrat'
p1057
NsS'apotrimip'
p1058
NsS'isonex'
p1059
NsS'celeston'
p1060
NsS'propylthiouracil'
p1061
NsS'az_threonam'
p1062
NsS'gen_gemfibrozil'
p1063
NsS'monohydrobromide__procarbazine'
p1064
NsS'urogesic'
p1065
NsS'2_amino_6_trifluoromethoxybenzothiazole'
p1066
NsS'tropicamide'
p1067
NsS'maprotilin_neuraxpharm'
p1068
NsS'doxamax'
p1069
NsS'ceftotan'
p1070
NsS'bendapar'
p1071
NsS'bronchoparat'
p1072
NsS'midodrin'
p1073
NsS'aminobenzyl_penicillin'
p1074
NsS'coliriocilina_sulfacetam'
p1075
NsS'cimetidine_hcl'
p1076
NsS'novo_desipramine'
p1077
NsS'doxacor'
p1078
NsS'ketoprofen'
p1079
NsS'praziquantel__(+_)_isomer'
p1080
NsS'doxazosin_findusfit'
p1081
NsS'solutrast_370'
p1082
NsS'fludrocortisone'
p1083
NsS'ladogal'
p1084
NsS'furadonine'
p1085
NsS'albalon'
p1086
NsS'acetazolam'
p1087
NsS'nitrofural'
p1088
NsS'cognex'
p1089
NsS'distilb\xe3\xa8ne'
p1090
NsS'parkotil'
p1091
NsS'amikacin'
p1092
NsS'n_isopropylatropine'
p1093
NsS'aluminum_salt__niacin'
p1094
NsS'doxazosina_ratiopharm'
p1095
NsS'alcophobin'
p1096
NsS'diphenhydramine_theoclate'
p1097
NsS'piroxicam'
p1098
NsS'propafenone_hydrochloride__(r)_isomer'
p1099
NsS'bisoprolol'
p1100
NsS'carduran_neo'
p1101
NsS'ikaran'
p1102
NsS'depakine'
p1103
NsS'paromomycin_sulfate'
p1104
NsS'albendazole_monohydrochloride'
p1105
NsS'ofloxacin_hydrochloride'
p1106
NsS'dormin'
p1107
NsS'nadolol'
p1108
NsS'anhydrous__imipenem'
p1109
NsS'doxorubicin'
p1110
NsS'oxytetracycline__(4a_beta_5_beta_5a_beta_12a_beta)_isomer'
p1111
NsS'hydrochlorothiazide'
p1112
NsS'loxapine'
p1113
NsS'loperamide_monohydrochloride'
p1114
NsS'doneurin'
p1115
NsS'neostigmine'
p1116
NsS'haloperidol'
p1117
NsS'theophylline'
p1118
NsS'divalproex'
p1119
NsS'viomycins'
p1120
NsS'cloxacillin'
p1121
NsS'vincaleukoblastine'
p1122
NsS'hydralazine'
p1123
NsS'naloxone_hydrochloride_dihydride'
p1124
NsS'17_beta_hydroxy_4_androsten_3_one'
p1125
NsS'baclof\xe3\xa8ne_irex'
p1126
NsS'6_thiohypoxanthine'
p1127
NsS'tolmetin_sodium'
p1128
NsS'mebendazole'
p1129
NsS'doxylamine'
p1130
NsS'amphenicols'
p1131
NsS'nalgesic'
p1132
NsS'desmethylimipramine'
p1133
NsS'amantadin_al'
p1134
NsS'sulfate__colistin'
p1135
NsS'adaquin'
p1136
NsS'paromomycin__beta_d_glucopyranosyl_isomer'
p1137
NsS'sulfasalazin_medac'
p1138
NsS'tetracycline'
p1139
NsS'calm_x'
p1140
NsS'mesoridazine'
p1141
NsS'isoglaucon'
p1142
NsS'nafcillin'
p1143
NsS'grisefuline'
p1144
NsS'cetidura'
p1145
NsS'abello__naloxone'
p1146
NsS'hydrochloride__loxapine'
p1147
NsS'arestin'
p1148
NsS'fna__sulfamethizol'
p1149
NsS'catapres'
p1150
NsS'oxybutynin'
p1151
NsS'etomidate'
p1152
NsS'm_hydroxyphenylpropanolamine'
p1153
NsS'metaclopramide'
p1154
NsS'mycophenolate_sodium'
p1155
NsS'nitrofurantoin'
p1156
NsS'chlortetracycline_sulfate_(1:1)'
p1157
NsS'niacin'
p1158
NsS'alrheumum'
p1159
NsS'1_aminoadamantane'
p1160
NsS'albenza'
p1161
NsS'petylyl'
p1162
NsS'metyrapone'
p1163
NsS'oxyterracin'
p1164
NsS'centyl'
p1165
NsS'terconazole'
p1166
NsS'normalip'
p1167
NsS'tuberactinomycin_b'
p1168
NsS'vinblastin_hexal'
p1169
NsS'prolixin'
p1170
NsS'5_azacytidine'
p1171
NsS'sodium__dantrolene'
p1172
NsS'p_aminohippurate'
p1173
NsS'sulfacetamide'
p1174
NsS'dbl_gemfibrozil'
p1175
NsS'heumann__dimen'
p1176
NsS'moracizine'
p1177
NsS'chloride__bethanechol'
p1178
NsS'miostat'
p1179
NsS'bethanechol_chloride'
p1180
NsS'ponalgic'
p1181
NsS'prochlorperazine'
p1182
NsS'cardophyllin'
p1183
NsS'oxprenolol_hydrochloride'
p1184
NsS'ratiotrazodone'
p1185
NsS'nausicalm'
p1186
NsS're_azo'
p1187
NsS'glauconox'
p1188
NsS'propitocaine'
p1189
NsS'dibenyline'
p1190
NsS'nivalin'
p1191
NsS'gineflavir'
p1192
NsS'sustamycin'
p1193
NsS'becodisks'
p1194
NsS'demeclocycline_hydrochloride'
p1195
NsS'neptal'
p1196
NsS'lisinopril_maleate_(1:1)'
p1197
NsS'corotrope'
p1198
NsS'celestona'
p1199
NsS'guiatuss'
p1200
NsS'mysoline'
p1201
NsS'trichlormethiazide'
p1202
NsS'voltaren'
p1203
NsS'tinidazole'
p1204
NsS'monohydrobromide__clonidine'
p1205
NsS'amiloberag'
p1206
NsS'edisylate_salt__prochlorperazine'
p1207
NsS'von_ct__ergotam'
p1208
NsS'bayer_5360'
p1209
NsS'propaderm'
p1210
NsS'nu_nortriptyline'
p1211
NsS'hydrochloride__buspirone'
p1212
NsS'diphosphonate__disodium_1_hydroxyethylene'
p1213
NsS'pre_par'
p1214
NsS'tioguanine'
p1215
NsS'hydroxyphenylpropanolamine'
p1216
NsS'pms_buspirone'
p1217
NsS'dapson_fatol'
p1218
NsS'mofetil_hydrochloride__mycophenolate'
p1219
NsS'xanthotoxin'
p1220
NsS'tetrakain'
p1221
NsS'dextromethorphan_hydrobromide__monohydrate'
p1222
NsS'cyproheptadine'
p1223
NsS'pentamidine'
p1224
NsS'mesylate__2_bromoergocryptine'
p1225
NsS'hcl__metformin'
p1226
NsS'(s)_1_((1_1_dimethylethyl)amino)_3_((4_(4_morpholinyl)_1_2_5_thiadazol_3_yl)oxy)_2_propanol'
p1227
NsS'novocaine'
p1228
NsS'neomycin_e'
p1229
NsS'disulfide__tetraethylthiuram'
p1230
NsS'korinfar'
p1231
NsS'baclospas'
p1232
NsS'cefobid'
p1233
NsS'amodiaquine_hydrochloride'
p1234
NsS'trifluridine'
p1235
NsS'redergin'
p1236
NsS'eldepryl'
p1237
NsS'acid__chenic'
p1238
NsS'prinivil'
p1239
NsS'pentamidine_isethionate'
p1240
NsS'fluta_gry'
p1241
NsS'niacin_tartrate'
p1242
NsS'aristocort'
p1243
NsS'hydrochloride__ranitidine'
p1244
NsS'metformin'
p1245
NsS'carteolol'
p1246
NsS'tindurine'
p1247
NsS'camoquine'
p1248
NsS'azu__fenofibrat'
p1249
NsS'chloramphenicol'
p1250
NsS'trimipramine_maleate_(1:1)__(_)_isomer'
p1251
NsS'imidobenzyle'
p1252
NsS'acid__azolinic'
p1253
NsS'cordipine'
p1254
NsS'regitine'
p1255
NsS'ceftazidime'
p1256
NsS'nu_buspirone'
p1257
NsS'citrate__norflex_orphenadrine'
p1258
NsS'flecainide__5_ho_n_(6_oxo)_derivative__(+_)_isomer'
p1259
NsS'drogenil'
p1260
NsS'phenergan'
p1261
NsS'bladuril'
p1262
NsS'sulfamethizol_fna'
p1263
NsS'dhe_45'
p1264
NsS'ciclopirox'
p1265
NsS'isopromethazine'
p1266
NsS'octadine'
p1267
NsS'nu_sulindac'
p1268
NsS'alpha_methyl_l_dopa'
p1269
NsS'colo_pleon'
p1270
NsS'b_12__vitamin'
p1271
NsS'sustanon'
p1272
NsS'oxytetracycline__disodium_salt__dihydrate'
p1273
NsS'cimetidine'
p1274
NsS'paroxetine_hydrochloride_hemihydrate'
p1275
NsS'ultracef'
p1276
NsS'zantac'
p1277
NsS'bromocriptine_mesylate'
p1278
NsS'fluvastatin'
p1279
NsS'exemestane'
p1280
NsS'ciclacillin'
p1281
NsS'atropinol'
p1282
NsS'glycerol_guaiacolate'
p1283
NsS'hydrochloride__nortriptyline'
p1284
NsS'glycopyrronium_bromide'
p1285
NsS'reisetabletten_l\xe3\xbcnopharm'
p1286
NsS'dicalcium_etidronate'
p1287
NsS'flecainide__(r)_isomer'
p1288
NsS'loxipine_succinate'
p1289
NsS'sulphapyridine'
p1290
NsS'nu_trazodone'
p1291
NsS'ortoton'
p1292
NsS'bretylium_tosylate'
p1293
NsS'pryleugan'
p1294
NsS'dicloxacillin'
p1295
NsS'infecto_flu'
p1296
NsS'dehidrobenzperidol'
p1297
NsS'terramycin'
p1298
NsS'monohydrochloride__doxazosin'
p1299
NsS'euglucon_5'
p1300
NsS'beconase_aq'
p1301
NsS'ratio_buspirone'
p1302
NsS'cyclopentolate'
p1303
NsS'n_(4_(4_(2_pyrimidinyl)_1_piperazinyl)butyl)_1_cyclopentanediacetamide'
p1304
NsS'lisinopril'
p1305
NsS'cetalerg'
p1306
NsS'amfebutamone'
p1307
NsS'raloxifene'
p1308
NsS'nystatin'
p1309
NsS'fungicidin'
p1310
NsS'amitriptylin_beta'
p1311
NsS'amitriptyline'
p1312
NsS'ethymal'
p1313
NsS'amodiaquine'
p1314
NsS'mono_hydrochloride__phentolamine'
p1315
NsS'fenoprain'
p1316
NsS'mevinolin'
p1317
NsS'ratio_levobunolol'
p1318
NsS'atrofen'
p1319
NsS'quenobilan'
p1320
NsS'sertan'
p1321
NsS'dulco_lax'
p1322
NsS'biodramina'
p1323
NsS'gemfibrozil__sbpa'
p1324
NsS'disodium__cefotetan'
p1325
NsS'apodoxepin'
p1326
NsS'dobutamina_inibsa'
p1327
NsS'arthrobid'
p1328
NsS'levomethorphan'
p1329
NsS'sulfacetam__coliriocilina'
p1330
NsS'serentil'
p1331
NsS'jutalar'
p1332
NsS'dobutamin_ratiopharm'
p1333
NsS'gen_doxazosin'
p1334
NsS'procetofen__antara_micronized'
p1335
NsS'primacor'
p1336
NsS'ipratropium_bromide_monohydrate'
p1337
NsS'alclometasone'
p1338
NsS'mitoxantrone_hydrochloride'
p1339
NsS'niacin_magnesium_salt'
p1340
NsS'ratio_doxazosin'
p1341
NsS'allerdryl'
p1342
NsS'hydrochloride__dobutamine'
p1343
NsS'mycophenolic_acid'
p1344
NsS'amicar'
p1345
NsS'scott_tussin'
p1346
NsS'norflex'
p1347
NsS'nico400'
p1348
NsS'ciprofloxacin_hydrochloride_anhydrous'
p1349
NsS'etmozin'
p1350
NsS'diamidine'
p1351
NsS'dolobis'
p1352
NsS'metoclopramide_monohydrochloride'
p1353
NsS'ganciclovir__monosodium_salt'
p1354
NsS'ketorolac'
p1355
NsS'permax'
p1356
NsS'mirena'
p1357
NsS'isradipine__(r)_isomer'
p1358
NsS'caproamin'
p1359
NsS'3__azido_2__3__dideoxythymidine'
p1360
NsS'bupropion'
p1361
NsS'phentolamine_mono_hydrochloride'
p1362
NsS'laxysat_b\xe3\xbcrger'
p1363
NsS'amide__procaine'
p1364
NsS'lin_buspirone'
p1365
NsS'theobid'
p1366
NsS'von_ct__theo'
p1367
NsS'dopamine_hydrochloride'
p1368
NsS'ancotil'
p1369
NsS'clear_eyes'
p1370
NsS'chlorhexidine_acetate'
p1371
NsS'nor_qd'
p1372
NsS'von_ct__felodipin'
p1373
NsS'propranolol'
p1374
NsS'ciprofloxacin'
p1375
NsS'minocycline'
p1376
NsS'hexalense'
p1377
NsS'diuramide'
p1378
NsS'bidocef'
p1379
NsS'co_dergine_mesylate'
p1380
NsS'cyclomen'
p1381
NsS'clobetasol'
p1382
NsS'pentetate_calcium_trisodium'
p1383
NsS'aureocyclin'
p1384
NsS'brainal'
p1385
NsS'hydrochloride__metoclopramide'
p1386
NsS'cilpen'
p1387
NsS'niacin_hydrochloride'
p1388
NsS'mini_lix'
p1389
NsS'hydrochloride__carticaine'
p1390
NsS'dimen_heumann'
p1391
NsS'pyridiate'
p1392
NsS'vitamin_b_1'
p1393
NsS'pheniramine_bimaleate'
p1394
NsS'danazol'
p1395
NsS'salbutamol'
p1396
NsS'theo_dur'
p1397
NsS'apodiflunisal'
p1398
NsS'levopa'
p1399
NsS'baclof\xe3\xa8neirex'
p1400
NsS'maphenid'
p1401
NsS'podofilox'
p1402
NsS'diatracin'
p1403
NsS'flutamin'
p1404
NsS'kemadrin'
p1405
NsS'cordemcura'
p1406
NsS'mtw_fenofibrat'
p1407
NsS'theophyllamin_jenapharm'
p1408
NsS'sodium_salt__niacin'
p1409
NsS'bwa509u'
p1410
NsS'vinblastine'
p1411
NsS'gramaxin'
p1412
NsS'tretinoin'
p1413
((F1.0
S'isotretinoin'
p1414
tp1415
S"(st) matching: ratio , lcs, (key,drug) (keynorm,drugnorm 1.0 tretinoin ('tretinoin', 'isotretinoin') ('tretinoin', 'isotretinoin')"
p1416
tp1417
sS'hypnomidate'
p1418
NsS'lemblastine'
p1419
NsS'vasoconstrictor_pensa'
p1420
NsS'ks_r1__antibiotic'
p1421
NsS'tolmetin'
p1422
NsS'2_bromoergocryptine_methanesulfonate'
p1423
NsS'aminophylline'
p1424
NsS'isobamate'
p1425
NsS'dopamet'
p1426
NsS'spesicor'
p1427
NsS'tolbutamide'
p1428
NsS'clofen'
p1429
NsS'dactarin'
p1430
NsS'naphthamidopenicillin'
p1431
NsS'aknin_mino'
p1432
NsS'monohydrochloride__albendazole'
p1433
NsS'4_homosulfanilamide'
p1434
NsS'naphazoline_monohydrochloride'
p1435
NsS'mononitrate__rolitetracycline'
p1436
NsS'biolf_62'
p1437
NsS'albuterol_sulfate'
p1438
NsS'urokit_doxo_cell'
p1439
NsS'acetopt'
p1440
NsS'hydrochloride__propranolol'
p1441
NsS'aquaphyllin'
p1442
NsS'dobutamine_(+)_isomer'
p1443
NsS'prostogenat'
p1444
NsS'clofazimine'
p1445
NsS'ticlid'
p1446
NsS'repaglinide'
p1447
NsS'juventus__amantadina'
p1448
NsS'stada__reisetabletten'
p1449
NsS'somophyllin'
p1450
NsS'normodyne'
p1451
NsS'cloxacillin__sodium'
p1452
NsS'ftivazide'
p1453
NsS'cinobac'
p1454
NsS'hydrochloride__daunorubicin'
p1455
NsS'lincomycin__(2s_cis)_isomer'
p1456
NsS'prozerin'
p1457
NsS'transderm_scop'
p1458
NsS'aciclovir'
p1459
NsS'metoprolol_cr_xl'
p1460
NsS'betaxolol_hydrochloride'
p1461
NsS'minidiab'
p1462
NsS'dihexazin'
p1463
NsS'trivazol'
p1464
NsS'cardene'
p1465
NsS'viomycin'
p1466
NsS'copper_sulfate'
p1467
NsS'beclazone_easy_breathe'
p1468
NsS'lycoremine'
p1469
NsS'minoxidil'
p1470
NsS'l_dopa'
p1471
NsS'ergont'
p1472
NsS'benzonatate'
p1473
NsS'primperan'
p1474
NsS'felodipin_ratiopharm'
p1475
NsS'chibro_proscar'
p1476
NsS'amikin'
p1477
NsS'ticlopidine'
p1478
NsS'cyclomin'
p1479
NsS'surmontil_maleate'
p1480
NsS'azathioprine_sulfate'
p1481
NsS'asulfidine'
p1482
NsS'doxo_cell'
p1483
NsS'phentolamine'
p1484
NsS'biocarbazine'
p1485
NsS'norplant'
p1486
NsS'articaine'
p1487
NsS'apo_gemfibrozil'
p1488
NsS'diisopyramide'
p1489
NsS'acid__etacrynic'
p1490
NsS'laxanin'
p1491
NsS'ipratropium'
p1492
NsS'cefepime'
p1493
NsS'sinophenin'
p1494
NsS'nitrate__naphazoline'
p1495
NsS'metformin_hcl'
p1496
NsS'pluryl'
p1497
NsS'ondansetron'
p1498
NsS'apocard'
p1499
NsS'wehgen'
p1500
NsS'ralenova'
p1501
NsS'oxytetracycline_dihydrate'
p1502
NsS'zinc_dtpa'
p1503
NsS'pentaacetic_acid__diethylenetriamine'
p1504
NsS'rifabutin'
p1505
NsS'prostacur'
p1506
NsS'hydroflumethiazide'
p1507
NsS'doxazosina_combino_pharm'
p1508
NsS'keclor'
p1509
NsS'vitamin_b_12'
p1510
NsS'midoride'
p1511
NsS'metronidazole'
p1512
NsS'monohydrochloride_dihydrate__ondansetron'
p1513
NsS'mexiletine'
p1514
NsS'2_(3_benzoylphenyl)propionic_acid'
p1515
NsS'hydrochloride__amiloride'
p1516
NsS'vancomycine_dakota'
p1517
NsS'sodium_cephazolin'
p1518
NsS'netilmicin_sulfate'
p1519
NsS'syntomycin'
p1520
NsS'puvalen'
p1521
NsS'fentolamin'
p1522
NsS'vitamin_b12'
p1523
NsS'doxorubicin_hexal'
p1524
NsS'gallodesoxycholic_acid'
p1525
NsS'vancocin'
p1526
NsS'sulfasalazine'
p1527
NsS'flecadura'
p1528
NsS'tropicamide_monohydrochloride__(s)_isomer'
p1529
NsS'gamma_vinyl_gamma_aminobutyric_acid'
p1530
NsS'lansoprazole_sodium'
p1531
NsS'theospan'
p1532
NsS'oxyphenylbutazone'
p1533
NsS'fluriproben'
p1534
NsS'imipenem_anhydrous'
p1535
NsS'2_bromoergocryptine_mesylate'
p1536
NsS'methyldiphenylhydramine'
p1537
NsS'caprolest'
p1538
NsS'polstigmine'
p1539
NsS'sulfamylon'
p1540
NsS'promethazine'
p1541
NsS'rolitetracycline_nitrate'
p1542
NsS'tropicamide__(r)_isomer'
p1543
NsS'embeline_e'
p1544
NsS'hydrochloride__procyclidine'
p1545
NsS'apo_doxazosin'
p1546
NsS'pilocarpine_nitrate'
p1547
NsS'timolol_maleate__(1:1)_salt'
p1548
NsS'doxazosin_azu'
p1549
NsS'ceftazidime_pentahydrate'
p1550
NsS'anhydrous__pinacidil'
p1551
NsS'rogitine'
p1552
NsS'colisticin'
p1553
NsS'iso_endoxan'
p1554
NsS'chlorpiprazine'
p1555
NsS'felo_biochemie'
p1556
NsS'flurbiprofen'
p1557
NsS'minocycline_hydrochloride'
p1558
NsS'fasigyn'
p1559
NsS'hydrochloride__procaine'
p1560
NsS'pentetic_acid'
p1561
NsS'procardia_xl'
p1562
NsS'glidiazinamide'
p1563
NsS'unicordium'
p1564
NsS'memantine'
p1565
NsS'amphotericin_b_colloidal_dispersion'
p1566
NsS'rausedyl'
p1567
NsS'ipratropium_bromide'
p1568
NsS'5_thia_1_azabicyclo(4.2.0)oct_2_ene_2_carboxylic_acid__7_((aminophenylacetyl)amino)_3_chloro_8_oxo___(6r_(6alpha_7beta(r*)))_'
p1569
NsS'sodium__cefmetazole'
p1570
NsS'obracin'
p1571
NsS'dtic_dome'
p1572
NsS'sulfate__guanethidine'
p1573
NsS'renitek'
p1574
NsS'1_2_3_4_tetrahydroaminoacridine'
p1575
NsS'diclophenac'
p1576
NsS'compound_64716'
p1577
NsS'diphenylhydramine'
p1578
NsS'salt_etidronate__tetrapotassium'
p1579
NsS'dorzolamide'
p1580
NsS'flecatab'
p1581
NsS'sulfoxyphenylpyrazolidin'
p1582
NsS'methanesulfonate__dihydroergotoxine'
p1583
NsS'methbipyranone'
p1584
NsS'hydrochloride__proguanil'
p1585
NsS'nico_400'
p1586
NsS'acetazolamide_sodium__(sterile)'
p1587
NsS'pr\xe3\xb6caine_chlorhydrate_lavoisier'
p1588
NsS'scopace'
p1589
NsS'bisoprolol__fumarate_(2:1)_salt'
p1590
NsS'hydroxyzine_pamoate'
p1591
NsS'carbazepin'
p1592
NsS'tetraverin'
p1593
NsS'azt__antiviral'
p1594
NsS'novapirina'
p1595
NsS'hydrobromide__dextromethorphan'
p1596
NsS'penicillin__aminobenzyl'
p1597
NsS'froben'
p1598
NsS'monohydrochloride__guanfacine'
p1599
NsS'probucol'
p1600
NsS'posiject'
p1601
NsS'lior\xe3\xa9sal'
p1602
NsS'holoxan'
p1603
NsS'flumid'
p1604
NsS'asmabec_clickhaler'
p1605
NsS'sotalol_hydrochloride'
p1606
NsS'metaproterenol'
p1607
NsS'isovue'
p1608
NsS'vitamin_d2'
p1609
((F0.9
S'25_hydroxyvitamin_d3'
p1610
tp1611
S"(st) matching: ratio , lcs, (key,drug) (keynorm,drugnorm 0.9 vitamin_d ('vitamin_d2', '25_hydroxyvitamin_d3') ('vitamin_d2', '25_hydroxyvitamin_d3')"
p1612
tp1613
sS'aldomet'
p1614
NsS'diclofenac'
p1615
NsS'menadione'
p1616
NsS'disodium__ticarcillin'
p1617
NsS'primafen'
p1618
NsS'cefalexin'
p1619
NsS'molindone'
p1620
NsS'fumarate__ketotifen'
p1621
NsS'jutanorm'
p1622
NsS'aerobin'
p1623
NsS'ethosuximide'
p1624
NsS'nitrofurantoin__monohydrate'
p1625
NsS'flubenisolone'
p1626
NsS'pyknolepsinum'
p1627
NsS'n_formimidoylthienamycin'
p1628
NsS'nudiflunisal'
p1629
NsS'paroxetine_hydrochloride'
p1630
NsS'estreptomicina_normon'
p1631
NsS'atromid'
p1632
NsS'nalbuphine'
p1633
NsS'flavoxate'
p1634
NsS'3_pyridinecarboxylic_acid'
p1635
NsS'sulphacetamide'
p1636
NsS'fenoprofen'
p1637
NsS'albuterol'
p1638
NsS'adrimedac'
p1639
NsS'cyanocobalamin'
p1640
NsS'sulf_10'
p1641
NsS'apatef'
p1642
NsS'kanbine'
p1643
NsS'diphosphate__primaquine'
p1644
NsS'diphenhydramine_citrate'
p1645
NsS'bepridil'
p1646
NsS'apo_acetazolamide'
p1647
NsS'carmustine'
p1648
NsS'zinacef'
p1649
NsS'gen_trazodone'
p1650
NsS'guaiphenesin'
p1651
NsS'naturetin'
p1652
NsS'pilder'
p1653
NsS'methylergonovine_maleate'
p1654
NsS'miccil'
p1655
NsS'nortriptyline'
p1656
NsS'etidronate__dicalcium'
p1657
NsS'paclitaxel__(4_alpha)_isomer'
p1658
NsS'carboptic'
p1659
NsS'ocu_tropic'
p1660
NsS'clonofilin'
p1661
NsS'cefotaxim'
p1662
NsS'apoacebutolol'
p1663
NsS'dauno_rubidomycine'
p1664
NsS'flecainide_monoacetate__(s)_isomer'
p1665
NsS'lidocaine_hydrochloride'
p1666
NsS'vancomycin_hydrochloride'
p1667
NsS'chloromycetin'
p1668
NsS'hydrochloride__rolitetracycline'
p1669
NsS'diethylcarbamazine_citrate_(1:2)'
p1670
NsS'trimipramine__(_)_isomer'
p1671
NsS'artane'
p1672
NsS'bupivacaina_braun'
p1673
NsS'viocin'
p1674
NsS'zelapar'
p1675
NsS'boro_scopol'
p1676
NsS'canesten'
p1677
NsS'onkotrone'
p1678
NsS'tropicamide_monofree'
p1679
NsS'2_6_dichlorobenzylideneaminoguanidine'
p1680
NsS'estrovarin'
p1681
NsS'zyntabac'
p1682
NsS'ticarcillin_disodium'
p1683
NsS'trom__amiduret'
p1684
NsS'promazine'
p1685
NsS'pms_gemfibrozil'
p1686
NsS'dimetabs'
p1687
NsS'nortrilen'
p1688
NsS'doxazosina_normon'
p1689
NsS'ansatipine'
p1690
NsS'amikason_s'
p1691
NsS'hytuss'
p1692
NsS'propafenone_hydrochloride'
p1693
NsS'testoderm'
p1694
NsS'zalcitabine'
p1695
NsS'1_butyl_n_(2_6_dimethylphenyl)_2_piperidinecarboxamide'
p1696
NsS'paroxetine'
p1697
NsS'ludiomil'
p1698
NsS'parafon'
p1699
NsS'celiomycin'
p1700
NsS'litarek'
p1701
NsS'dhe_ratiopharm'
p1702
NsS'pyridoxin'
p1703
NsS'sulfadiazine'
p1704
NsS'l_norgestrel'
p1705
NsS'keoxifene'
p1706
NsS'lansoprazole'
p1707
NsS'1_amino_3_5_dimethyladamantane'
p1708
NsS'prevacid'
p1709
NsS'cerucal'
p1710
NsS'kerlone'
p1711
NsS'levobunolol'
p1712
NsS'niopam'
p1713
NsS'pilocarpine'
p1714
NsS'naphcon_forte'
p1715
NsS'angionorm'
p1716
NsS'ethacrynic_acid'
p1717
NsS'amidal'
p1718
NsS'toprol_xl'
p1719
NsS'9_beta_d_arabinofuranosyladenine'
p1720
NsS'novoacebutolol'
p1721
NsS'levodopa'
p1722
NsS'zidovudine'
p1723
NsS'brompheniramine_maleate'
p1724
NsS'iopamidol'
p1725
NsS'maleate__loxipine'
p1726
NsS'bespar'
p1727
NsS'indapamide'
p1728
NsS'flucytosine'
p1729
NsS'rythmilen'
p1730
NsS'circanol'
p1731
NsS'chlorhexidine'
p1732
NsS'xylocaine'
p1733
NsS'ocu_tracin'
p1734
NsS'progandol_neo'
p1735
NsS'selegiline'
p1736
NsS'capronor'
p1737
NsS'apo_trifluoperazine'
p1738
NsS'anti_worm'
p1739
NsS'oxytetracycline__anhydrous'
p1740
NsS'probecid'
p1741
NsS'guanfacine'
p1742
NsS'cephamezine'
p1743
NsS'nafcillin_sodium'
p1744
NsS'cortisone'
p1745
((F1.0
S'hydrocortisone'
p1746
tp1747
S"(st) matching: ratio , lcs, (key,drug) (keynorm,drugnorm 1.0 cortisone ('cortisone', 'hydrocortisone') ('cortisone', 'hydrocortisone')"
p1748
tp1749
sS'carbamazepine_anhydrous'
p1750
NsS'nalidixic_acid'
p1751
NsS'fumarate__bisoprolol'
p1752
NsS'trifluoroperazine'
p1753
NsS'm\xe3\xa9ladinine'
p1754
NsS'apolevobunolol'
p1755
NsS'hydopa'
p1756
NsS'biocoryl'
p1757
NsS'n_cyano_n__methyl_n___(2_(((5_methyl_1h_imidazol_4_yl)methyl)thio)ethyl)guanidine'
p1758
NsS'esidrex'
p1759
NsS'9_alpha_fluorohydrocortisone'
p1760
NsS't_stat'
p1761
NsS'trimethobenzamide'
p1762
NsS'amitriptylin_neuraxpharm'
p1763
NsS'podophyllotoxin__(5r_(5_alpha_5a_alpha_8a_alpha_9_beta))_isomer'
p1764
NsS'fortum'
p1765
NsS'diacarb'
p1766
NsS'azodine'
p1767
NsS'cefoxitin'
p1768
NsS'acetonide_21_acetate__fluocinolone'
p1769
NsS'amantadinratiopharm'
p1770
NsS'achromycin'
p1771
NsS'quibron_tsr'
p1772
NsS'calcium_folinate'
p1773
NsS'c\xe3\xa9fobis'
p1774
NsS'rimetin'
p1775
NsS'2_deoxyglucose'
p1776
NsS'dienestrol__(e_e)_isomer'
p1777
NsS'gascop'
p1778
NsS'diaphenylsulfone'
p1779
NsS'genbaclofen'
p1780
NsS'apresoline'
p1781
NsS'topsyne'
p1782
NsS'baclofen'
p1783
NsS'nizatidine'
p1784
NsS'gyno_pervaryl_150'
p1785
NsS'epilincomycin'
p1786
NsS'xidiphon'
p1787
NsS'mydral'
p1788
NsS'noroxin'
p1789
NsS'ratio_desipramine'
p1790
NsS'radenarkon'
p1791
NsS'robaxin'
p1792
NsS'frusemide'
p1793
NsS'thiozine'
p1794
NsS'cetirigamma'
p1795
NsS'meropenem'
p1796
NsS'bendroflumethiazide'
p1797
NsS'mifepristone'
p1798
NsS'biomet400'
p1799
NsS'doxepin_hydrochloride__cis_trans_isomer_mixture_(approximately_1:5)'
p1800
NsS'nimodipino_bayvit'
p1801
NsS'2_phenethylhydrazine'
p1802
NsS'guanfacine_hydrochloride'
p1803
NsS'disopyramide_phosphate'
p1804
NsS'apo_trimip'
p1805
NsS'nativelle__digoxine'
p1806
NsS'tridione'
p1807
NsS'daunomycin'
p1808
NsS'notezine'
p1809
NsS'thiamine'
p1810
NsS'antabus'
p1811
NsS'coly_mycin'
p1812
NsS'chlortetracycline__calcium_salt'
p1813
NsS'lucenfal'
p1814
NsS'pyrrolidinium__3_((cyclopentylhydroxyphenylacetyl)oxy)_1_1_dimethyl___bromide'
p1815
NsS'trimipramine'
p1816
NsS'niacin_potassium_salt'
p1817
NsS'nimodipin_isis'
p1818
NsS'apo_thioridazine'
p1819
NsS'aminohippuric_acid'
p1820
NsS'motion_aid'
p1821
NsS'mestranol'
p1822
NsS'nimodipine'
p1823
NsS'chlortetracycline'
p1824
NsS'urocarb'
p1825
NsS'demeclocycline'
p1826
NsS'cefoperazone_sodium'
p1827
NsS'ceti_tad'
p1828
NsS'triftazin'
p1829
NsS'ganciclovir'
p1830
NsS'lovastatin'
p1831
NsS'ledermycin'
p1832
NsS'eureceptor'
p1833
NsS'novo_trazodone'
p1834
NsS'bupivacaine_monohydrochloride__monohydrate'
p1835
NsS'bupivacaine_carbonate'
p1836
NsS'niacin_ammonium_salt'
p1837
NsS'lopressor'
p1838
NsS'nalidixin'
p1839
NsS'sonapax'
p1840
NsS'iopamidol__(r)_isomer'
p1841
NsS'apo_bisacodyl'
p1842
NsS'procyclidine'
p1843
NsS'nystatin_a2'
p1844
NsS'leucovorin__(d)_isomer'
p1845
NsS'bayvit__gemfibrozilo'
p1846
NsS'nubain'
p1847
NsS'fulvicinuf'
p1848
NsS'hydrochloride_dihydride__naloxone'
p1849
NsS'bisolvomycin'
p1850
NsS'amoxapine'
p1851
NsS'farmiblastina'
p1852
NsS'minomycin'
p1853
NsS'vanillylidenehydrazide__isonicotinic_acid'
p1854
NsS'doxorubicin_nc'
p1855
NsS'thioridazine_hydrochloride'
p1856
NsS'thiethylperazine_malate'
p1857
NsS'indium_dtpa'
p1858
NsS'hydrochloride__chlorhexidine'
p1859
NsS'bwa_509u'
p1860
NsS'lorelco'
p1861
NsS'digoxin'
p1862
NsS'ketoconazole'
p1863
NsS'streptomycin_sulfate_(2:3)_salt'
p1864
NsS'soprodol'
p1865
NsS'pipolfen'
p1866
NsS'prostigmine'
p1867
NsS'paroxetine__cis_(+)_isomer'
p1868
NsS'ansaid'
p1869
NsS'rytmo_puren'
p1870
NsS'estrone'
p1871
NsS'6_propyl_2_thiouracil'
p1872
NsS'bishydroxycoumarin'
p1873
NsS'atrovent'
p1874
NsS'magnesium_valproate'
p1875
NsS'isofosfamide'
p1876
NsS'apo_dimenhydrinate'
p1877
NsS'awd__baclofen'
p1878
NsS'beta_phenylethylhydrazine'
p1879
NsS'5_formyltetrahydropteroylglutamate'
p1880
NsS'procanbid'
p1881
NsS'gerokit'
p1882
NsS'novo_nortriptyline'
p1883
NsS'mtw_doxazosin'
p1884
NsS'ethosuccimid'
p1885
NsS'maprotiline_mesylate'
p1886
NsS'nifurazolidone'
p1887
NsS'sodium__cefotaxime'
p1888
NsS'sodium_para_aminohippurate'
p1889
NsS'biosint'
p1890
NsS'monohydrochloride__minocycline'
p1891
NsS'mecloprodin'
p1892
NsS'bimaleate__pheniramine'
p1893
NsS'chenofalk'
p1894
NsS'mepyramine'
p1895
NsS'cobalamins'
p1896
NsS'norpramin'
p1897
NsS'rubidomycin'
p1898
NsS'pyrazinamide'
p1899
NsS'novantrone'
p1900
NsS'paromomycin'
p1901
NsS'estrone__(8_alpha)_isomer'
p1902
NsS'stelazine'
p1903
NsS'diethylstilbestrol'
p1904
NsS'glupitel'
p1905
NsS'dextromethorphan'
p1906
NsS'6h_purine_6_thione__1_7_dihydro_'
p1907
NsS'metaraminol_bitartrate'
p1908
NsS'nu_flurbiprofen'
p1909
NsS'azthreonam'
p1910
NsS'phenazopyridine'
p1911
NsS'para_aminohippurate__sodium'
p1912
NsS'cardene_i.v.'
p1913
NsS'mitroxone'
p1914
NsS'naloxone'
p1915
NsS'dobutamine_hydrochloride'
p1916
NsS'wehamine'
p1917
NsS'meclofenamate_sodium_monohydrate'
p1918
NsS'fluocinolone_acetonide_21_acetate'
p1919
NsS'seroxat'
p1920
NsS'thiosulfil'
p1921
NsS'orudis'
p1922
NsS'lipo_pge1'
p1923
NsS'orabet'
p1924
NsS'bacitin'
p1925
NsS'natulan'
p1926
NsS'nu_desipramine'
p1927
NsS'dimethylguanylguanidine'
p1928
NsS'anturane'
p1929
NsS'amikafur'
p1930
NsS'sensorcaine'
p1931
NsS'metaradrin'
p1932
NsS'imidazole_carboxamide__dimethyl'
p1933
NsS'amantadin_ratiopharm'
p1934
NsS'methergine'
p1935
NsS'constant_t'
p1936
NsS'lofibra'
p1937
NsS'topicycline'
p1938
NsS'trimipramine_maleate'
p1939
NsS'apo_labetalol'
p1940
NsS'zirtek'
p1941
NsS'felogamma'
p1942
NsS'metronidazole_monohydrochloride'
p1943
NsS'asendis'
p1944
NsS'traziquantel'
p1945
NsS'wyeth_ayerst_of_guanabenz_acetate'
p1946
NsS'viridal'
p1947
NsS'azathioprine_sodium_salt'
p1948
NsS'pro_ulco'
p1949
NsS'brompheniramine'
p1950
NsS'bromocryptin'
p1951
NsS'dobutamine'
p1952
NsS'pilocarpine_hydrochloride'
p1953
NsS'tavist'
p1954
NsS'sodium__lansoprazole'
p1955
NsS'metosyn'
p1956
NsS'dulcolax_perles'
p1957
NsS'phenethylhydrazine'
p1958
NsS'lamprene'
p1959
NsS'mantadix'
p1960
NsS'clomipramine'
p1961
NsS'nalbuphine_hydrochloride'
p1962
NsS'hydrochloride__labetalol'
p1963
NsS'vancomicina_chiesi'
p1964
NsS'alcon__betaxolol'
p1965
NsS'evista'
p1966
NsS'sulfacyl'
p1967
NsS'mefenamine'
p1968
NsS'carticaine'
p1969
NsS'paludrin'
p1970
NsS'catapresan'
p1971
NsS'trimethadione'
p1972
NsS'nilstat'
p1973
NsS'n_ethyl_n_(4_pyridylmethyl)tropamide'
p1974
NsS'vermicol'
p1975
NsS'hydrochloride__hydralazine'
p1976
NsS'orphenadrine_citrate'
p1977
NsS'gemhexal'
p1978
NsS'tele_stulln'
p1979
NsS'cefaclor_anhydrous'
p1980
NsS'baridium'
p1981
NsS'osnervan'
p1982
NsS'blocadren'
p1983
NsS'monohydrochloride__chlortetracycline'
p1984
NsS'ridene'
p1985
NsS'benecid'
p1986
NsS'albucid'
p1987
NsS'ecobec'
p1988
NsS'anthisan'
p1989
NsS'vomex_a'
p1990
NsS'nu_fenofibrate'
p1991
NsS'napaltan'
p1992
NsS'clomipramine_hydrochloride'
p1993
NsS'proguanil'
p1994
NsS'pentacin'
p1995
NsS'minakne'
p1996
NsS'etodolac__monosodium_salt__(s)_isomer'
p1997
NsS'etodolac'
p1998
NsS'trimineurin_maleate'
p1999
NsS'velban'
p2000
NsS'furosemide_monohydrochloride'
p2001
NsS'gen_amantadine'
p2002
NsS'conceplan'
p2003
NsS'anuject'
p2004
NsS'lidocaine'
p2005
NsS'rytmil'
p2006
NsS'bromide__neostigmine'
p2007
NsS'hydrochloride__flavoxate'
p2008
NsS'propafenone'
p2009
NsS'atropen'
p2010
NsS'2_(2_(1_(4_chlorophenyl)_1_phenylethoxy)ethyl)_1_methylpyrrolidine'
p2011
NsS'nu_mefenamic'
p2012
NsS'disopyramide_phosphate_(1:1)__(s)_isomer'
p2013
NsS'dibencycladine'
p2014
NsS'(2_(4_((4_chlorophenyl)phenylmethyl)_1_piperazinyl)ethoxy)acetic_acid'
p2015
NsS'levonorgestrel'
p2016
NsS'beclomethasone'
p2017
NsS'bisco_lax'
p2018
NsS'n_methylacetazolamide'
p2019
NsS'tegopen'
p2020
NsS'daunorubicin'
p2021
NsS'insogen'
p2022
NsS'saquinavir'
p2023
NsS'gemfibrozilo_bexal'
p2024
NsS'serpivite'
p2025
NsS'dienestrol'
p2026
NsS'rastinon'
p2027
NsS'microx'
p2028
NsS'procamide'
p2029
NsS'bisoprolol_methanesulfonate_salt'
p2030
NsS'tenakrin'
p2031
NsS'sulfapyridine'
p2032
NsS'fluorometholone'
p2033
NsS'lanacordin'
p2034
NsS'droleptan'
p2035
NsS'ritodrine'
p2036
NsS'virophta'
p2037
NsS'feloran'
p2038
NsS'amukin'
p2039
NsS'ulcolax'
p2040
NsS'pheniramine'
p2041
NsS'artosin'
p2042
NsS'nu_sulfinpyrazone'
p2043
NsS'oxodal'
p2044
NsS'maleate__pyrilamine'
p2045
NsS'aminocaproic_acid'
p2046
NsS'alprostadil'
p2047
NsS'demeclocycline__4_epimer'
p2048
NsS'cefmetazole_sodium'
p2049
NsS'bepridil__(+_)_isomer'
p2050
NsS'kanamycin'
p2051
NsS'promethazine_hydrochloride'
p2052
NsS'procetofen'
p2053
NsS'pralidoxime'
p2054
NsS'norfenon'
p2055
NsS'lansoprazol'
p2056
NsS'adriamycin'
p2057
NsS'iobenguane'
p2058
NsS'kaluril'
p2059
NsS'ekonazole'
p2060
NsS'dobuject'
p2061
NsS'guanabenz'
p2062
NsS'hexal__nimodipin'
p2063
NsS'bricanyl_sa'
p2064
NsS'podophyllotoxin__(5r_(5_alpha_5a_beta_8a_alpha_9_beta))_isomer'
p2065
NsS'doxepin'
p2066
NsS'dramanate'
p2067
NsS'novo_flurprofen'
p2068
NsS'trifluoperazine_hcl'
p2069
NsS'sodium_mefenamine'
p2070
NsS'methylergometrine'
p2071
NsS'primaquine_phosphate'
p2072
NsS'novotripramine'
p2073
NsS'netromycin'
p2074
NsS'theovent'
p2075
NsS'6_methylcompactin'
p2076
NsS'flecainide_monoacetate__(+_)_isomer'
p2077
NsS'hydrochloride__fluphenazine'
p2078
NsS'carbinoxamine'
p2079
NsS'cebutid'
p2080
NsS'(1_hydroxyethylene)diphosphonic_acid__tetrapotassium_salt'
p2081
NsS'dicloxacillin__monosodium_salt__mono_hydrate'
p2082
NsS'diethylenetriamine_pentaacetic_acid'
p2083
NsS'nicardipino_seid'
p2084
NsS'cardura'
p2085
NsS'apo_minocycline'
p2086
NsS'beclo_azu'
p2087
NsS'amantadin_stada'
p2088
NsS'erymax'
p2089
NsS'timolol'
p2090
NsS'biphenabid'
p2091
NsS'novoflutamide'
p2092
NsS'astonin_h'
p2093
NsS'nicardipine'
p2094
NsS'warticon'
p2095
NsS'danazant'
p2096
NsS'aprinox'
p2097
NsS'rosiglitazone'
p2098
NsS'diaphyllin'
p2099
NsS'thyroid_hormone__t3'
p2100
NsS'hyoscine'
p2101
NsS'diethylcarbamazine'
p2102
NsS'aminophylline_df'
p2103
NsS'salicylazosulfapyridine'
p2104
NsS'maprotilin_ratiopharm'
p2105
NsS'amphotericin_b'
p2106
NsS'lenoxin'
p2107
NsS'hydrochloride__demeclocycline'
p2108
NsS'zyban_(anti_smoking)'
p2109
NsS'2_bromo_alpha_ergocryptine'
p2110
NsS'cefixime'
p2111
NsS'ventolin'
p2112
NsS'furazolidone'
p2113
NsS'mono_hydrochloride__hydralazine'
p2114
NsS'concor'
p2115
NsS'ketotiphen'
p2116
NsS'betaloc_astra'
p2117
NsS'nuelin_s.a.'
p2118
NsS'5_amino_(3_4__bipyridine)_6(1h)_one'
p2119
NsS'nebicin'
p2120
NsS'beta_ara_a'
p2121
NsS'peritol'
p2122
NsS'sodium_anhydrous__nalidixate'
p2123
NsS'penthanil'
p2124
NsS'melzine'
p2125
NsS'obsidan'
p2126
NsS'nitrate__pilocarpine'
p2127
NsS'lysinopril'
p2128
NsS'nilutamide'
p2129
NsS'viarin'
p2130
NsS'marcaine'
p2131
NsS'nifangin'
p2132
NsS'diclofenac__sodium'
p2133
NsS'corinfar'
p2134
NsS'bethanechol'
p2135
NsS'chloriguane'
p2136
NsS'folinic_acid_sf'
p2137
NsS'dipivefrine'
p2138
NsS'benzoic_acid__2_((2_6_dichloro_3_methylphenyl)amino)___monosodium_salt__monohydrate'
p2139
NsS'ceporexine'
p2140
NsS'disopyramide'
p2141
NsS'phenoxybenzamine_hydrochloride'
p2142
NsS'lovastatin__1_alpha_isomer'
p2143
NsS'galantamine'
p2144
NsS'risperdal_consta'
p2145
NsS'hydroxyzine'
p2146
NsS'drenural'
p2147
NsS'pamoate__hydroxyzine'
p2148
NsS'6_mercaptopurine'
p2149
NsS'naloxone_abello'
p2150
NsS'delsym'
p2151
NsS'deptran'
p2152
NsS'sulfacetamide_monosodium_salt'
p2153
NsS'loxapinsuccinate'
p2154
NsS'theoconfin_continuous'
p2155
NsS'apo_amitriptyline'
p2156
NsS'flunisolide'
p2157
NsS'stamycin'
p2158
NsS'epsikapron'
p2159
NsS'dobutrex'
p2160
NsS'kestrone'
p2161
NsS'duricef'
p2162
NsS'fluocinonide'
p2163
NsS'aminosidine'
p2164
NsS'apo_acebutolol'
p2165
NsS'desyrel'
p2166
NsS'tetrapotassium_salt_etidronate'
p2167
NsS'monovent'
p2168
NsS'nicardipine_la'
p2169
NsS'loperamide'
p2170
NsS'nitrate__econazole'
p2171
NsS'ampicillin'
p2172
NsS'chenodeoxycholic_acid'
p2173
NsS'2__3__dideoxycytidine'
p2174
NsS'beclometasone'
p2175
NsS'paroxetine__trans_(+)_isomer'
p2176
NsS'flufenazin'
p2177
NsS'fluken'
p2178
NsS'finasteride'
p2179
NsS'clidinium_bromide'
p2180
NsS'ponstan_forte'
p2181
NsS'liskantin'
p2182
NsS'hetrazan'
p2183
NsS'miambutol'
p2184
NsS'rexigen'
p2185
NsS'prednisolone'
p2186
((F1.0
S'methylprednisolone_sodium_succinate'
p2187
tp2188
S"(st) matching: ratio , lcs, (key,drug) (keynorm,drugnorm 1.0 prednisolone ('prednisolone', 'methylprednisolone_sodium_succinate') ('prednisolone', 'methylprednisolone_sodium_succinate')"
p2189
tp2190
sS'fenofibrat_von_ct'
p2191
NsS'amikacina_medical'
p2192
NsS'ranitidin'
p2193
NsS'maprotiline'
p2194
NsS'huma_zolamide'
p2195
NsS'atropine'
p2196
NsS'diethylcarbamazine_monohydrochloride'
p2197
NsS'vidarabine'
p2198
NsS'emb_hefa'
p2199
NsS'aknemin'
p2200
NsS'terbuturmant'
p2201
NsS'demethylimipramine'
p2202
NsS'prednicarbate'
p2203
NsS'fenoprofen__anhydrous__calcium_salt'
p2204
NsS'tetracaine'
p2205
NsS'terry_white_chemists_gemfibrozil'
p2206
NsS'doxepin_rph'
p2207
NsS'tolectin'
p2208
NsS'acebutolol'
p2209
NsS'thioridazine'
p2210
NsS'2_chloro_11_(1_piperazinyl)dibenz(b_f)(1_4)oxazepine'
p2211
NsS'hermes__myo'
p2212
NsS'dipropyl_acetate'
p2213
NsS'dopegyt'
p2214
NsS'novo_tripramine'
p2215
NsS'disopyramide__d_tartrate_(1:1)__(s)_isomer'
p2216
NsS'namenda'
p2217
NsS'bamalite'
p2218
NsS'theoclate__diphenhydramine'
p2219
NsS'estradiol'
p2220
((F1.0
S'estradiol_patch'
p2221
tp2222
S"(st) matching: ratio , lcs, (key,drug) (keynorm,drugnorm 1.0 estradiol ('estradiol', 'estradiol_patch') ('estradiol', 'estradiol_patch')"
p2223
tp2224
sS'rodovan'
p2225
NsS'digitek'
p2226
NsS'dihydroergotamine_methanesulfonate'
p2227
NsS'anapriline'
p2228
NsS'p_bromdylamine'
p2229
NsS'pyrilamine_maleate'
p2230
NsS'vancocin_hcl'
p2231
NsS'myocet'
p2232
NsS'dynapen'
p2233
NsS'erythromycin_phosphate'
p2234
NsS'valproate'
p2235
NsS'co_dergocrine_mesylate'
p2236
NsS'trecator_sc'
p2237
NsS'testosterone'
p2238
NsS'celance'
p2239
NsS'fml_liquifilm'
p2240
NsS'solutrast'
p2241
NsS'lanoxicaps'
p2242
NsS'pyrimethamine'
p2243
NsS'dobutamine__(_)_isomer'
p2244
NsS'fluocinolide'
p2245
NsS'bisoprolol_fumarate_(1:1)_salt__(+_)_isomer'
p2246
NsS'milrinone'
p2247
NsS'ergocalciferols'
p2248
NsS'zinc_bacitracin'
p2249
NsS'theolair'
p2250
NsS'redergam'
p2251
NsS'pancuronium_bromide'
p2252
NsS'lincil'
p2253
NsS'praxel'
p2254
NsS'labetalol__(r_r)_isomer'
p2255
NsS'cyclobenzaprine'
p2256
NsS'invirase'
p2257
NsS'hydrochloride__oxprenolol'
p2258
NsS'histapyridamine'
p2259
NsS'trihydrate__ampicillin'
p2260
NsS'salazopyrin'
p2261
NsS'semisodium_valproate'
p2262
NsS'methyldopate'
p2263
NsS'hydrochloride__clomipramine'
p2264
NsS'benuryl'
p2265
NsS'pentetate__calcium_trisodium'
p2266
NsS'acetazolamide'
p2267
NsS'cyclodol'
p2268
NsS'flutamide'
p2269
NsS'diclocil'
p2270
NsS'bumedyl'
p2271
NsS'ponstel'
p2272
NsS'benzhydramine'
p2273
NsS'octocaine'
p2274
NsS'guanethidine_sulfate_(2:1)__14c_labeled'
p2275
NsS'wellcovorin'
p2276
NsS'halcimat'
p2277
NsS'triamterene'
p2278
NsS'metaraminol'
p2279
NsS'bupivacaine'
p2280
NsS'vancomycin_phosphate_(1:2)__decahydrate'
p2281
NsS'fluphenazine'
p2282
NsS'trans_2_phenylcyclopropylamine'
p2283
NsS'felodipin_al'
p2284
NsS'pripsen_mebendazole'
p2285
NsS'4_hydroxycephalexin'
p2286
NsS'deltasoralen'
p2287
NsS'guanabenz_monoacetate'
p2288
NsS'pms_trazodone'
p2289
NsS'9_alpha_fludrohydrocortisone'
p2290
NsS'methanesulfonate__dihydroergotamine'
p2291
NsS'amrinone'
p2292
NsS'carbamoylcholine'
p2293
NsS'pronestyl'
p2294
NsS'apo_primidone'
p2295
NsS'sanasthmyl'
p2296
NsS'lidocaine_sulfate_(1:1)'
p2297
NsS'sodium__nafcillin'
p2298
NsS'cefotaxime'
p2299
NsS'respocort'
p2300
NsS'maleate__brompheniramine'
p2301
NsS'pimozide'
p2302
NsS'paromomycin_sulfate_(1:1)'
p2303
NsS'sinequan'
p2304
NsS'cefadroxil'
p2305
NsS'estomycin'
p2306
NsS'fenofanton'
p2307
NsS'aerobec'
p2308
NsS'dantrium'
p2309
NsS'diprazin'
p2310
NsS'quincardine'
p2311
NsS'nu_trimipramine'
p2312
NsS'chlomipramine'
p2313
NsS'triprolidine_monohydrochloride__(z)_isomer'
p2314
NsS'procain_jenapharm'
p2315
NsS'valproic_acid'
p2316
NsS'levothyroxine_sodium'
p2317
NsS'biklin'
p2318
NsS'guaiacol_glyceryl_ether'
p2319
NsS'paroxetine_acetate'
p2320
NsS'pentamidin'
p2321
NsS'vira_a'
p2322
NsS'von_ct__doxazosin'
p2323
NsS'aztreonam'
p2324
NsS'pinalgesic'
p2325
NsS'trimipramin_azu'
p2326
NsS'procaina_serra'
p2327
Ns.