(dp0
S'distilb\xe3\xa8ne'
p1
NsS'telmisartan'
p2
NsS'tamoxifen'
p3
NsS'3_7_dimethyl_9_(2_6_6_trimethyl_1_cyclohexen_1_yl)_2_4_6_8_nonatetraen_1_ol__(all_e)_isomer'
p4
NsS'stromectol'
p5
NsS'beta_(aminomethyl)_4_chlorobenzenepropanoic_acid'
p6
NsS'niacin'
p7
NsS'bleomycins'
p8
NsS'vesanoid'
p9
NsS'adrucil'
p10
NsS'gelidina'
p11
NsS'ethinyl_estradiol'
p12
NsS'pregn_4_ene_3_20_dione__17_(acetyloxy)_6_methyl___(6alpha)_'
p13
NsS'phisohex'
p14
NsS'deferrioxamine_b'
p15
NsS'tamoxifen_citrate'
p16
NsS'normalip'
p17
NsS'fluoxetine'
p18
NsS'cholecalciferol'
p19
NsS'galzin'
p20
NsS'd3__1_25_dihydroxyvitamin'
p21
NsS'dihydrate__azithromycin'
p22
NsS'stada__fenofibrat'
p23
NsS'gen_fenofibrate'
p24
NsS'vupral'
p25
NsS'pcp_gaba'
p26
NsS'ribodoxo'
p27
NsS'niacin_ammonium_salt'
p28
NsS'diclophenac'
p29
NsS'desoxynorephedrin'
p30
NsS'cyclosporine'
p31
NsS'progesterone'
p32
NsS'miostat'
p33
NsS'propanolol'
p34
NsS'ciprofloxacin_hydrochloride_anhydrous'
p35
NsS'acetamidophenol'
p36
NsS'vilona'
p37
NsS'niacin_cobalt_(2+)_salt'
p38
NsS'novaldex'
p39
NsS'amoxicilline'
p40
NsS'toprol'
p41
NsS'sevoflurane'
p42
NsS'teturam'
p43
NsS'csa_neoral'
p44
NsS'bleomycin_b2'
p45
NsS'cytoxan'
p46
NsS'debat__f\xe3\xa9nofibrate'
p47
NsS'voltaren'
p48
NsS'ribamide'
p49
NsS'fluorouracil_gry'
p50
NsS'decostriol'
p51
NsS'metadate'
p52
NsS'gen_baclofen'
p53
NsS'colchicine__(r)_isomer'
p54
NsS'estradiol__(16_alpha_17_alpha)_isomer'
p55
NsS'fluocinolone_acetonide'
p56
NsS'5_fu_lederle'
p57
NsS'tampovagan'
p58
NsS'lipidil'
p59
NsS'triclosan'
p60
NsS'hydramycin'
p61
NsS'novo_fenofibrate'
p62
NsS'bis(diethylthiocarbamoyl)_disulfide'
p63
NsS'anacin_3'
p64
NsS'sulfate__amphetamine'
p65
NsS'ethinyl_estradiol__(8_alpha_9_beta_13_alpha_14_beta)_isomer'
p66
NsS'doxorubicina_funk'
p67
NsS'baclospas'
p68
NsS'nicotine_tartrate'
p69
NsS'ivermectin'
p70
NsS'irgasan_dp300'
p71
NsS'ritalin_sr'
p72
NsS'desferrioxamine_b'
p73
NsS'cis_diamminedichloroplatinum'
p74
NsS'thiamine'
p75
NsS'antabus'
p76
NsS'5_fu_medac'
p77
NsS'niacin_potassium_salt'
p78
NsS'diethylstilbestrol__(z)_isomer'
p79
NsS'permethrin__(1s_cis)_isomer'
p80
NsS'arsenic_trioxide'
p81
NsS'testopel'
p82
NsS'sapoderm'
p83
NsS'clamoxyl_g.a.'
p84
NsS'phenamine'
p85
NsS'5_fluorouracil'
p86
NsS'azu__fenofibrat'
p87
NsS'permethrin__(1r_cis)_isomer'
p88
NsS'toprol_xl'
p89
NsS'calcitriol_kyramed'
p90
NsS'methylphenylisoxazolyl_penicillin'
p91
NsS'isoflurane'
p92
NsS'testosterone'
p93
NsS'ranolazine'
p94
NsS'lopressor'
p95
NsS'tricor'
p96
NsS'estradiol__(17_alpha)_isomer'
p97
NsS'permethrin'
p98
NsS'sustanon'
p99
NsS'periostat'
p100
NsS'metoprolol'
p101
NsS'decitabine'
p102
NsS'mifegyne'
p103
NsS'retin_a'
p104
NsS'mannitol'
p105
NsS'farmiblastina'
p106
NsS'quetiapine'
p107
NsS'cosmegen_lyovac'
p108
NsS'doxorubicin_nc'
p109
NsS'isopropylnoradrenaline'
p110
NsS'fulvestrant'
p111
NsS'permethrin__(trans)_isomer'
p112
NsS'sodium_salt__tretinoin'
p113
NsS'carbosin'
p114
NsS'estradiol__(8_alpha_17_beta)_isomer'
p115
NsS'disulfide__tetraethylthiuram'
p116
NsS'sulfate__bleomycin'
p117
NsS'tretinoin_sodium_salt'
p118
NsS'ferrous_ascorbate'
p119
NsS'adriablastine'
p120
NsS'isoproterenol_hydrochloride'
p121
NsS'magnesium_valproate'
p122
NsS'morphine'
p123
NsS'awd__baclofen'
p124
NsS'sandimmun_neoral'
p125
NsS'zitazonium'
p126
NsS'morphine_sulfate'
p127
NsS'levo_amphetamine'
p128
NsS'sorafenib'
p129
NsS'letrozole'
p130
NsS'niacin_zinc_salt'
p131
NsS'acid__all_trans_retinoic'
p132
NsS'salt__tretinoin_sodium'
p133
NsS'2_propylpentanoic_acid'
p134
NsS'ozidia'
p135
NsS'procytox'
p136
NsS'desferioximine'
p137
NsS'(l)_mannitol'
p138
NsS'flucinar'
p139
NsS'ascorbate__sodium'
p140
NsS'leponex'
p141
NsS'thiamine_mononitrate'
p142
NsS'cis_permethrin'
p143
NsS'1_25_dihydroxy_20_epi_vitamin_d3'
p144
NsS'farmistin'
p145
NsS'doxycycline_monohydrate'
p146
NsS'amfetamine'
p147
NsS'levoamphetamine'
p148
NsS'praxel'
p149
NsS'betaloc'
p150
NsS'2_6_bis(1_methylethyl)phenol'
p151
NsS'pyrazinamide'
p152
NsS'atrofen'
p153
NsS'ezetimibe'
p154
NsS'aneurin'
p155
NsS'cyclosporine_a'
p156
NsS'zinc_acetate'
p157
NsS'desferroxamine'
p158
NsS'nicocap'
p159
NsS'glupitel'
p160
NsS'norfloxacin'
p161
NsS'paclitaxel'
p162
NsS'concerta'
p163
NsS'dipropyl_acetate'
p164
NsS'procetofen__antara_micronized'
p165
NsS'cellcristin'
p166
NsS'anapriline'
p167
NsS'carbachol'
p168
NsS'nicotine'
p169
NsS'niacin_magnesium_salt'
p170
NsS'bortezomib'
p171
NsS'ethinyl_estradiol__(8_alpha)_isomer'
p172
NsS'irgasan_dp_300'
p173
NsS'ethinylestradiol_jenapharm'
p174
NsS'progynova'
p175
NsS'methotrexate'
p176
((F1.0
S'methotrexate_sodium'
p177
tp178
S"Suffix-based-exact-matching ('methotrexate', 'methotrexate_sodium') ('methotrexate', 'methotrexate_sodium')"
p179
tp180
sS'estradiol__sodium_salt'
p181
NsS'amphetamine_sulfate'
p182
NsS'magnesium_ascorbate'
p183
NsS'sandimmun'
p184
NsS'estradiol__(+_)_isomer'
p185
NsS'2_naphthacenecarboxamide__4_(dimethylamino)_1_4_4a_5_5a_6_11_12a_octahydro_3_5_10_12_12a_pentahydroxy_6_methyl_1_11_dioxo___(4s_(4alpha_4aalpha_5alpha_5aalpha_6alpha_12aalpha))_'
p186
NsS'nico400'
p187
NsS'beloc_duriles'
p188
NsS'eposin'
p189
NsS'medroxyprogesterone_17_acetate'
p190
NsS'retinoic_acid'
p191
NsS'candesartan'
p192
NsS'prozac'
p193
NsS'lofibra'
p194
NsS'bleomycin_a2'
p195
NsS'alpha_6_deoxyoxytetracycline'
p196
NsS'colchicine'
p197
NsS'derma_smooth_fs'
p198
NsS'paraplatin'
p199
NsS'lorelco'
p200
NsS'renatriol'
p201
NsS'monohydrate__azithromycin'
p202
NsS'p_hydroxyacetanilide'
p203
NsS'1_alpha__25_dihydroxy_20_epi_vitamin_d3'
p204
NsS'fenofibrat_hexal'
p205
NsS'aquafol'
p206
NsS'isadrin'
p207
NsS'oxandrolone'
p208
NsS'neocarbo'
p209
NsS'zinc_acetate_dihydrate'
p210
NsS'mesylate__deferoxamine'
p211
NsS'6_alpha_methyl_17alpha_hydroxyprogesterone_acetate'
p212
NsS'sunitinib'
p213
NsS'eqvalan'
p214
NsS'temozolomide'
p215
NsS'propranolol'
p216
NsS'ciba34_647ba'
p217
NsS'ciprofloxacin'
p218
NsS'heparinic_acid'
p219
NsS'methanesulfonate__deferoxamine'
p220
NsS'isopropyl_noradrenaline'
p221
NsS'cyclopropanecarboxylic_acid__3_(2_2_dichloroethenyl)_2_2_dimethyl___(3_phenoxyphenyl)methyl_ester'
p222
NsS'jellisoft'
p223
NsS'csaneoral'
p224
NsS'zinc_sulfate'
p225
NsS'amoxicillin_anhydrous'
p226
NsS'methylprednisolone'
p227
((F1.0
S'methylprednisolone_acetate'
p228
tp229
S"Suffix-based-exact-matching ('methylprednisolone', 'methylprednisolone_acetate') ('methylprednisolone', 'methylprednisolone_acetate')"
p230
tp231
sS'melizide'
p232
NsS'morphine_sulfate_(2:1)__anhydrous'
p233
NsS'vitamin_b_1'
p234
NsS'acid__trans_retinoic'
p235
NsS'lipidil_ter'
p236
NsS'bellon__bl\xe3\xa9omycine'
p237
NsS'glidiazinamide'
p238
NsS'fluortriamcinolone_acetonide'
p239
NsS'levopa'
p240
NsS'baclof\xe3\xa8neirex'
p241
NsS'deferoxamine_mesilate'
p242
NsS'apo_baclofen'
p243
NsS'azithromycin'
p244
NsS'nrdc143'
p245
NsS'disoprivan'
p246
NsS'eto_gry'
p247
NsS'mtw_fenofibrat'
p248
NsS'sodium_salt__niacin'
p249
NsS'mif\xe3\xa9gyne'
p250
NsS'oestradiol'
p251
NsS'bleomycin'
p252
NsS'tylenol'
p253
NsS'cis_diamminedichloroplatinum(ii)'
p254
NsS'niacin_lithium_salt__hemihydrate'
p255
NsS'(3_beta_5z_7e)_9_10_secocholesta_5_7_10(19)_trien_3_ol'
p256
NsS'niacin_hydrochloride'
p257
NsS'cytophosphane'
p258
NsS'sulfate__zinc'
p259
NsS'platidiam'
p260
NsS'amoxicillin_trihydrate'
p261
NsS'haemato_fu'
p262
NsS'clozapine'
p263
NsS'nu_fenofibrate'
p264
NsS'7_epi_taxol'
p265
NsS'teva__etoposide'
p266
NsS'estradiol_valerate'
p267
NsS'acetaminophen'
p268
NsS'13_cis_retinoic_acid'
p269
NsS'metoprolol_tartrate'
p270
NsS'co_fluocin'
p271
NsS'methylphenidate'
p272
NsS'doxycycline_calcium'
p273
NsS'vibra_tabs'
p274
NsS'oxacillin__monosodium_salt__anhydrous'
p275
NsS'cis_dichlorodiammineplatinum(ii)'
p276
NsS'doxorubicine_baxter'
p277
NsS'etoposide__(5s)_isomer'
p278
NsS'urokit_doxo_cell'
p279
NsS'hydrochloride__propranolol'
p280
NsS'glipizide'
p281
NsS'zincteral'
p282
NsS'vincasar'
p283
NsS'demethyl_epipodophyllotoxin_ethylidine_glucoside'
p284
NsS'bleo_cell'
p285
NsS'tobramycin'
p286
NsS'algotropyl'
p287
NsS'ascorbic_acid'
p288
NsS'duramorph'
p289
NsS'ascorbate__ferrous'
p290
NsS'all_trans_retinoic_acid'
p291
NsS'alpha_heparin'
p292
NsS'1_25_dihydroxycholecalciferol'
p293
NsS'zithromax'
p294
NsS'diclofenac_potassium'
p295
NsS'menadione'
p296
NsS'heparin__sodium'
p297
NsS'hydrochloride_anhydrous__ciprofloxacin'
p298
NsS'tetraethylthioperoxydicarbonic_diamide__((h2n)c(s))2s2'
p299
NsS'ethinyl_oestradiol_effik'
p300
NsS'gemcitabine'
p301
NsS'feloran'
p302
NsS'5_hu_hexal'
p303
NsS'3_hydroxy_l_tyrosine'
p304
NsS'fenofibrat_fph'
p305
NsS'anavar'
p306
NsS'metoprolol_cr_xl'
p307
NsS'bocatriol'
p308
NsS'lopirin'
p309
NsS'minidiab'
p310
NsS'sodium_heparin'
p311
NsS'diethylstilbestrol'
p312
NsS'hydrochloride__niacin'
p313
NsS'histerone'
p314
NsS'vincristine'
p315
NsS'brulamycin'
p316
NsS'genbaclofen'
p317
NsS'progynon_c'
p318
NsS'hydrocortisone__(11_alpha)_isomer'
p319
NsS'lipantil'
p320
NsS'acid__ascorbic'
p321
NsS'procetofen'
p322
NsS'adriblastine'
p323
NsS'l_dopa'
p324
NsS'isuprel'
p325
NsS'adriamycin'
p326
NsS'fluorouracile_dakota'
p327
NsS'taxol__bris'
p328
NsS'tersaseptic'
p329
NsS'fresofol'
p330
NsS'calcitriol_nefro'
p331
NsS'ethynyl_estradiol'
p332
NsS'progynon_depot'
p333
NsS'datril'
p334
NsS'etoposide__alpha_d_glucopyranosyl_isomer'
p335
NsS'doxo_cell'
p336
NsS'beta_all_trans_retinoic_acid'
p337
NsS'cyclophosphamide_monohydrate'
p338
NsS'azythromycin'
p339
NsS'synamol'
p340
NsS'carboplatin'
p341
NsS'vincristin_medac'
p342
NsS'toraseptol'
p343
NsS'noradrenaline__isopropyl'
p344
NsS'pemetrexed'
p345
NsS'meractinomycin'
p346
NsS'isotretinoin_zinc_salt__13_cis_isomer'
p347
NsS'betaloc_astra'
p348
NsS'amoxicillin_monosodium_salt'
p349
NsS'panavir'
p350
NsS'androgel'
p351
NsS'apo_feno_micro'
p352
NsS'tosylate__niacin'
p353
NsS'fluorouracil_potassium_salt'
p354
NsS'microfollin_forte'
p355
NsS'biphenabid'
p356
NsS'osmofundin'
p357
NsS'8_isotestosterone'
p358
NsS'doxycycline'
p359
NsS'magnesium_di_l_ascorbate'
p360
NsS'aluminum_salt__niacin'
p361
NsS'rosiglitazone'
p362
NsS'microshield_t'
p363
NsS'myocet'
p364
NsS'17_beta_oestradiol'
p365
NsS'fluoruracil'
p366
NsS'oxacillin__sodium'
p367
NsS'deferoxamine_methanesulfonate'
p368
NsS'propofol_lipuro'
p369
NsS'l_ascorbic_acid'
p370
NsS'2_4_4__trichloro_2__hydroxydiphenyl_ether'
p371
NsS'levetiracetam'
p372
NsS'pioglitazone'
p373
NsS'dactinomycin'
p374
NsS'retinol'
p375
NsS'nicotinate__lithium'
p376
NsS'carbacholine'
p377
NsS'amoxycillin'
p378
NsS'blenoxane'
p379
NsS'calcitriol'
p380
NsS'nebicin'
p381
NsS'etopos'
p382
NsS'ribovirin'
p383
NsS'silkis'
p384
NsS'vincrisul'
p385
NsS'magnorbin'
p386
NsS'f\xe3\xa9nofibrate_debat'
p387
NsS'irinotecan'
p388
NsS'estradiol__(9_beta_17_beta)_isomer'
p389
NsS'pms_baclofen'
p390
NsS'hydrochloride__isoproterenol'
p391
NsS'isopto_carbachol'
p392
NsS'acephen'
p393
NsS'obsidan'
p394
NsS'tobracin'
p395
NsS'cya_nof'
p396
NsS'biocisplatinum'
p397
NsS'onkocristin'
p398
NsS'avlocardyl'
p399
NsS'fluoxetine_hydrochloride'
p400
NsS'captopril'
p401
NsS'isotretinoin'
p402
NsS'diclofenac__sodium'
p403
NsS'delestrogen'
p404
NsS'polymyxin_b_sulfate'
p405
NsS'progesterone__(13_alpha_17_alpha)_(+_)_isomer'
p406
NsS'sirolimus'
p407
NsS'clamoxyl'
p408
NsS'nicotinic_acid'
p409
NsS'cortifair'
p410
NsS'capreomycin'
p411
NsS'4_(1_hydroxy_2_((1_methylethyl)amino)ethyl)_1_2_benzenediol'
p412
NsS'doxycycline_monohydrochloride__6_epimer'
p413
NsS'synalar_hp'
p414
NsS'pms_fenofibrate_micro'
p415
NsS'platino'
p416
NsS'rapamune'
p417
NsS'3_phenoxybenzyl_cis_trans_(1rs)_3_(2_2_dichlorovinyl)_2_2_dimethylcyclopropanecarboxylate'
p418
NsS'fluodermo'
p419
NsS'tretinoin'
p420
NsS'lyovac_cosmegen'
p421
NsS'propofol_abbott'
p422
NsS'penamox'
p423
NsS'vibramycin'
p424
NsS'olanzapine'
p425
NsS'panadol'
p426
NsS'bl\xe3\xa9omycine_bellon'
p427
NsS'17_beta_hydroxy_4_androsten_3_one'
p428
NsS'cisplatin'
p429
NsS'v\xe3\xa9p\xe3\xa9side_sandoz'
p430
NsS'dexpropranolol'
p431
NsS'onkoposid'
p432
NsS'obracin'
p433
NsS'dichlorodiammineplatinum'
p434
NsS'trimox'
p435
NsS'flurodex'
p436
NsS'nu_baclo'
p437
NsS'oncovine'
p438
NsS'andropatch'
p439
NsS'veramix'
p440
NsS'medroxyprogesterone_17_acetate__(6_alpha_17_alpha)_isomer'
p441
NsS'nico_400'
p442
NsS'doxorubicin_hexal'
p443
NsS'monohydrate__ciprofloxacin_monohydrochloride'
p444
NsS'cliniclean'
p445
NsS'rexigen'
p446
NsS'prednisolone'
p447
((F1.0
S'methylprednisolone_acetate'
p448
tp449
S"(st) matching: ratio , lcs, (key,drug) (keynorm,drugnorm 1.0 prednisolone ('prednisolone', 'methylprednisolone_acetate') ('prednisolone', 'methylprednisolone_acetate')"
p450
tp451
sS'fluorouracil'
p452
NsS'ribocarbo'
p453
NsS'morphia'
p454
NsS'etoposide'
p455
NsS'azadose'
p456
NsS'anzatax'
p457
NsS'actinomycin_d'
p458
NsS'novapirina'
p459
NsS'orthophen'
p460
NsS'curretab'
p461
NsS'probucol'
p462
NsS'vepesid'
p463
NsS'trans_permethrin'
p464
NsS'nittifor'
p465
NsS'carbastat'
p466
NsS'soltriol'
p467
NsS'valproate_calcium'
p468
NsS'lior\xe3\xa9sal'
p469
NsS'depoprovera'
p470
NsS'estradiol__ethynyl'
p471
NsS'hydrocortisone'
p472
NsS'stilbene_estrogen'
p473
NsS'diclofenac'
p474
NsS'(m_phenoxybenzyl)_cis_trans_3_(2_2_dichlorovinyl)_2_2_dimethylcyclopropanecarboxylate'
p475
NsS'amoxicillin'
p476
NsS'5_fluorouracil_biosyn'
p477
NsS'propofol'
p478
NsS'virazide'
p479
NsS'heumann__fenofibrat'
p480
NsS'n_(4_hydroxyphenyl)acetanilide'
p481
NsS'fenofibrat_ratiopharm'
p482
NsS'estradiol'
p483
NsS'gestapuran'
p484
NsS'permethrin__(cis)_isomer'
p485
NsS'deferoxamine'
p486
NsS'cyclophosphamide__(s)_isomer'
p487
NsS'doxycycline_phosphate_(1:1)'
p488
NsS'vinzam'
p489
NsS'adrimedac'
p490
NsS'penicillin__methylphenylisoxazolyl'
p491
NsS'clofen'
p492
NsS'mifepristone'
p493
NsS'valproic_acid'
p494
NsS'(s)_1_(3_mercapto_2_methyl_1_oxopropyl)_l_proline'
p495
NsS'heparin'
p496
NsS'3_pyridinecarboxylic_acid'
p497
NsS'1_alpha_25_dihydroxycholecalciferol'
p498
NsS'everolimus'
p499
NsS'sodium_oxacillin'
p500
NsS'fenofibrate'
p501
NsS'convulsofin'
p502
NsS'fenofibrat_azu'
p503
NsS'doxycycline_hemiethanolate'
p504
NsS'etoposide__(5a_alpha_9_alpha)_isomer'
p505
NsS'lithium_nicotinate'
p506
NsS'baclof\xe3\xa8ne_irex'
p507
NsS'chloride__morphine'
p508
NsS'deferasirox'
p509
NsS'cyclophosphamide'
p510
NsS'paclitaxel__(4_alpha)_isomer'
p511
NsS'carboptic'
p512
NsS'l_amphetamine'
p513
NsS'nrdc_143'
p514
NsS'depo_medroxyprogesterone_acetate'
p515
NsS'estradiol_anhydrous'
p516
NsS'azithromycin_monohydrate'
p517
NsS'ciprofloxacin_monohydrochloride_monohydrate'
p518
NsS'propofol_mct'
p519
NsS'disulfiram'
p520
NsS'agostilben'
p521
NsS'semisodium_valproate'
p522
NsS'vitamin_d3'
p523
NsS'novodrin'
p524
NsS'bleomicina'
p525
NsS'capreomycin_sulfate'
p526
NsS'alcophobin'
p527
NsS'neoral'
p528
NsS'flurosyn'
p529
NsS'aquasept'
p530
NsS'noroxin'
p531
NsS'depakine'
p532
NsS'spesicor'
p533
NsS'mycophenolate_mofetil'
p534
NsS'efudix'
p535
NsS'docetaxel'
p536
NsS'fenofibrat_von_ct'
p537
NsS'cortril'
p538
NsS'methylphenidate_hydrochloride'
p539
NsS'testoderm'
p540
NsS'doxorubicin'
p541
NsS'fluoro_uracile_icn'
p542
NsS'permethrin__trans_(1rs)_isomer'
p543
NsS'sulfate__morphine'
p544
NsS'tsentedrin'
p545
NsS'dakota__fluorouracile'
p546
NsS'estradiol_17_beta'
p547
NsS'haloperidol'
p548
NsS'ribavirin'
p549
NsS'11_epicortisol'
p550
NsS'divalproex'
p551
NsS'ster_zac_bath_concentrate'
p552
NsS'carbamoylcholine'
p553
NsS'estinyl'
p554
NsS'ribamidyl'
p555
NsS'niacin_tartrate'
p556
NsS'fluorouracil_monopotassium_salt'
p557
NsS'zinc_salt__tretinoin'
p558
NsS'sulfate__vincristine'
p559
NsS'vitamin_c'
p560
NsS'vitamin_a'
p561
NsS'acetonide__fluortriamcinolone'
p562
NsS'glypidizine'
p563
NsS'fenofanton'
p564
NsS'baclofen'
p565
NsS'estradiol_hemihydrate'
p566
NsS'ritaline'
p567
NsS'acid__retinoic'
p568
NsS'progesterone__(9_beta_10_alpha)_isomer'
p569
NsS'valproate'
p570
NsS'onkofluor'
p571
NsS'all_trans_retinol'
p572
NsS'oxacillin'
p573
NsS'etoposide_pierre_fabre'
p574
NsS'amphetamine'
p575
NsS'trans_retinoic_acid'
p576
NsS'estraderm_tts'
p577
NsS'isoproterenol'
p578
NsS'medroxyprogesterone_acetate'
p579
NsS'bexarotene'
p580
NsS'jenapharm__ethinylestradiol'
p581
NsS'cholecalciferols'
p582
NsS'levodopa'
p583
NsS'lastet'
p584
NsS'equasym'
p585
Ns.