(dp0
S'distilb\xe3\xa8ne'
p1
NsS'telmisartan'
p2
NsS'tamoxifen'
p3
NsS'3_7_dimethyl_9_(2_6_6_trimethyl_1_cyclohexen_1_yl)_2_4_6_8_nonatetraen_1_ol__(all_e)_isomer'
p4
NsS'stromectol'
p5
NsS'beta_(aminomethyl)_4_chlorobenzenepropanoic_acid'
p6
NsS'niacin'
p7
NsS'folvite'
p8
NsS'bleomycins'
p9
NsS'vesanoid'
p10
NsS'adrucil'
p11
NsS'gelidina'
p12
NsS'ethinyl_estradiol'
p13
NsS'pregn_4_ene_3_20_dione__17_(acetyloxy)_6_methyl___(6alpha)_'
p14
NsS'periostat'
p15
NsS'deferrioxamine_b'
p16
NsS'tamoxifen_citrate'
p17
NsS'normalip'
p18
NsS'fluoxetine'
p19
NsS'cholecalciferol'
p20
NsS'galzin'
p21
NsS'd3__1_25_dihydroxyvitamin'
p22
NsS'stada__fenofibrat'
p23
NsS'gen_fenofibrate'
p24
NsS'vupral'
p25
NsS'pcp_gaba'
p26
NsS'ribodoxo'
p27
NsS'ranolazine'
p28
NsS'diclophenac'
p29
NsS'desoxynorephedrin'
p30
NsS'cyclosporine'
p31
NsS'progesterone'
p32
NsS'magnesium_ascorbate'
p33
NsS'propanolol'
p34
NsS'ciprofloxacin_hydrochloride_anhydrous'
p35
NsS'methotrexate__(d)_isomer'
p36
NsS'acetamidophenol'
p37
NsS'vilona'
p38
NsS'niacin_cobalt_(2+)_salt'
p39
NsS'novaldex'
p40
NsS'amoxicilline'
p41
NsS'toprol'
p42
NsS'sevoflurane'
p43
NsS'teturam'
p44
NsS'csa_neoral'
p45
NsS'bleomycin_b2'
p46
NsS'cytoxan'
p47
NsS'debat__f\xe3\xa9nofibrate'
p48
NsS'f\xe3\xa9nofibrate_debat'
p49
NsS'ribamide'
p50
NsS'fluorouracil_gry'
p51
NsS'decostriol'
p52
NsS'metadate'
p53
NsS'gen_baclofen'
p54
NsS'colchicine__(r)_isomer'
p55
NsS'estradiol__(16_alpha_17_alpha)_isomer'
p56
NsS'fluocinolone_acetonide'
p57
NsS'5_fu_lederle'
p58
NsS'tampovagan'
p59
NsS'dicesium_salt_methotrexate'
p60
NsS'lipidil'
p61
NsS'triclosan'
p62
NsS'hydramycin'
p63
NsS'novo_fenofibrate'
p64
NsS'bis(diethylthiocarbamoyl)_disulfide'
p65
NsS'anacin_3'
p66
NsS'sulfate__amphetamine'
p67
NsS'ethinyl_estradiol__(8_alpha_9_beta_13_alpha_14_beta)_isomer'
p68
NsS'lyovac_cosmegen'
p69
NsS'baclospas'
p70
NsS'nicotine_tartrate'
p71
NsS'ivermectin'
p72
NsS'irgasan_dp300'
p73
NsS'methotrexate__sodium_salt'
p74
NsS'ritalin_sr'
p75
NsS'desferrioxamine_b'
p76
NsS'cis_diamminedichloroplatinum'
p77
NsS'vitamin_b9'
p78
NsS'thiamine'
p79
NsS'antabus'
p80
NsS'5_fu_medac'
p81
NsS'niacin_potassium_salt'
p82
NsS'niacin_tartrate'
p83
NsS'permethrin__(1s_cis)_isomer'
p84
NsS'arsenic_trioxide'
p85
NsS'testopel'
p86
NsS'5_fluorouracil_biosyn'
p87
NsS'clamoxyl_g.a.'
p88
NsS'phenamine'
p89
NsS'5_fluorouracil'
p90
NsS'azu__fenofibrat'
p91
NsS'permethrin__(1r_cis)_isomer'
p92
NsS'toprol_xl'
p93
NsS'calcitriol_kyramed'
p94
NsS'methylphenylisoxazolyl_penicillin'
p95
NsS'isoflurane'
p96
NsS'testosterone'
p97
NsS'niacin_ammonium_salt'
p98
NsS'lopressor'
p99
NsS'tricor'
p100
NsS'estradiol__(17_alpha)_isomer'
p101
NsS'permethrin'
p102
NsS'folic_acid__potassium_salt'
p103
NsS'phisohex'
p104
NsS'metoprolol'
p105
NsS'decitabine'
p106
NsS'mifegyne'
p107
NsS'retin_a'
p108
NsS'mannitol'
p109
NsS'farmiblastina'
p110
NsS'quetiapine'
p111
NsS'colchicine'
p112
NsS'cosmegen_lyovac'
p113
NsS'doxorubicin_nc'
p114
NsS'fulvestrant'
p115
NsS'permethrin__(trans)_isomer'
p116
NsS'sodium_salt__tretinoin'
p117
NsS'carbosin'
p118
NsS'folic_acid__monopotassium_salt'
p119
NsS'zinc_acetate'
p120
NsS'disulfide__tetraethylthiuram'
p121
NsS'sulfate__bleomycin'
p122
NsS'tretinoin_sodium_salt'
p123
NsS'ferrous_ascorbate'
p124
NsS'adriablastine'
p125
NsS'magnesium_valproate'
p126
NsS'morphine'
p127
NsS'awd__baclofen'
p128
NsS'sandimmun_neoral'
p129
NsS'zitazonium'
p130
NsS'morphine_sulfate'
p131
NsS'levo_amphetamine'
p132
NsS'sorafenib'
p133
NsS'decaject'
p134
NsS'letrozole'
p135
NsS'niacin_zinc_salt'
p136
NsS'acid__all_trans_retinoic'
p137
NsS'salt__tretinoin_sodium'
p138
NsS'2_propylpentanoic_acid'
p139
NsS'dipyridamole'
p140
NsS'ozidia'
p141
NsS'procytox'
p142
NsS'desferioximine'
p143
NsS'(l)_mannitol'
p144
NsS'flucinar'
p145
NsS'ascorbate__sodium'
p146
NsS'leponex'
p147
NsS'thiamine_mononitrate'
p148
NsS'folate'
p149
NsS'cis_permethrin'
p150
NsS'1_25_dihydroxy_20_epi_vitamin_d3'
p151
NsS'farmistin'
p152
NsS'doxycycline_monohydrate'
p153
NsS'amfetamine'
p154
NsS'levoamphetamine'
p155
NsS'praxel'
p156
NsS'betaloc'
p157
NsS'2_6_bis(1_methylethyl)phenol'
p158
NsS'pyrazinamide'
p159
NsS'atrofen'
p160
NsS'ezetimibe'
p161
NsS'aneurin'
p162
NsS'cyclosporine_a'
p163
NsS'celecoxib'
p164
NsS'estradiol__(8_alpha_17_beta)_isomer'
p165
NsS'desferroxamine'
p166
NsS'nicocap'
p167
NsS'glupitel'
p168
NsS'norfloxacin'
p169
NsS'paclitaxel'
p170
NsS'hexadrol'
p171
NsS'dipropyl_acetate'
p172
NsS'procetofen__antara_micronized'
p173
NsS'folic_acid__(dl)_isomer'
p174
NsS'anapriline'
p175
NsS'carbachol'
p176
NsS'nicotine'
p177
NsS'niacin_magnesium_salt'
p178
NsS'bortezomib'
p179
NsS'methotrexate__dicesium_salt'
p180
NsS'ethinyl_estradiol__(8_alpha)_isomer'
p181
NsS'irgasan_dp_300'
p182
NsS'ethinylestradiol_jenapharm'
p183
NsS'progynova'
p184
NsS'methotrexate'
p185
NsS'estradiol__sodium_salt'
p186
NsS'ribavirin'
p187
NsS'miostat'
p188
NsS'sandimmun'
p189
NsS'estradiol__(+_)_isomer'
p190
NsS'2_naphthacenecarboxamide__4_(dimethylamino)_1_4_4a_5_5a_6_11_12a_octahydro_3_5_10_12_12a_pentahydroxy_6_methyl_1_11_dioxo___(4s_(4alpha_4aalpha_5alpha_5aalpha_6alpha_12aalpha))_'
p191
NsS'nico400'
p192
NsS'beloc_duriles'
p193
NsS'eposin'
p194
NsS'medroxyprogesterone_17_acetate'
p195
NsS'retinoic_acid'
p196
NsS'candesartan'
p197
NsS'lofibra'
p198
NsS'bleomycin_a2'
p199
NsS'alpha_6_deoxyoxytetracycline'
p200
NsS'dexamethasone'
p201
NsS'derma_smooth_fs'
p202
NsS'paraplatin'
p203
NsS'lorelco'
p204
NsS'renatriol'
p205
NsS'p_hydroxyacetanilide'
p206
NsS'1_alpha__25_dihydroxy_20_epi_vitamin_d3'
p207
NsS'fenofibrat_hexal'
p208
NsS'aquafol'
p209
NsS'oxandrolone'
p210
NsS'neocarbo'
p211
NsS'zinc_acetate_dihydrate'
p212
NsS'antistenocardin'
p213
NsS'mesylate__deferoxamine'
p214
NsS'6_alpha_methyl_17alpha_hydroxyprogesterone_acetate'
p215
NsS'sunitinib'
p216
NsS'eqvalan'
p217
NsS'temozolomide'
p218
NsS'propranolol'
p219
NsS'ciba34_647ba'
p220
NsS'ciprofloxacin'
p221
NsS'heparinic_acid'
p222
NsS'methanesulfonate__deferoxamine'
p223
NsS'cyclopropanecarboxylic_acid__3_(2_2_dichloroethenyl)_2_2_dimethyl___(3_phenoxyphenyl)methyl_ester'
p224
NsS'jellisoft'
p225
NsS'csaneoral'
p226
NsS'zinc_sulfate'
p227
NsS'folic_acid'
p228
NsS'amoxicillin_anhydrous'
p229
NsS'bleomycin'
p230
NsS'melizide'
p231
NsS'morphine_sulfate_(2:1)__anhydrous'
p232
NsS'vitamin_b_1'
p233
NsS'acid__trans_retinoic'
p234
NsS'lipidil_ter'
p235
NsS'bellon__bl\xe3\xa9omycine'
p236
NsS'penamox'
p237
NsS'fluortriamcinolone_acetonide'
p238
NsS'methylfluorprednisolone'
p239
NsS'novo_dipiradol'
p240
NsS'baclof\xe3\xa8neirex'
p241
NsS'deferoxamine_mesilate'
p242
NsS'apo_baclofen'
p243
NsS'nrdc143'
p244
NsS'disoprivan'
p245
NsS'eto_gry'
p246
NsS'mtw_fenofibrat'
p247
NsS'sodium_salt__niacin'
p248
NsS'mif\xe3\xa9gyne'
p249
NsS'oestradiol'
p250
NsS'tylenol'
p251
NsS'cis_diamminedichloroplatinum(ii)'
p252
NsS'niacin_lithium_salt__hemihydrate'
p253
NsS'(3_beta_5z_7e)_9_10_secocholesta_5_7_10(19)_trien_3_ol'
p254
NsS'niacin_hydrochloride'
p255
NsS'cytophosphane'
p256
NsS'sulfate__zinc'
p257
NsS'platidiam'
p258
NsS'amoxicillin_trihydrate'
p259
NsS'haemato_fu'
p260
NsS'clozapine'
p261
NsS'nu_fenofibrate'
p262
NsS'7_epi_taxol'
p263
NsS'teva__etoposide'
p264
NsS'estradiol_valerate'
p265
NsS'acetaminophen'
p266
NsS'13_cis_retinoic_acid'
p267
NsS'metoprolol_tartrate'
p268
NsS'co_fluocin'
p269
NsS'methylphenidate'
p270
NsS'doxycycline_calcium'
p271
NsS'vibra_tabs'
p272
NsS'oxacillin__monosodium_salt__anhydrous'
p273
NsS'cis_dichlorodiammineplatinum(ii)'
p274
NsS'doxorubicine_baxter'
p275
NsS'methotrexate_hydrate'
p276
NsS'etoposide__(5s)_isomer'
p277
NsS'estradiol_17_beta'
p278
NsS'cl\xe3\xa9ridium'
p279
NsS'hydrochloride__propranolol'
p280
NsS'glipizide'
p281
NsS'zincteral'
p282
NsS'vincasar'
p283
NsS'metipred'
p284
NsS'demethyl_epipodophyllotoxin_ethylidine_glucoside'
p285
NsS'bleo_cell'
p286
NsS'tobramycin'
p287
NsS'algotropyl'
p288
NsS'ascorbic_acid'
p289
NsS'duramorph'
p290
NsS'kurantil'
p291
NsS'ascorbate__ferrous'
p292
NsS'all_trans_retinoic_acid'
p293
NsS'alpha_heparin'
p294
NsS'1_25_dihydroxycholecalciferol'
p295
NsS'sapoderm'
p296
NsS'diclofenac_potassium'
p297
NsS'menadione'
p298
NsS'heparin__sodium'
p299
NsS'hydrochloride_anhydrous__ciprofloxacin'
p300
NsS'tetraethylthioperoxydicarbonic_diamide__((h2n)c(s))2s2'
p301
NsS'ethinyl_oestradiol_effik'
p302
NsS'gemcitabine'
p303
NsS'feloran'
p304
NsS'5_hu_hexal'
p305
NsS'3_hydroxy_l_tyrosine'
p306
NsS'fenofibrat_fph'
p307
NsS'anavar'
p308
NsS'metoprolol_cr_xl'
p309
NsS'bocatriol'
p310
NsS'lopirin'
p311
NsS'minidiab'
p312
NsS'sodium_heparin'
p313
NsS'diethylstilbestrol'
p314
NsS'hydrochloride__niacin'
p315
NsS'histerone'
p316
NsS'levopa'
p317
NsS'vincristine'
p318
NsS'brulamycin'
p319
NsS'genbaclofen'
p320
NsS'progynon_c'
p321
NsS'hydrocortisone__(11_alpha)_isomer'
p322
NsS'lipantil'
p323
NsS'acid__ascorbic'
p324
NsS'procetofen'
p325
NsS'adriblastine'
p326
NsS'l_dopa'
p327
NsS'methylprednisolone'
p328
NsS'adriamycin'
p329
NsS'fluorouracil'
p330
NsS'fluorouracile_dakota'
p331
NsS'taxol__bris'
p332
NsS'tersaseptic'
p333
NsS'fresofol'
p334
NsS'calcitriol_nefro'
p335
NsS'ethynyl_estradiol'
p336
NsS'progynon_depot'
p337
NsS'datril'
p338
NsS'etoposide__alpha_d_glucopyranosyl_isomer'
p339
NsS'doxo_cell'
p340
NsS'beta_all_trans_retinoic_acid'
p341
NsS'cyclophosphamide_monohydrate'
p342
NsS'synamol'
p343
NsS'carboplatin'
p344
NsS'vincristin_medac'
p345
NsS'pemetrexed'
p346
NsS'meractinomycin'
p347
NsS'isotretinoin_zinc_salt__13_cis_isomer'
p348
NsS'betaloc_astra'
p349
NsS'amoxicillin_monosodium_salt'
p350
NsS'amoxicillin'
p351
NsS'androgel'
p352
NsS'apo_feno_micro'
p353
NsS'tosylate__niacin'
p354
NsS'fluorouracil_potassium_salt'
p355
NsS'all_trans_retinol'
p356
NsS'microfollin_forte'
p357
NsS'sodium__methotrexate'
p358
NsS'biphenabid'
p359
NsS'osmofundin'
p360
NsS'8_isotestosterone'
p361
NsS'doxycycline'
p362
NsS'magnesium_di_l_ascorbate'
p363
NsS'aluminum_salt__niacin'
p364
NsS'persantine'
p365
NsS'rosiglitazone'
p366
NsS'microshield_t'
p367
NsS'myocet'
p368
NsS'17_beta_oestradiol'
p369
NsS'fluoruracil'
p370
NsS'oxacillin__sodium'
p371
NsS'deferoxamine_methanesulfonate'
p372
NsS'propofol_lipuro'
p373
NsS'l_ascorbic_acid'
p374
NsS'2_4_4__trichloro_2__hydroxydiphenyl_ether'
p375
NsS'levetiracetam'
p376
NsS'pioglitazone'
p377
NsS'dactinomycin'
p378
NsS'retinol'
p379
NsS'nicotinate__lithium'
p380
NsS'carbacholine'
p381
NsS'diethylstilbestrol__(z)_isomer'
p382
NsS'curantyl'
p383
NsS'amoxycillin'
p384
NsS'blenoxane'
p385
NsS'calcitriol'
p386
NsS'nebicin'
p387
NsS'etopos'
p388
NsS'ribovirin'
p389
NsS'silkis'
p390
NsS'vincrisul'
p391
NsS'magnorbin'
p392
NsS'voltaren'
p393
NsS'irinotecan'
p394
NsS'estradiol__(9_beta_17_beta)_isomer'
p395
NsS'pms_baclofen'
p396
NsS'panavir'
p397
NsS'isopto_carbachol'
p398
NsS'amphetamine_sulfate'
p399
NsS'acephen'
p400
NsS'obsidan'
p401
NsS'tobracin'
p402
NsS'cya_nof'
p403
NsS'biocisplatinum'
p404
NsS'onkocristin'
p405
NsS'avlocardyl'
p406
NsS'fluoxetine_hydrochloride'
p407
NsS'captopril'
p408
NsS'isotretinoin'
p409
NsS'diclofenac__sodium'
p410
NsS'delestrogen'
p411
NsS'polymyxin_b_sulfate'
p412
NsS'progesterone__(13_alpha_17_alpha)_(+_)_isomer'
p413
NsS'sirolimus'
p414
NsS'clamoxyl'
p415
NsS'nicotinic_acid'
p416
NsS'cortifair'
p417
NsS'capreomycin'
p418
NsS'doxycycline_monohydrochloride__6_epimer'
p419
NsS'synalar_hp'
p420
NsS'pms_fenofibrate_micro'
p421
NsS'platino'
p422
NsS'rapamune'
p423
NsS'fluodermo'
p424
NsS'tretinoin'
p425
NsS'doxorubicina_funk'
p426
NsS'propofol_abbott'
p427
NsS'glidiazinamide'
p428
NsS'oradexon'
p429
NsS'olanzapine'
p430
NsS'panadol'
p431
NsS'bl\xe3\xa9omycine_bellon'
p432
NsS'17_beta_hydroxy_4_androsten_3_one'
p433
NsS'cisplatin'
p434
NsS'v\xe3\xa9p\xe3\xa9side_sandoz'
p435
NsS'dexpropranolol'
p436
NsS'onkoposid'
p437
NsS'obracin'
p438
NsS'dichlorodiammineplatinum'
p439
NsS'trimox'
p440
NsS'flurodex'
p441
NsS'nu_baclo'
p442
NsS'andropatch'
p443
NsS'veramix'
p444
NsS'medroxyprogesterone_17_acetate__(6_alpha_17_alpha)_isomer'
p445
NsS'nico_400'
p446
NsS'doxorubicin_hexal'
p447
NsS'monohydrate__ciprofloxacin_monohydrochloride'
p448
NsS'cliniclean'
p449
NsS'rexigen'
p450
NsS'3_phenoxybenzyl_cis_trans_(1rs)_3_(2_2_dichlorovinyl)_2_2_dimethylcyclopropanecarboxylate'
p451
NsS'ribocarbo'
p452
NsS'morphia'
p453
NsS'etoposide'
p454
NsS'vibramycin'
p455
NsS'anzatax'
p456
NsS'actinomycin_d'
p457
NsS'novapirina'
p458
NsS'orthophen'
p459
NsS'curretab'
p460
NsS'probucol'
p461
NsS'vepesid'
p462
NsS'trans_permethrin'
p463
NsS'nittifor'
p464
NsS'carbastat'
p465
NsS'soltriol'
p466
NsS'gestapuran'
p467
NsS'lior\xe3\xa9sal'
p468
NsS'depoprovera'
p469
NsS'estradiol__ethynyl'
p470
NsS'hydrocortisone'
p471
NsS'stilbene_estrogen'
p472
NsS'diclofenac'
p473
NsS'imatinib'
p474
NsS'estinyl'
p475
NsS'concerta'
p476
NsS'propofol'
p477
NsS'virazide'
p478
NsS'heumann__fenofibrat'
p479
NsS'n_(4_hydroxyphenyl)acetanilide'
p480
NsS'fenofibrat_ratiopharm'
p481
NsS'cellcristin'
p482
NsS'estradiol'
p483
NsS'6_methylprednisolone'
p484
NsS'permethrin__(cis)_isomer'
p485
NsS'deferoxamine'
p486
NsS'cyclophosphamide__(s)_isomer'
p487
NsS'doxycycline_phosphate_(1:1)'
p488
NsS'adrimedac'
p489
NsS'penicillin__methylphenylisoxazolyl'
p490
NsS'clofen'
p491
NsS'mifepristone'
p492
NsS'valproic_acid'
p493
NsS'(s)_1_(3_mercapto_2_methyl_1_oxopropyl)_l_proline'
p494
NsS'apo_dipyridamole'
p495
NsS'heparin'
p496
NsS'3_pyridinecarboxylic_acid'
p497
NsS'1_alpha_25_dihydroxycholecalciferol'
p498
NsS'everolimus'
p499
NsS'sodium_oxacillin'
p500
NsS'fenofibrate'
p501
NsS'convulsofin'
p502
NsS'fenofibrat_azu'
p503
NsS'doxycycline_hemiethanolate'
p504
NsS'etoposide__(5a_alpha_9_alpha)_isomer'
p505
NsS'lithium_nicotinate'
p506
NsS'baclof\xe3\xa8ne_irex'
p507
NsS'chloride__morphine'
p508
NsS'deferasirox'
p509
NsS'cyclophosphamide'
p510
NsS'paclitaxel__(4_alpha)_isomer'
p511
NsS'carboptic'
p512
NsS'l_amphetamine'
p513
NsS'nrdc_143'
p514
NsS'depo_medroxyprogesterone_acetate'
p515
NsS'(m_phenoxybenzyl)_cis_trans_3_(2_2_dichlorovinyl)_2_2_dimethylcyclopropanecarboxylate'
p516
NsS'estradiol_anhydrous'
p517
NsS'ciprofloxacin_monohydrochloride_monohydrate'
p518
NsS'propofol_mct'
p519
NsS'disulfiram'
p520
NsS'agostilben'
p521
NsS'semisodium_valproate'
p522
NsS'vitamin_d3'
p523
NsS'prozac'
p524
NsS'bleomicina'
p525
NsS'capreomycin_sulfate'
p526
NsS'decaject_l.a.'
p527
NsS'decaspray'
p528
NsS'alcophobin'
p529
NsS'neoral'
p530
NsS'flurosyn'
p531
NsS'aquasept'
p532
NsS'noroxin'
p533
NsS'depakine'
p534
NsS'spesicor'
p535
NsS'mycophenolate_mofetil'
p536
NsS'efudix'
p537
NsS'docetaxel'
p538
NsS'fenofibrat_von_ct'
p539
NsS'cortril'
p540
NsS'methylphenidate_hydrochloride'
p541
NsS'testoderm'
p542
NsS'doxorubicin'
p543
NsS'fluoro_uracile_icn'
p544
NsS'permethrin__trans_(1rs)_isomer'
p545
NsS'sulfate__morphine'
p546
NsS'tsentedrin'
p547
NsS'dakota__fluorouracile'
p548
NsS'urokit_doxo_cell'
p549
NsS'haloperidol'
p550
NsS'11_epicortisol'
p551
NsS'divalproex'
p552
NsS'ster_zac_bath_concentrate'
p553
NsS'carbamoylcholine'
p554
NsS'oncovine'
p555
NsS'ribamidyl'
p556
NsS'fluorouracil_monopotassium_salt'
p557
NsS'zinc_salt__tretinoin'
p558
NsS'sulfate__vincristine'
p559
NsS'vitamin_c'
p560
NsS'vitamin_a'
p561
NsS'acetonide__fluortriamcinolone'
p562
NsS'glypidizine'
p563
NsS'fenofanton'
p564
NsS'baclofen'
p565
NsS'estradiol_hemihydrate'
p566
NsS'ritaline'
p567
NsS'acid__retinoic'
p568
NsS'b9__vitamin'
p569
NsS'sustanon'
p570
NsS'progesterone__(9_beta_10_alpha)_isomer'
p571
NsS'valproate'
p572
NsS'valproate_calcium'
p573
NsS'onkofluor'
p574
NsS'dexpak'
p575
NsS'oxacillin'
p576
NsS'etoposide_pierre_fabre'
p577
NsS'amphetamine'
p578
NsS'trans_retinoic_acid'
p579
NsS'estraderm_tts'
p580
NsS'medroxyprogesterone_acetate'
p581
NsS'bexarotene'
p582
NsS'jenapharm__ethinylestradiol'
p583
NsS'cholecalciferols'
p584
NsS'levodopa'
p585
NsS'lastet'
p586
NsS'equasym'
p587
Ns.