(dp0
S'telmisartan'
p1
NsS'tamoxifen'
p2
NsS'3_7_dimethyl_9_(2_6_6_trimethyl_1_cyclohexen_1_yl)_2_4_6_8_nonatetraen_1_ol__(all_e)_isomer'
p3
NsS'stromectol'
p4
NsS'beta_(aminomethyl)_4_chlorobenzenepropanoic_acid'
p5
NsS'azu__fenofibrat'
p6
NsS'niacin'
p7
NsS'folvite'
p8
NsS'bleomycins'
p9
NsS'vesanoid'
p10
NsS'adrucil'
p11
NsS'gelidina'
p12
NsS'ethinyl_estradiol'
p13
NsS'pregn_4_ene_3_20_dione__17_(acetyloxy)_6_methyl___(6alpha)_'
p14
NsS'periostat'
p15
NsS'deferrioxamine_b'
p16
NsS'tamoxifen_citrate'
p17
NsS'normalip'
p18
NsS'fluoxetine'
p19
NsS'cholecalciferol'
p20
NsS'galzin'
p21
NsS'd3__1_25_dihydroxyvitamin'
p22
NsS'stada__fenofibrat'
p23
NsS'gen_fenofibrate'
p24
NsS'vupral'
p25
NsS'pcp_gaba'
p26
NsS'niacin_ammonium_salt'
p27
NsS'diclophenac'
p28
NsS'desoxynorephedrin'
p29
NsS'cyclosporine'
p30
NsS'progesterone'
p31
NsS'miostat'
p32
NsS'propanolol'
p33
NsS'ciprofloxacin_hydrochloride_anhydrous'
p34
NsS'methotrexate__(d)_isomer'
p35
NsS'acetamidophenol'
p36
NsS'vilona'
p37
NsS'niacin_cobalt_(2+)_salt'
p38
NsS'novaldex'
p39
NsS'amoxicilline'
p40
NsS'toprol'
p41
NsS'sevoflurane'
p42
NsS'csa_neoral'
p43
NsS'bleomycin_b2'
p44
NsS'cytoxan'
p45
NsS'debat__f\xe3\xa9nofibrate'
p46
NsS'f\xe3\xa9nofibrate_debat'
p47
NsS'ribamide'
p48
NsS'fluorouracil_gry'
p49
NsS'decostriol'
p50
NsS'metadate'
p51
NsS'gen_baclofen'
p52
NsS'colchicine__(r)_isomer'
p53
NsS'fluocinolone_acetonide'
p54
NsS'5_fu_lederle'
p55
NsS'tampovagan'
p56
NsS'dicesium_salt_methotrexate'
p57
NsS'lipidil'
p58
NsS'triclosan'
p59
NsS'hydramycin'
p60
NsS'noroxin'
p61
NsS'anacin_3'
p62
NsS'sulfate__amphetamine'
p63
NsS'ethinyl_estradiol__(8_alpha_9_beta_13_alpha_14_beta)_isomer'
p64
NsS'lyovac_cosmegen'
p65
NsS'baclospas'
p66
NsS'nicotine_tartrate'
p67
NsS'ivermectin'
p68
NsS'irgasan_dp300'
p69
NsS'methotrexate__sodium_salt'
p70
NsS'ritalin_sr'
p71
NsS'desferrioxamine_b'
p72
NsS'vitamin_b9'
p73
NsS'thiamine'
p74
NsS'5_fu_medac'
p75
NsS'niacin_potassium_salt'
p76
NsS'niacin_tartrate'
p77
NsS'permethrin__(1s_cis)_isomer'
p78
NsS'arsenic_trioxide'
p79
NsS'testopel'
p80
NsS'sapoderm'
p81
NsS'clamoxyl_g.a.'
p82
NsS'phenamine'
p83
NsS'5_fluorouracil'
p84
NsS'glypidizine'
p85
NsS'permethrin__(1r_cis)_isomer'
p86
NsS'calcitriol_kyramed'
p87
NsS'methylphenylisoxazolyl_penicillin'
p88
NsS'isoflurane'
p89
NsS'everolimus'
p90
NsS'ranolazine'
p91
NsS'lopressor'
p92
NsS'retinol'
p93
NsS'tricor'
p94
NsS'permethrin'
p95
NsS'folic_acid__potassium_salt'
p96
NsS'phisohex'
p97
NsS'metoprolol'
p98
NsS'mifegyne'
p99
NsS'retin_a'
p100
NsS'mannitol'
p101
NsS'quetiapine'
p102
NsS'cosmegen_lyovac'
p103
NsS'fenofibrat_hexal'
p104
NsS'fulvestrant'
p105
NsS'permethrin__(trans)_isomer'
p106
NsS'sodium_salt__tretinoin'
p107
NsS'carbosin'
p108
NsS'folic_acid__monopotassium_salt'
p109
NsS'aquafol'
p110
NsS'zinc_acetate'
p111
NsS'sulfate__bleomycin'
p112
NsS'tretinoin_sodium_salt'
p113
NsS'ferrous_ascorbate'
p114
NsS'neocarbo'
p115
NsS'magnesium_valproate'
p116
NsS'morphine'
p117
NsS'awd__baclofen'
p118
NsS'sandimmun_neoral'
p119
NsS'zitazonium'
p120
NsS'morphine_sulfate'
p121
NsS'levo_amphetamine'
p122
NsS'sorafenib'
p123
NsS'decaject'
p124
NsS'letrozole'
p125
NsS'niacin_zinc_salt'
p126
NsS'acid__all_trans_retinoic'
p127
NsS'salt__tretinoin_sodium'
p128
NsS'2_propylpentanoic_acid'
p129
NsS'lithium_nicotinate'
p130
NsS'dipyridamole'
p131
NsS'ozidia'
p132
NsS'procytox'
p133
NsS'desferioximine'
p134
NsS'(l)_mannitol'
p135
NsS'flucinar'
p136
NsS'ascorbate__sodium'
p137
NsS'leponex'
p138
NsS'thiamine_mononitrate'
p139
NsS'folate'
p140
NsS'cis_permethrin'
p141
NsS'1_25_dihydroxy_20_epi_vitamin_d3'
p142
NsS'farmistin'
p143
NsS'doxycycline_monohydrate'
p144
NsS'amfetamine'
p145
NsS'levoamphetamine'
p146
NsS'betaloc'
p147
NsS'2_6_bis(1_methylethyl)phenol'
p148
NsS'pyrazinamide'
p149
NsS'atrofen'
p150
NsS'ezetimibe'
p151
NsS'aneurin'
p152
NsS'cyclosporine_a'
p153
NsS'celecoxib'
p154
NsS'desferroxamine'
p155
NsS'nicocap'
p156
NsS'glupitel'
p157
NsS'norfloxacin'
p158
NsS'hexadrol'
p159
NsS'dipropyl_acetate'
p160
NsS'procetofen__antara_micronized'
p161
NsS'folic_acid__(dl)_isomer'
p162
NsS'anapriline'
p163
NsS'carbachol'
p164
NsS'nicotine'
p165
NsS'niacin_magnesium_salt'
p166
NsS'bortezomib'
p167
NsS'methotrexate__dicesium_salt'
p168
NsS'ethinyl_estradiol__(8_alpha)_isomer'
p169
NsS'irgasan_dp_300'
p170
NsS'ethinylestradiol_jenapharm'
p171
NsS'methotrexate'
p172
NsS'ribavirin'
p173
NsS'magnesium_ascorbate'
p174
NsS'sandimmun'
p175
NsS'2_naphthacenecarboxamide__4_(dimethylamino)_1_4_4a_5_5a_6_11_12a_octahydro_3_5_10_12_12a_pentahydroxy_6_methyl_1_11_dioxo___(4s_(4alpha_4aalpha_5alpha_5aalpha_6alpha_12aalpha))_'
p176
NsS'nico400'
p177
NsS'beloc_duriles'
p178
NsS'eposin'
p179
NsS'agostilben'
p180
NsS'medroxyprogesterone_17_acetate'
p181
NsS'retinoic_acid'
p182
NsS'candesartan'
p183
NsS'prozac'
p184
NsS'lofibra'
p185
NsS'bleomycin_a2'
p186
NsS'alpha_6_deoxyoxytetracycline'
p187
NsS'dexamethasone'
p188
NsS'derma_smooth_fs'
p189
NsS'paraplatin'
p190
NsS'lorelco'
p191
NsS'renatriol'
p192
NsS'monohydrate__azithromycin'
p193
NsS'p_hydroxyacetanilide'
p194
NsS'1_alpha__25_dihydroxy_20_epi_vitamin_d3'
p195
NsS'isopropylnoradrenaline'
p196
NsS'predate'
p197
NsS'isuprel'
p198
NsS'isadrin'
p199
NsS'oxandrolone'
p200
NsS'isoproterenol_hydrochloride'
p201
NsS'zinc_acetate_dihydrate'
p202
NsS'antistenocardin'
p203
NsS'mesylate__deferoxamine'
p204
NsS'6_alpha_methyl_17alpha_hydroxyprogesterone_acetate'
p205
NsS'sunitinib'
p206
NsS'eqvalan'
p207
NsS'hydrochloride__isoproterenol'
p208
NsS'temozolomide'
p209
NsS'propranolol'
p210
NsS'ciba34_647ba'
p211
NsS'ciprofloxacin'
p212
NsS'heparinic_acid'
p213
NsS'methanesulfonate__deferoxamine'
p214
NsS'isopropyl_noradrenaline'
p215
NsS'cyclopropanecarboxylic_acid__3_(2_2_dichloroethenyl)_2_2_dimethyl___(3_phenoxyphenyl)methyl_ester'
p216
NsS'jellisoft'
p217
NsS'csaneoral'
p218
NsS'zinc_sulfate'
p219
NsS'folic_acid'
p220
NsS'amoxicillin_anhydrous'
p221
NsS'bleomycin'
p222
NsS'melizide'
p223
NsS'morphine_sulfate_(2:1)__anhydrous'
p224
NsS'vitamin_b_1'
p225
NsS'acid__trans_retinoic'
p226
NsS'lipidil_ter'
p227
NsS'bellon__bl\xe3\xa9omycine'
p228
NsS'glidiazinamide'
p229
NsS'zinc_salt__tretinoin'
p230
NsS'fluortriamcinolone_acetonide'
p231
NsS'methylfluorprednisolone'
p232
NsS'novo_dipiradol'
p233
NsS'baclof\xe3\xa8neirex'
p234
NsS'deferoxamine_mesilate'
p235
NsS'apo_baclofen'
p236
NsS'azithromycin'
p237
NsS'nrdc143'
p238
NsS'disoprivan'
p239
NsS'eto_gry'
p240
NsS'mtw_fenofibrat'
p241
NsS'sodium_salt__niacin'
p242
NsS'mif\xe3\xa9gyne'
p243
NsS'tylenol'
p244
NsS'niacin_lithium_salt__hemihydrate'
p245
NsS'(3_beta_5z_7e)_9_10_secocholesta_5_7_10(19)_trien_3_ol'
p246
NsS'niacin_hydrochloride'
p247
NsS'cytophosphane'
p248
NsS'sulfate__zinc'
p249
NsS'amoxicillin_trihydrate'
p250
NsS'haemato_fu'
p251
NsS'clozapine'
p252
NsS'nu_fenofibrate'
p253
NsS'teva__etoposide'
p254
NsS'13_cis_retinoic_acid'
p255
NsS'metoprolol_tartrate'
p256
NsS'co_fluocin'
p257
NsS'methylphenidate'
p258
NsS'doxycycline_calcium'
p259
NsS'vibra_tabs'
p260
NsS'oxacillin__monosodium_salt__anhydrous'
p261
NsS'etoposide__(5a_alpha_9_alpha)_isomer'
p262
NsS'methotrexate_hydrate'
p263
NsS'etoposide__(5s)_isomer'
p264
NsS'dihydrate__azithromycin'
p265
NsS'cl\xe3\xa9ridium'
p266
NsS'hydrochloride__propranolol'
p267
NsS'glipizide'
p268
NsS'zincteral'
p269
NsS'vincasar'
p270
NsS'metipred'
p271
NsS'demethyl_epipodophyllotoxin_ethylidine_glucoside'
p272
NsS'bleo_cell'
p273
NsS'tobramycin'
p274
NsS'algotropyl'
p275
NsS'ascorbic_acid'
p276
NsS'duramorph'
p277
NsS'kurantil'
p278
NsS'ascorbate__ferrous'
p279
NsS'all_trans_retinoic_acid'
p280
NsS'alpha_heparin'
p281
NsS'1_25_dihydroxycholecalciferol'
p282
NsS'zithromax'
p283
NsS'diclofenac_potassium'
p284
NsS'heparin__sodium'
p285
NsS'hydrochloride_anhydrous__ciprofloxacin'
p286
NsS'ethinyl_oestradiol_effik'
p287
NsS'gemcitabine'
p288
NsS'feloran'
p289
NsS'5_hu_hexal'
p290
NsS'3_hydroxy_l_tyrosine'
p291
NsS'fenofibrat_fph'
p292
NsS'anavar'
p293
NsS'bleomicina'
p294
NsS'metoprolol_cr_xl'
p295
NsS'bocatriol'
p296
NsS'lopirin'
p297
NsS'minidiab'
p298
NsS'sodium_heparin'
p299
NsS'diethylstilbestrol'
p300
NsS'hydrochloride__niacin'
p301
NsS'histerone'
p302
NsS'levopa'
p303
NsS'vincristine'
p304
NsS'brulamycin'
p305
NsS'genbaclofen'
p306
NsS'progynon_c'
p307
NsS'lipantil'
p308
NsS'acid__ascorbic'
p309
NsS'procetofen'
p310
NsS'l_dopa'
p311
NsS'methylprednisolone'
p312
NsS'fluorouracile_dakota'
p313
NsS'tersaseptic'
p314
NsS'fresofol'
p315
NsS'di_adreson_f'
p316
NsS'calcitriol_nefro'
p317
NsS'ethynyl_estradiol'
p318
NsS'datril'
p319
NsS'etoposide__alpha_d_glucopyranosyl_isomer'
p320
NsS'beta_all_trans_retinoic_acid'
p321
NsS'cyclophosphamide_monohydrate'
p322
NsS'azythromycin'
p323
NsS'synamol'
p324
NsS'carboplatin'
p325
NsS'vincristin_medac'
p326
NsS'toraseptol'
p327
NsS'sulfate__morphine'
p328
NsS'pemetrexed'
p329
NsS'meractinomycin'
p330
NsS'isotretinoin_zinc_salt__13_cis_isomer'
p331
NsS'betaloc_astra'
p332
NsS'amoxicillin_monosodium_salt'
p333
NsS'panavir'
p334
NsS'androgel'
p335
((F0.875
S'androgen'
p336
tp337
S"(st) matching: ratio , lcs, (key,drug) (keynorm,drugnorm 0.875 androge ('androgel', 'androgen') ('androgel', 'androgen')"
p338
tp339
sS'apo_feno_micro'
p340
NsS'tosylate__niacin'
p341
NsS'fluorouracil_potassium_salt'
p342
NsS'microfollin_forte'
p343
NsS'sodium__methotrexate'
p344
NsS'biphenabid'
p345
NsS'osmofundin'
p346
NsS'8_isotestosterone'
p347
NsS'doxycycline'
p348
NsS'magnesium_di_l_ascorbate'
p349
NsS'aluminum_salt__niacin'
p350
NsS'persantine'
p351
NsS'rosiglitazone'
p352
NsS'microshield_t'
p353
NsS'fluoruracil'
p354
NsS'oxacillin__sodium'
p355
NsS'deferoxamine_methanesulfonate'
p356
NsS'propofol_lipuro'
p357
NsS'l_ascorbic_acid'
p358
NsS'2_4_4__trichloro_2__hydroxydiphenyl_ether'
p359
NsS'levetiracetam'
p360
NsS'pioglitazone'
p361
NsS'dactinomycin'
p362
NsS'novo_fenofibrate'
p363
NsS'nicotinate__lithium'
p364
NsS'carbacholine'
p365
NsS'curantyl'
p366
NsS'blenoxane'
p367
NsS'calcitriol'
p368
NsS'nebicin'
p369
NsS'etopos'
p370
NsS'ster_zac_bath_concentrate'
p371
NsS'silkis'
p372
NsS'vincrisul'
p373
NsS'magnorbin'
p374
NsS'voltaren'
p375
NsS'irinotecan'
p376
NsS'pms_baclofen'
p377
NsS'amoxicillin'
p378
NsS'isopto_carbachol'
p379
NsS'acephen'
p380
NsS'obsidan'
p381
NsS'tobracin'
p382
NsS'cya_nof'
p383
NsS'onkocristin'
p384
NsS'avlocardyl'
p385
NsS'fluoxetine_hydrochloride'
p386
NsS'captopril'
p387
NsS'isotretinoin'
p388
NsS'diclofenac__sodium'
p389
NsS'polymyxin_b_sulfate'
p390
NsS'progesterone__(13_alpha_17_alpha)_(+_)_isomer'
p391
NsS'sirolimus'
p392
NsS'clamoxyl'
p393
NsS'nicotinic_acid'
p394
NsS'capreomycin'
p395
NsS'4_(1_hydroxy_2_((1_methylethyl)amino)ethyl)_1_2_benzenediol'
p396
NsS'morphia'
p397
NsS'synalar_hp'
p398
NsS'pms_fenofibrate_micro'
p399
NsS'rapamune'
p400
NsS'3_phenoxybenzyl_cis_trans_(1rs)_3_(2_2_dichlorovinyl)_2_2_dimethylcyclopropanecarboxylate'
p401
NsS'fluodermo'
p402
NsS'tretinoin'
p403
NsS'propofol_abbott'
p404
NsS'penamox'
p405
NsS'oradexon'
p406
NsS'vibramycin'
p407
NsS'olanzapine'
p408
NsS'panadol'
p409
NsS'bl\xe3\xa9omycine_bellon'
p410
NsS'17_beta_hydroxy_4_androsten_3_one'
p411
NsS'dexpropranolol'
p412
NsS'onkoposid'
p413
NsS'obracin'
p414
NsS'trimox'
p415
NsS'flurodex'
p416
NsS'nu_baclo'
p417
NsS'andropatch'
p418
NsS'veramix'
p419
NsS'medroxyprogesterone_17_acetate__(6_alpha_17_alpha)_isomer'
p420
NsS'nico_400'
p421
NsS'amoxycillin'
p422
NsS'monohydrate__ciprofloxacin_monohydrochloride'
p423
NsS'cliniclean'
p424
NsS'rexigen'
p425
NsS'prednisolone'
p426
NsS'fluorouracil'
p427
NsS'ribocarbo'
p428
NsS'doxycycline_monohydrochloride__6_epimer'
p429
NsS'etoposide'
p430
NsS'azadose'
p431
NsS'v\xe3\xa9p\xe3\xa9side_sandoz'
p432
NsS'actinomycin_d'
p433
NsS'novapirina'
p434
NsS'orthophen'
p435
NsS'fenofanton'
p436
NsS'probucol'
p437
NsS'vepesid'
p438
NsS'trans_permethrin'
p439
NsS'nittifor'
p440
NsS'carbastat'
p441
NsS'soltriol'
p442
NsS'gestapuran'
p443
NsS'lior\xe3\xa9sal'
p444
NsS'depoprovera'
p445
NsS'estradiol__ethynyl'
p446
NsS'stilbene_estrogen'
p447
NsS'diclofenac'
p448
NsS'imatinib'
p449
NsS'estinyl'
p450
NsS'concerta'
p451
NsS'5_fluorouracil_biosyn'
p452
NsS'propofol'
p453
NsS'virazide'
p454
NsS'heumann__fenofibrat'
p455
NsS'n_(4_hydroxyphenyl)acetanilide'
p456
NsS'fenofibrat_ratiopharm'
p457
NsS'cellcristin'
p458
NsS'estradiol'
p459
((F1.0
S'polyestradiol_phosphate'
p460
tp461
S"(st) matching: ratio , lcs, (key,drug) (keynorm,drugnorm 1.0 estradiol ('estradiol', 'polyestradiol_phosphate') ('estradiol', 'polyestradiol_phosphate')"
p462
tp463
sS'6_methylprednisolone'
p464
NsS'permethrin__(cis)_isomer'
p465
NsS'deferoxamine'
p466
NsS'cyclophosphamide__(s)_isomer'
p467
NsS'doxycycline_phosphate_(1:1)'
p468
NsS'vinzam'
p469
NsS'penicillin__methylphenylisoxazolyl'
p470
NsS'clofen'
p471
NsS'mifepristone'
p472
NsS'valproic_acid'
p473
NsS'(s)_1_(3_mercapto_2_methyl_1_oxopropyl)_l_proline'
p474
NsS'apo_dipyridamole'
p475
NsS'heparin'
p476
NsS'3_pyridinecarboxylic_acid'
p477
NsS'1_alpha_25_dihydroxycholecalciferol'
p478
NsS'testosterone'
p479
NsS'sodium_oxacillin'
p480
NsS'fenofibrate'
p481
NsS'convulsofin'
p482
NsS'fenofibrat_azu'
p483
NsS'doxycycline_hemiethanolate'
p484
NsS'diethylstilbestrol__(z)_isomer'
p485
NsS'baclof\xe3\xa8ne_irex'
p486
NsS'chloride__morphine'
p487
NsS'deferasirox'
p488
NsS'cyclophosphamide'
p489
NsS'carboptic'
p490
NsS'l_amphetamine'
p491
NsS'nrdc_143'
p492
NsS'depo_medroxyprogesterone_acetate'
p493
NsS'(m_phenoxybenzyl)_cis_trans_3_(2_2_dichlorovinyl)_2_2_dimethylcyclopropanecarboxylate'
p494
NsS'azithromycin_monohydrate'
p495
NsS'ciprofloxacin_monohydrochloride_monohydrate'
p496
NsS'propofol_mct'
p497
NsS'toprol_xl'
p498
NsS'distilb\xe3\xa8ne'
p499
NsS'semisodium_valproate'
p500
NsS'novodrin'
p501
NsS'colchicine'
p502
NsS'capreomycin_sulfate'
p503
NsS'decaject_l.a.'
p504
NsS'decaspray'
p505
NsS'neoral'
p506
NsS'flurosyn'
p507
NsS'aquasept'
p508
NsS'vitamin_d3'
p509
NsS'depakine'
p510
NsS'spesicor'
p511
NsS'mycophenolate_mofetil'
p512
NsS'efudix'
p513
NsS'fenofibrat_von_ct'
p514
NsS'methylphenidate_hydrochloride'
p515
NsS'testoderm'
p516
NsS'fluoro_uracile_icn'
p517
NsS'permethrin__trans_(1rs)_isomer'
p518
NsS'noradrenaline__isopropyl'
p519
NsS'tsentedrin'
p520
NsS'dakota__fluorouracile'
p521
NsS'haloperidol'
p522
NsS'divalproex'
p523
NsS'ribovirin'
p524
NsS'carbamoylcholine'
p525
NsS'oncovine'
p526
NsS'ribamidyl'
p527
NsS'fluorouracil_monopotassium_salt'
p528
NsS'amphetamine_sulfate'
p529
NsS'sulfate__vincristine'
p530
NsS'vitamin_c'
p531
NsS'vitamin_a'
p532
NsS'acetonide__fluortriamcinolone'
p533
NsS'acetaminophen'
p534
NsS'curretab'
p535
NsS'baclofen'
p536
NsS'dexpak'
p537
NsS'ritaline'
p538
NsS'acid__retinoic'
p539
NsS'b9__vitamin'
p540
NsS'sustanon'
p541
NsS'progesterone__(9_beta_10_alpha)_isomer'
p542
NsS'valproate'
p543
NsS'valproate_calcium'
p544
NsS'onkofluor'
p545
NsS'all_trans_retinol'
p546
NsS'oxacillin'
p547
NsS'etoposide_pierre_fabre'
p548
NsS'amphetamine'
p549
NsS'trans_retinoic_acid'
p550
NsS'isoproterenol'
p551
NsS'medroxyprogesterone_acetate'
p552
NsS'bexarotene'
p553
NsS'jenapharm__ethinylestradiol'
p554
NsS'cholecalciferols'
p555
NsS'levodopa'
p556
NsS'lastet'
p557
NsS'equasym'
p558
Ns.