(dp0
S'telmisartan'
p1
NsS'tamoxifen'
p2
NsS'3_7_dimethyl_9_(2_6_6_trimethyl_1_cyclohexen_1_yl)_2_4_6_8_nonatetraen_1_ol__(all_e)_isomer'
p3
NsS'stromectol'
p4
NsS'beta_(aminomethyl)_4_chlorobenzenepropanoic_acid'
p5
NsS'azu__fenofibrat'
p6
NsS'niacin'
p7
NsS'folvite'
p8
NsS'bleomycins'
p9
NsS'vesanoid'
p10
NsS'gelidina'
p11
NsS'ethinyl_estradiol'
p12
NsS'pregn_4_ene_3_20_dione__17_(acetyloxy)_6_methyl___(6alpha)_'
p13
NsS'phisohex'
p14
NsS'deferrioxamine_b'
p15
NsS'tamoxifen_citrate'
p16
NsS'normalip'
p17
NsS'fluoxetine'
p18
NsS'cholecalciferol'
p19
NsS'galzin'
p20
NsS'd3__1_25_dihydroxyvitamin'
p21
NsS'estradiol'
p22
NsS'stada__fenofibrat'
p23
NsS'gen_fenofibrate'
p24
NsS'2_propylpentanoic_acid'
p25
NsS'algotropyl'
p26
NsS'ribodoxo'
p27
NsS'niacin_ammonium_salt'
p28
NsS'diclophenac'
p29
NsS'desoxynorephedrin'
p30
NsS'cyclosporine'
p31
NsS'progesterone'
p32
NsS'miostat'
p33
NsS'ciprofloxacin_hydrochloride_anhydrous'
p34
NsS'acetamidophenol'
p35
NsS'vilona'
p36
NsS'niacin_cobalt_(2+)_salt'
p37
NsS'novaldex'
p38
NsS'amoxicilline'
p39
NsS'sevoflurane'
p40
NsS'teturam'
p41
NsS'csa_neoral'
p42
NsS'bleomycin_b2'
p43
NsS'cytoxan'
p44
NsS'debat__f\xe3\xa9nofibrate'
p45
NsS'voltaren'
p46
NsS'ribamide'
p47
NsS'decostriol'
p48
NsS'metadate'
p49
NsS'gen_baclofen'
p50
NsS'colchicine__(r)_isomer'
p51
NsS'adrimedac'
p52
NsS'fluocinolone_acetonide'
p53
NsS'tampovagan'
p54
NsS'lipidil'
p55
NsS'triclosan'
p56
NsS'hydramycin'
p57
NsS'novo_fenofibrate'
p58
NsS'bis(diethylthiocarbamoyl)_disulfide'
p59
NsS'anacin_3'
p60
NsS'sulfate__amphetamine'
p61
NsS'ethinyl_estradiol__(8_alpha_9_beta_13_alpha_14_beta)_isomer'
p62
NsS'doxorubicina_funk'
p63
NsS'baclospas'
p64
NsS'nicotine_tartrate'
p65
NsS'ivermectin'
p66
NsS'irgasan_dp300'
p67
NsS'ritalin_sr'
p68
NsS'desferrioxamine_b'
p69
NsS'cis_diamminedichloroplatinum'
p70
NsS'vitamin_b9'
p71
NsS'thiamine'
p72
NsS'antabus'
p73
NsS'niacin_potassium_salt'
p74
NsS'niacin_tartrate'
p75
NsS'permethrin__(1s_cis)_isomer'
p76
NsS'arsenic_trioxide'
p77
NsS'testopel'
p78
NsS'zithromax'
p79
NsS'phenamine'
p80
NsS'glypidizine'
p81
NsS'permethrin__(1r_cis)_isomer'
p82
NsS'calcitriol_kyramed'
p83
NsS'methylphenylisoxazolyl_penicillin'
p84
NsS'isoflurane'
p85
NsS'testosterone'
p86
NsS'ranolazine'
p87
NsS'lopressor'
p88
NsS'sodium_oxacillin'
p89
NsS'estradiol__(17_alpha)_isomer'
p90
NsS'permethrin'
p91
NsS'folic_acid__potassium_salt'
p92
NsS'periostat'
p93
NsS'metoprolol'
p94
NsS'decitabine'
p95
NsS'mifegyne'
p96
NsS'retin_a'
p97
NsS'mannitol'
p98
NsS'farmiblastina'
p99
NsS'quetiapine'
p100
NsS'cosmegen_lyovac'
p101
NsS'doxorubicin_nc'
p102
NsS'isopropylnoradrenaline'
p103
NsS'fulvestrant'
p104
NsS'permethrin__(trans)_isomer'
p105
NsS'tretinoin_sodium_salt'
p106
NsS'carbosin'
p107
NsS'folic_acid__monopotassium_salt'
p108
NsS'estradiol__(8_alpha_17_beta)_isomer'
p109
NsS'sulfate__bleomycin'
p110
NsS'sodium_salt__tretinoin'
p111
NsS'ferrous_ascorbate'
p112
NsS'adriablastine'
p113
NsS'isoproterenol_hydrochloride'
p114
NsS'magnesium_valproate'
p115
NsS'morphine'
p116
NsS'awd__baclofen'
p117
NsS'sandimmun_neoral'
p118
NsS'zitazonium'
p119
NsS'morphine_sulfate'
p120
NsS'levo_amphetamine'
p121
NsS'sorafenib'
p122
NsS'lyovac_cosmegen'
p123
NsS'decaject'
p124
NsS'letrozole'
p125
NsS'niacin_zinc_salt'
p126
NsS'acid__all_trans_retinoic'
p127
NsS'salt__tretinoin_sodium'
p128
NsS'vupral'
p129
NsS'dipyridamole'
p130
NsS'ozidia'
p131
NsS'procytox'
p132
NsS'desferioximine'
p133
NsS'(l)_mannitol'
p134
NsS'flucinar'
p135
NsS'ascorbate__sodium'
p136
NsS'leponex'
p137
NsS'thiamine_mononitrate'
p138
NsS'folate'
p139
NsS'cis_permethrin'
p140
NsS'1_25_dihydroxy_20_epi_vitamin_d3'
p141
NsS'farmistin'
p142
NsS'doxycycline_monohydrate'
p143
NsS'amfetamine'
p144
NsS'levoamphetamine'
p145
NsS'cyclophosphamide'
p146
NsS'betaloc'
p147
NsS'2_6_bis(1_methylethyl)phenol'
p148
NsS'pyrazinamide'
p149
NsS'atrofen'
p150
NsS'ezetimibe'
p151
NsS'aneurin'
p152
NsS'cyclosporine_a'
p153
NsS'celecoxib'
p154
NsS'zinc_acetate'
p155
NsS'nrdc_143'
p156
NsS'nicocap'
p157
NsS'glupitel'
p158
NsS'norfloxacin'
p159
NsS'paclitaxel'
p160
NsS'hexadrol'
p161
NsS'dipropyl_acetate'
p162
NsS'procetofen__antara_micronized'
p163
NsS'folic_acid__(dl)_isomer'
p164
NsS'carbachol'
p165
NsS'nicotine'
p166
NsS'niacin_magnesium_salt'
p167
NsS'bortezomib'
p168
NsS'ethinyl_estradiol__(8_alpha)_isomer'
p169
NsS'irgasan_dp_300'
p170
NsS'ethinylestradiol_jenapharm'
p171
NsS'progynova'
p172
NsS'estradiol__sodium_salt'
p173
NsS'ribavirin'
p174
NsS'magnesium_ascorbate'
p175
NsS'sandimmun'
p176
NsS'estradiol__(+_)_isomer'
p177
NsS'2_naphthacenecarboxamide__4_(dimethylamino)_1_4_4a_5_5a_6_11_12a_octahydro_3_5_10_12_12a_pentahydroxy_6_methyl_1_11_dioxo___(4s_(4alpha_4aalpha_5alpha_5aalpha_6alpha_12aalpha))_'
p178
NsS'nico400'
p179
NsS'beloc_duriles'
p180
NsS'eposin'
p181
NsS'agostilben'
p182
NsS'medroxyprogesterone_17_acetate'
p183
NsS'retinoic_acid'
p184
NsS'candesartan'
p185
NsS'novodrin'
p186
NsS'lofibra'
p187
NsS'bleomycin_a2'
p188
NsS'alpha_6_deoxyoxytetracycline'
p189
NsS'dexamethasone'
p190
NsS'derma_smooth_fs'
p191
NsS'capreomycin_sulfate'
p192
NsS'lorelco'
p193
NsS'renatriol'
p194
NsS'monohydrate__azithromycin'
p195
NsS'p_hydroxyacetanilide'
p196
NsS'1_alpha__25_dihydroxy_20_epi_vitamin_d3'
p197
NsS'fenofibrat_hexal'
p198
NsS'predate'
p199
NsS'aquafol'
p200
NsS'isadrin'
p201
NsS'oxandrolone'
p202
NsS'neocarbo'
p203
NsS'zinc_acetate_dihydrate'
p204
NsS'antistenocardin'
p205
NsS'mesylate__deferoxamine'
p206
NsS'6_alpha_methyl_17alpha_hydroxyprogesterone_acetate'
p207
NsS'eqvalan'
p208
NsS'estradiol_anhydrous'
p209
NsS'hydrochloride__isoproterenol'
p210
NsS'ciba34_647ba'
p211
NsS'ciprofloxacin'
p212
NsS'heparinic_acid'
p213
NsS'methanesulfonate__deferoxamine'
p214
NsS'isopropyl_noradrenaline'
p215
NsS'cyclopropanecarboxylic_acid__3_(2_2_dichloroethenyl)_2_2_dimethyl___(3_phenoxyphenyl)methyl_ester'
p216
NsS'jellisoft'
p217
NsS'csaneoral'
p218
NsS'zinc_sulfate'
p219
NsS'folic_acid'
p220
NsS'amoxicillin_anhydrous'
p221
NsS'methylprednisolone'
p222
NsS'melizide'
p223
NsS'platidiam'
p224
NsS'vitamin_b_1'
p225
NsS'acid__trans_retinoic'
p226
NsS'lipidil_ter'
p227
NsS'bellon__bl\xe3\xa9omycine'
p228
NsS'glidiazinamide'
p229
NsS'fluortriamcinolone_acetonide'
p230
NsS'methylfluorprednisolone'
p231
NsS'novo_dipiradol'
p232
NsS'baclof\xe3\xa8neirex'
p233
NsS'deferoxamine_mesilate'
p234
NsS'apo_baclofen'
p235
NsS'azithromycin'
p236
NsS'nrdc143'
p237
NsS'disoprivan'
p238
NsS'eto_gry'
p239
NsS'mtw_fenofibrat'
p240
NsS'sodium_salt__niacin'
p241
NsS'mif\xe3\xa9gyne'
p242
NsS'oestradiol'
p243
NsS'bleomycin'
p244
NsS'tylenol'
p245
NsS'cis_diamminedichloroplatinum(ii)'
p246
NsS'niacin_lithium_salt__hemihydrate'
p247
NsS'(3_beta_5z_7e)_9_10_secocholesta_5_7_10(19)_trien_3_ol'
p248
NsS'niacin_hydrochloride'
p249
NsS'cytophosphane'
p250
NsS'tretinoin'
p251
NsS'morphine_sulfate_(2:1)__anhydrous'
p252
NsS'amoxicillin_trihydrate'
p253
NsS'clozapine'
p254
NsS'nu_fenofibrate'
p255
NsS'7_epi_taxol'
p256
NsS'teva__etoposide'
p257
NsS'estradiol_valerate'
p258
NsS'13_cis_retinoic_acid'
p259
NsS'metoprolol_tartrate'
p260
NsS'co_fluocin'
p261
NsS'methylphenidate'
p262
NsS'doxycycline_calcium'
p263
NsS'vibra_tabs'
p264
NsS'oxacillin__monosodium_salt__anhydrous'
p265
NsS'cis_dichlorodiammineplatinum(ii)'
p266
NsS'doxorubicine_baxter'
p267
NsS'etoposide__(5s)_isomer'
p268
NsS'urokit_doxo_cell'
p269
NsS'cl\xe3\xa9ridium'
p270
NsS'glipizide'
p271
NsS'zincteral'
p272
NsS'vincasar'
p273
NsS'metipred'
p274
NsS'demethyl_epipodophyllotoxin_ethylidine_glucoside'
p275
NsS'bleo_cell'
p276
NsS'tobramycin'
p277
NsS'pcp_gaba'
p278
NsS'ascorbic_acid'
p279
NsS'duramorph'
p280
NsS'kurantil'
p281
NsS'ascorbate__ferrous'
p282
NsS'all_trans_retinoic_acid'
p283
NsS'alpha_heparin'
p284
NsS'1_25_dihydroxycholecalciferol'
p285
NsS'sapoderm'
p286
NsS'diclofenac_potassium'
p287
NsS'menadione'
p288
NsS'heparin__sodium'
p289
NsS'hydrochloride_anhydrous__ciprofloxacin'
p290
NsS'onkoposid'
p291
NsS'ethinyl_oestradiol_effik'
p292
NsS'feloran'
p293
NsS'3_hydroxy_l_tyrosine'
p294
NsS'fenofibrat_fph'
p295
NsS'anavar'
p296
NsS'bleomicina'
p297
NsS'metoprolol_cr_xl'
p298
NsS'bocatriol'
p299
NsS'lopirin'
p300
NsS'minidiab'
p301
NsS'sodium_heparin'
p302
NsS'diethylstilbestrol'
p303
NsS'hydrochloride__niacin'
p304
NsS'histerone'
p305
NsS'levopa'
p306
NsS'vincristine'
p307
NsS'brulamycin'
p308
NsS'genbaclofen'
p309
NsS'progynon_c'
p310
NsS'hydrocortisone__(11_alpha)_isomer'
p311
NsS'lipantil'
p312
NsS'acid__ascorbic'
p313
NsS'procetofen'
p314
NsS'adriblastine'
p315
NsS'l_dopa'
p316
NsS'isuprel'
p317
NsS'adriamycin'
p318
NsS'taxol__bris'
p319
NsS'tersaseptic'
p320
NsS'fresofol'
p321
NsS'di_adreson_f'
p322
NsS'oxacillin'
p323
NsS'calcitriol_nefro'
p324
NsS'ethynyl_estradiol'
p325
NsS'progynon_depot'
p326
NsS'datril'
p327
NsS'etoposide__alpha_d_glucopyranosyl_isomer'
p328
NsS'doxo_cell'
p329
NsS'beta_all_trans_retinoic_acid'
p330
NsS'cyclophosphamide_monohydrate'
p331
NsS'azythromycin'
p332
NsS'synamol'
p333
NsS'carboplatin'
p334
NsS'vincristin_medac'
p335
NsS'toraseptol'
p336
NsS'sulfate__morphine'
p337
NsS'pemetrexed'
p338
NsS'meractinomycin'
p339
NsS'isotretinoin_zinc_salt__13_cis_isomer'
p340
NsS'betaloc_astra'
p341
NsS'amoxicillin_monosodium_salt'
p342
NsS'panavir'
p343
NsS'androgel'
p344
NsS'apo_feno_micro'
p345
NsS'tosylate__niacin'
p346
NsS'microfollin_forte'
p347
NsS'biphenabid'
p348
NsS'osmofundin'
p349
NsS'8_isotestosterone'
p350
NsS'doxycycline'
p351
NsS'magnesium_di_l_ascorbate'
p352
NsS'aluminum_salt__niacin'
p353
NsS'persantine'
p354
NsS'rosiglitazone'
p355
NsS'microshield_t'
p356
NsS'myocet'
p357
NsS'17_beta_oestradiol'
p358
NsS'oxacillin__sodium'
p359
NsS'deferoxamine_methanesulfonate'
p360
NsS'propofol_lipuro'
p361
NsS'l_ascorbic_acid'
p362
NsS'2_4_4__trichloro_2__hydroxydiphenyl_ether'
p363
NsS'levetiracetam'
p364
NsS'pioglitazone'
p365
NsS'dactinomycin'
p366
NsS'retinol'
p367
NsS'nicotinate__lithium'
p368
NsS'carbacholine'
p369
NsS'diethylstilbestrol__(z)_isomer'
p370
NsS'curantyl'
p371
NsS'doxorubicin_hexal'
p372
NsS'blenoxane'
p373
NsS'calcitriol'
p374
NsS'nebicin'
p375
NsS'etopos'
p376
NsS'ster_zac_bath_concentrate'
p377
NsS'silkis'
p378
NsS'vincrisul'
p379
NsS'magnorbin'
p380
NsS'f\xe3\xa9nofibrate_debat'
p381
NsS'estradiol__(9_beta_17_beta)_isomer'
p382
NsS'pms_baclofen'
p383
NsS'amoxicillin'
p384
NsS'isopto_carbachol'
p385
NsS'acephen'
p386
NsS'clamoxyl_g.a.'
p387
NsS'tobracin'
p388
NsS'cya_nof'
p389
NsS'onkocristin'
p390
NsS'fluoxetine_hydrochloride'
p391
NsS'captopril'
p392
NsS'isotretinoin'
p393
NsS'diclofenac__sodium'
p394
NsS'delestrogen'
p395
NsS'polymyxin_b_sulfate'
p396
NsS'progesterone__(13_alpha_17_alpha)_(+_)_isomer'
p397
NsS'sirolimus'
p398
NsS'clamoxyl'
p399
NsS'nicotinic_acid'
p400
NsS'cortifair'
p401
NsS'capreomycin'
p402
NsS'4_(1_hydroxy_2_((1_methylethyl)amino)ethyl)_1_2_benzenediol'
p403
NsS'morphia'
p404
NsS'synalar_hp'
p405
NsS'pms_fenofibrate_micro'
p406
NsS'platino'
p407
NsS'rapamune'
p408
NsS'fluodermo'
p409
NsS'disulfide__tetraethylthiuram'
p410
NsS'propofol_abbott'
p411
NsS'penamox'
p412
NsS'oradexon'
p413
NsS'azadose'
p414
NsS'olanzapine'
p415
NsS'panadol'
p416
NsS'bl\xe3\xa9omycine_bellon'
p417
NsS'17_beta_hydroxy_4_androsten_3_one'
p418
NsS'cisplatin'
p419
NsS'anzatax'
p420
NsS'tetraethylthioperoxydicarbonic_diamide__((h2n)c(s))2s2'
p421
NsS'obracin'
p422
NsS'dichlorodiammineplatinum'
p423
NsS'trimox'
p424
NsS'acetonide__fluortriamcinolone'
p425
NsS'nu_baclo'
p426
NsS'andropatch'
p427
NsS'veramix'
p428
NsS'medroxyprogesterone_17_acetate__(6_alpha_17_alpha)_isomer'
p429
NsS'nico_400'
p430
NsS'amoxycillin'
p431
NsS'monohydrate__ciprofloxacin_monohydrochloride'
p432
NsS'cliniclean'
p433
NsS'biocisplatinum'
p434
NsS'prednisolone'
p435
NsS'3_phenoxybenzyl_cis_trans_(1rs)_3_(2_2_dichlorovinyl)_2_2_dimethylcyclopropanecarboxylate'
p436
NsS'ribocarbo'
p437
NsS'doxycycline_monohydrochloride__6_epimer'
p438
NsS'etoposide'
p439
NsS'vibramycin'
p440
NsS'v\xe3\xa9p\xe3\xa9side_sandoz'
p441
NsS'actinomycin_d'
p442
NsS'novapirina'
p443
NsS'orthophen'
p444
NsS'fenofanton'
p445
NsS'probucol'
p446
NsS'vepesid'
p447
NsS'trans_permethrin'
p448
NsS'nittifor'
p449
NsS'carbastat'
p450
NsS'soltriol'
p451
NsS'gestapuran'
p452
NsS'lior\xe3\xa9sal'
p453
NsS'depoprovera'
p454
NsS'estradiol__ethynyl'
p455
NsS'hydrocortisone'
p456
NsS'stilbene_estrogen'
p457
NsS'diclofenac'
p458
NsS'imatinib'
p459
NsS'estinyl'
p460
NsS'concerta'
p461
NsS'zinc_salt__tretinoin'
p462
NsS'propofol'
p463
NsS'virazide'
p464
NsS'heumann__fenofibrat'
p465
NsS'n_(4_hydroxyphenyl)acetanilide'
p466
NsS'fenofibrat_ratiopharm'
p467
NsS'cellcristin'
p468
NsS'toprol'
p469
NsS'6_methylprednisolone'
p470
NsS'permethrin__(cis)_isomer'
p471
NsS'deferoxamine'
p472
NsS'cyclophosphamide__(s)_isomer'
p473
NsS'doxycycline_phosphate_(1:1)'
p474
NsS'vinzam'
p475
NsS'estradiol__(16_alpha_17_alpha)_isomer'
p476
NsS'penicillin__methylphenylisoxazolyl'
p477
NsS'clofen'
p478
NsS'mifepristone'
p479
NsS'valproate'
p480
NsS'(s)_1_(3_mercapto_2_methyl_1_oxopropyl)_l_proline'
p481
NsS'apo_dipyridamole'
p482
NsS'heparin'
p483
NsS'3_pyridinecarboxylic_acid'
p484
NsS'1_alpha_25_dihydroxycholecalciferol'
p485
NsS'everolimus'
p486
NsS'tricor'
p487
NsS'fenofibrate'
p488
NsS'convulsofin'
p489
NsS'fenofibrat_azu'
p490
NsS'doxycycline_hemiethanolate'
p491
NsS'etoposide__(5a_alpha_9_alpha)_isomer'
p492
NsS'lithium_nicotinate'
p493
NsS'chloride__morphine'
p494
NsS'deferasirox'
p495
NsS'praxel'
p496
NsS'paclitaxel__(4_alpha)_isomer'
p497
NsS'carboptic'
p498
NsS'l_amphetamine'
p499
NsS'desferroxamine'
p500
NsS'estradiol_17_beta'
p501
NsS'depo_medroxyprogesterone_acetate'
p502
NsS'(m_phenoxybenzyl)_cis_trans_3_(2_2_dichlorovinyl)_2_2_dimethylcyclopropanecarboxylate'
p503
NsS'azithromycin_monohydrate'
p504
NsS'ciprofloxacin_monohydrochloride_monohydrate'
p505
NsS'propofol_mct'
p506
NsS'disulfiram'
p507
NsS'distilb\xe3\xa8ne'
p508
NsS'semisodium_valproate'
p509
NsS'vitamin_d3'
p510
NsS'prozac'
p511
NsS'colchicine'
p512
NsS'paraplatin'
p513
NsS'decaject_l.a.'
p514
NsS'decaspray'
p515
NsS'alcophobin'
p516
NsS'neoral'
p517
NsS'flurosyn'
p518
NsS'aquasept'
p519
NsS'noroxin'
p520
NsS'depakine'
p521
NsS'spesicor'
p522
NsS'mycophenolate_mofetil'
p523
NsS'docetaxel'
p524
NsS'fenofibrat_von_ct'
p525
NsS'cortril'
p526
NsS'methylphenidate_hydrochloride'
p527
NsS'testoderm'
p528
NsS'doxorubicin'
p529
NsS'sulfate__zinc'
p530
NsS'permethrin__trans_(1rs)_isomer'
p531
NsS'noradrenaline__isopropyl'
p532
NsS'tsentedrin'
p533
NsS'dihydrate__azithromycin'
p534
NsS'haloperidol'
p535
NsS'11_epicortisol'
p536
NsS'divalproex'
p537
NsS'ribovirin'
p538
NsS'carbamoylcholine'
p539
NsS'oncovine'
p540
NsS'ribamidyl'
p541
NsS'amphetamine_sulfate'
p542
NsS'sulfate__vincristine'
p543
NsS'vitamin_c'
p544
NsS'vitamin_a'
p545
NsS'baclof\xe3\xa8ne_irex'
p546
NsS'acetaminophen'
p547
NsS'curretab'
p548
NsS'baclofen'
p549
NsS'dexpak'
p550
NsS'estradiol_hemihydrate'
p551
NsS'ritaline'
p552
NsS'acid__retinoic'
p553
NsS'b9__vitamin'
p554
NsS'sustanon'
p555
NsS'progesterone__(9_beta_10_alpha)_isomer'
p556
NsS'valproic_acid'
p557
NsS'valproate_calcium'
p558
NsS'all_trans_retinol'
p559
NsS'toprol_xl'
p560
NsS'etoposide_pierre_fabre'
p561
NsS'amphetamine'
p562
NsS'trans_retinoic_acid'
p563
NsS'estraderm_tts'
p564
NsS'isoproterenol'
p565
NsS'medroxyprogesterone_acetate'
p566
NsS'bexarotene'
p567
NsS'jenapharm__ethinylestradiol'
p568
NsS'cholecalciferols'
p569
NsS'levodopa'
p570
NsS'lastet'
p571
NsS'equasym'
p572
Ns.