(dp0
S'prestwick_691'
p1
NsS'apo_desipramine'
p2
NsS'fentiazac'
p3
NsS'betaxolol'
p4
NsS'aquazide'
p5
NsS'telmisartan'
p6
NsS'neogluconin'
p7
NsS'chloroguanide'
p8
NsS'stromectol'
p9
NsS'vanco_azupharma'
p10
NsS'ku_0060648_trihydrochloride'
p11
NsS'prestwick_692'
p12
NsS'beta_(aminomethyl)_4_chlorobenzenepropanoic_acid'
p13
NsS'meptazinol'
p14
NsS'monorden'
p15
NsS'diethylstilbestrol'
p16
NsS'vasoclear'
p17
NsS'amylocaine'
p18
NsS'amphenicols'
p19
NsS'testotard'
p20
NsS'procainamide'
p21
NsS'desoxycorticosterone'
p22
NsS'nafcillin__sodium'
p23
NsS'vancomicina_norman'
p24
NsS'thioproperazine_dimesylate'
p25
NsS'aptine'
p26
NsS'idelalisib'
p27
NsS'anabasine'
p28
NsS'dihydrochloride__betazole'
p29
NsS'oraminic_2'
p30
NsS'tryptanol'
p31
NsS'vincamine'
p32
NsS'10_methoxyharmalan'
p33
NsS'nvp_tae684'
p34
NsS'lawsone'
p35
NsS'2_naphthacenecarboxamide__4_(dimethylamino)_1_4_4a_5_5a_6_11_12a_octahydro_3_5_10_12_12a_pentahydroxy_6_methyl_1_11_dioxo___(4s_(4alpha_4aalpha_5alpha_5aalpha_6alpha_12aalpha))_'
p36
NsS'tubulicid'
p37
NsS'triacsin_c'
p38
NsS'citalopram'
p39
NsS'quomen'
p40
NsS'capralense'
p41
NsS'methoxsalen'
p42
NsS'glimepiride'
p43
NsS'minidiab'
p44
NsS'carbetapentane_citrate'
p45
NsS'lincomycin'
p46
NsS'citiolone'
p47
NsS'mecillinam_pivaloyl_ester'
p48
NsS'stada__fenofibrat'
p49
NsS'gen_fenofibrate'
p50
NsS'2_propylpentanoic_acid'
p51
NsS'lofepramine'
p52
NsS'methylergobasin'
p53
NsS'eposin'
p54
NsS'ribodoxo'
p55
NsS'ratio_trazodone'
p56
NsS'nicoumalone'
p57
NsS'dexamethasone_acetate'
p58
NsS'immuran'
p59
NsS'furanthril'
p60
NsS'theonite'
p61
NsS'pifithrin__a_hydrobromide'
p62
NsS'diperodon'
p63
NsS'procarbazine'
p64
NsS'ambril'
p65
NsS'vincristine_sulfate'
p66
NsS'myocholine'
p67
NsS'pivmecillinam'
p68
NsS'midodrine'
p69
NsS'cytosar'
p70
NsS'fluoro_ophtal'
p71
NsS'extramycin'
p72
NsS'mercaptopurina_wellcome'
p73
NsS'zuclopenthixol'
p74
NsS'phenamil'
p75
NsS'hexetidine'
p76
NsS'leucovorin__(r)_isomer'
p77
NsS'pentobarbital'
p78
NsS'rolitetracycline'
p79
NsS'faes__etosuximida'
p80
NsS'penamox'
p81
NsS'novo_maprotiline'
p82
NsS'selumetinib'
p83
NsS'pregna_4_6_diene_3_20_dione__17_hydroxy_6_methyl_'
p84
NsS'ioxaglic_acid'
p85
NsS'eucatropine'
p86
NsS'diazoxide'
p87
NsS'teturam'
p88
NsS'pms_flutamide'
p89
NsS'novo_gliclazide'
p90
NsS'homochlorcyclizine'
p91
NsS'cephalexin_monohydrate'
p92
NsS'cinnarizin_al'
p93
NsS'chaetocin'
p94
NsS'ethmozine'
p95
NsS'debat__f\xe3\xa9nofibrate'
p96
NsS'talampicillin_hydrochloride'
p97
NsS'f\xe3\xa9nofibrate_debat'
p98
NsS'ribamide'
p99
NsS'lomustine'
p100
NsS'desloratadine'
p101
NsS'bisulfate__chlortetracycline'
p102
NsS'apomorphine_hydrochloride'
p103
NsS'cdk1/5_inhibitor'
p104
NsS'camptothecine'
p105
NsS'biperiden__1s_(1_alpha_2_alpha(r*)_4_alpha)_isomer'
p106
NsS'dehydrocholic_acid'
p107
NsS'pms_mefenamic_acid'
p108
NsS'acid_3_o_hemisuccinate__glycyrrhetinic'
p109
NsS'chlortetracycline_hydrochloride'
p110
NsS'byssochlamic_acid'
p111
NsS'triaminic_dm'
p112
NsS'acebutolol'
p113
NsS'apo_doxepin'
p114
NsS'gefitinib'
p115
NsS'hemiton'
p116
NsS'voltric'
p117
NsS'lipidil'
p118
NsS'micronor'
p119
NsS'stachydrine'
p120
NsS'laudanosine'
p121
NsS'molsidomine'
p122
NsS'aquaphyllin'
p123
NsS'tanespimycin'
p124
NsS'alosetron_hcl'
p125
NsS'naltrindole'
p126
NsS'nitrendipin_lindo'
p127
NsS'novo_fenofibrate'
p128
NsS'dihydroergotamine'
p129
NsS'h_89_dihydrochloride'
p130
NsS'amiloride'
p131
NsS'phenelzine'
p132
NsS'prima_1_met'
p133
NsS'molsidomin_stada'
p134
NsS'xylometazoline'
p135
NsS'josamycin'
p136
NsS'aptinduriles'
p137
NsS'lederderm'
p138
NsS'rogaine'
p139
NsS'gsk_3_inhibitor_ii'
p140
NsS'dequalinium_dichloride'
p141
NsS'sisomicin'
p142
NsS'cytarabine_hydrochloride'
p143
NsS'methetharimide'
p144
NsS'd_methorphan'
p145
NsS'clonidine'
p146
NsS'cupric_sulfate'
p147
NsS'streptozotocin'
p148
NsS'15_deoxy_?12_14_prostaglandin_j2'
p149
NsS'fursemide'
p150
NsS'quinidine'
p151
NsS'sulfinpyrazone'
p152
NsS'corvaton'
p153
NsS'trifluorothymidine'
p154
NsS'cyclogyl'
p155
NsS'alpha_ergocryptine'
p156
NsS'atractylic_acid'
p157
NsS'droncit'
p158
NsS'pms_desipramine'
p159
NsS'ed_csc_15'
p160
NsS'trazodone'
p161
isomer'
p162
NsS'trimeprazine_tartrate'
p163
NsS'cdk2/5_inhibitor'
p164
NsS'amantahciazu'
p165
NsS'sappanone_a_trimethyl_ether'
p166
NsS'cgp_71683_hydrochloride'
p167
NsS'fenelzin'
p168
NsS'reserpine'
p169
NsS'capsidol'
p170
NsS'maprotilin_von_ct'
p171
NsS'petylyl'
p172
NsS'chlorthalidone'
p173
NsS'ozagrel'
p174
NsS'nitrepuren'
p175
NsS'gw_583340_dihydrochloride'
p176
NsS'merphalan'
p177
NsS'ciprofibrate'
p178
NsS'chlorpromazine'
p179
NsS'glypidizine'
p180
NsS'suxilep'
p181
NsS'hexestrol__(s_(r*_r*))_isomer'
p182
NsS's(+)_terguride'
p183
NsS'biotin'
p184
NsS'epigallocatechin'
p185
NsS'arecoline'
p186
NsS'rifampicin'
p187
NsS'pms_bethanechol_chloride'
p188
NsS'pseudopelletierine'
p189
NsS'tegaserod'
p190
NsS'm_3m3fbs'
p191
NsS'serdemetan'
p192
NsS'polycillin'
p193
NsS'iniparib'
p194
NsS'medrysone'
p195
NsS'sodium_phenylbutyrate'
p196
NsS'mgcd_265'
p197
NsS'sectrazide'
p198
NsS'ticarcillin'
p199
NsS'rolitetracycline_hydrochloride'
p200
NsS'phthivazid'
p201
NsS'chlorzoxazone'
p202
NsS'quinidine_sulfate'
p203
NsS'sterapred'
p204
NsS'vertigo_neogama'
p205
NsS'avlocardyl'
p206
NsS'pancuronium_bromide'
p207
NsS'hydrochloride__pivampicillin'
p208
NsS'capsaicin'
p209
NsS'nomifensin'
p210
NsS'synflex'
p211
NsS'cyproterone'
p212
NsS'etilefrin_ratiopharm'
p213
NsS'prostaglandin_e1'
p214
NsS'eifelfango__testosteron_propionat'
p215
NsS'tivozanib'
p216
NsS'triprolidine_hydrochloride_anhydrous'
p217
NsS'fludarabine'
p218
NsS'quetiapine'
p219
NsS'primidon_holsten'
p220
NsS'2__deoxy_5_(trifluoromethyl)uridine'
p221
NsS'deptropine'
p222
NsS'prunetin'
p223
NsS'cinobufagin'
p224
NsS'phthalylsulfathiazole'
p225
NsS'clebopride'
p226
NsS'lexapro'
p227
NsS'allantoin'
p228
NsS'sustaire'
p229
NsS'wellcome__busulfan'
p230
NsS'sodium_salt__tretinoin'
p231
NsS'fenasal'
p232
NsS'urispas'
p233
NsS'normalip'
p234
NsS'perphenazine'
p235
NsS'pentetrazol'
p236
NsS'glycocholic_acid'
p237
NsS'tiapride_hydrochloride'
p238
NsS'lotrimin'
p239
NsS'harmalol'
p240
NsS'yohimex'
p241
NsS'5_hydroxytryptamine'
p242
NsS'etamsylate'
p243
NsS'cp_94253_hydrochloride'
p244
NsS'mercaptopurine'
p245
NsS'acetylbenzoylaconine'
p246
NsS'norcolut'
p247
NsS'griseofulvin'
p248
NsS'thioridazine_neurazpharm'
p249
NsS'bw_b_70c'
p250
NsS'latanoprost'
p251
NsS'acsis__prednison'
p252
NsS'bemegride'
p253
NsS'netilmicin'
p254
NsS'reminyl'
p255
NsS'sparteine_sulfate_(1:1)__(7s_(7alpha_7aalpha_14alpha_14abeta))_isomer'
p256
NsS'calcitriol'
p257
NsS'constantt'
p258
NsS'fluvoxamin_neuraxpharm'
p259
NsS'naftidrofuryl'
p260
NsS'niguldipine'
p261
NsS'tpca_1'
p262
NsS'delestrogen'
p263
NsS'mellaril'
p264
NsS'meticrane'
p265
NsS'hydrochloride__triprolidine'
p266
NsS'icht_oral'
p267
NsS'at_mlpcn_csc_006'
p268
NsS'vandetanib'
p269
NsS'benzalolin'
p270
NsS'acetonide_21_acetate__fluocinolone'
p271
NsS'mebendan'
p272
NsS'apo_doxazosin'
p273
NsS'scoulerine'
p274
NsS'betazole_dihydrochloride'
p275
NsS'chlorprothixene'
p276
NsS'durolax'
p277
NsS'amperozide'
p278
NsS'decaject'
p279
NsS'isoreserpine'
p280
NsS'(+/_)_catechin'
p281
NsS'letrozole'
p282
NsS'maleate__prochlorperazine'
p283
NsS'folinic_acid_sf'
p284
NsS'metoclopramide_hydrochloride'
p285
NsS'cloperastine'
p286
NsS'trazodon_neuraxpharm'
p287
NsS'ingenol_3__20_dibenzoate'
p288
NsS'isometheptene'
p289
NsS'paludrin'
p290
NsS'lidocaine_carbonate'
p291
NsS'mitomycin_c'
p292
NsS'ergocalciferol'
p293
NsS'puromycin'
p294
NsS'nilutamide'
p295
NsS'brd_k42635745_(suloctidil)'
p296
NsS'pro_ulco'
p297
NsS'olopatadine_hydrochloride'
p298
NsS'pridinol'
p299
NsS'benazepril_hydrochloride'
p300
NsS'v_serp'
p301
NsS'folate'
p302
NsS'cyclacillin'
p303
NsS'tremorine'
p304
NsS'proglycem'
p305
NsS'bcl_2_inhibitor'
p306
NsS'roxarsone'
p307
NsS'zd_2079_hydrochloride'
p308
NsS'prestwick_682'
p309
NsS'guanabenz_acetate'
p310
NsS'cefoperazone'
p311
NsS'clofibric_acid'
p312
NsS'9_amino_1_2_3_4_tetrahydroacridine'
p313
NsS'metrogel'
p314
NsS'prestwick_689'
p315
NsS'sugiran'
p316
NsS'dexambutol'
p317
NsS'detreomycin'
p318
NsS'dobutamine_tartrate_(1:1)__(s_(r*_r*))_isomer'
p319
NsS'aneurin'
p320
NsS'celecoxib'
p321
NsS'prostin_vr'
p322
NsS'gabexate'
p323
NsS'cefotetan_disodium_salt'
p324
NsS'flurandrenolide'
p325
NsS'bufexamac_ratiopharm'
p326
NsS'mestanolone'
p327
NsS'praziquantel'
p328
NsS'elavil'
p329
NsS'ak_tracin'
p330
NsS'gentamicin'
p331
NsS'hydrocortisone_acetate'
p332
NsS'quipazine_hydrochloride'
p333
NsS'clobetasol_17_propionate'
p334
NsS'losartan'
p335
NsS'pipamperone'
p336
NsS'flubendazole'
p337
NsS'cortifair'
p338
NsS'pontal'
p339
NsS'dimenhydrinate'
p340
NsS'klariderm'
p341
NsS'difenidol'
p342
NsS'daraprim'
p343
NsS'cetirizine'
p344
NsS'isorotenone'
p345
NsS'donepezil_hydrochloride'
p346
NsS'flucloxacillin'
p347
NsS'cyclopenthiazide'
p348
NsS'bucladesine__monosodium_salt'
p349
NsS'suramin_sodium'
p350
NsS'tiamol'
p351
NsS'acenocoumarol'
p352
NsS'hemicholinium'
p353
NsS'sulfaquinoxaline_sodium_salt'
p354
NsS'cyclopamine'
p355
NsS'trifluoperazine'
p356
NsS'oxybuprocaine'
p357
NsS'magnesium_ascorbate'
p358
NsS'dulcolax_perles'
p359
NsS'trasicor'
p360
NsS'ditterolina'
p361
NsS'cetidura'
p362
NsS'harmidine'
p363
NsS'idazoxan'
p364
NsS'cormax'
p365
NsS'sabril'
p366
NsS'doxazosin_wolff'
p367
NsS'sanguinarine'
p368
NsS'estradiol__(+_)_isomer'
p369
NsS'pivamiser'
p370
NsS'dilanacin'
p371
NsS'2_5_dideoxyadenosine'
p372
NsS'amiodarone_hydrochloride'
p373
NsS'prochlorperazine'
p374
NsS'scotttussin'
p375
NsS'yutopar'
p376
NsS'azacitidine'
p377
NsS'meta_hydroxynorephedrine'
p378
NsS'protriptyline'
p379
NsS'metoclopramide'
p380
NsS'moxonidine'
p381
NsS'diphemanil_metilsulfate'
p382
NsS'retinoic_acid'
p383
NsS'fluvastatin_sodium_salt'
p384
NsS'leupurin'
p385
NsS'quibron_t_sr'
p386
NsS'extovyl'
p387
NsS'oxprenolol_hydrochloride'
p388
NsS'norgeston'
p389
NsS'penbutolol'
p390
NsS'cetirizin_azu'
p391
NsS'(_)_isoprenaline'
p392
NsS'camoquine'
p393
NsS'alpha_isomer_lovastatin__1'
p394
NsS'novocainamide'
p395
NsS'rhodomyrtoxin_b'
p396
NsS'adamantylamine'
p397
NsS'naringenine'
p398
NsS'antibiotic_ks_r1'
p399
NsS'fenofibrat_hexal'
p400
NsS'benzylpenicillin'
p401
NsS'imipramine_monohydrochloride'
p402
NsS'macrodantin'
p403
NsS'enoxacin'
p404
NsS'carbimazole'
p405
NsS'neocarbo'
p406
NsS'xamoterol_monohydrobromide'
p407
NsS'ethylmethylglutarimide'
p408
NsS'lekoptin'
p409
NsS'hydroquinine'
p410
NsS'manumycin_a'
p411
NsS'oxolinic_acid'
p412
NsS'ellipticine'
p413
NsS'primaquine'
p414
NsS'zefazone'
p415
NsS'mesylate__betahistine'
p416
NsS'tetracycline_hydrochloride'
p417
NsS'saroten'
p418
NsS'nu_gemfibrozil'
p419
NsS'bepridil__alpha_isomer'
p420
NsS'westcort'
p421
NsS'2_(diethylamino)_n_(2_6_dimethylphenyl)acetamide'
p422
NsS'selegiline__(r_s)_isomer'
p423
NsS'hydrochloride__procarbazine'
p424
NsS'celastrol'
p425
NsS'digezanol'
p426
NsS'trimeprimine'
p427
NsS'hesperidin_2s'
p428
NsS'd\xe3\xa9fanyl'
p429
NsS'furazol'
p430
NsS'hyoscyamine_sulfate'
p431
NsS'ambrol\xe3\xb6s'
p432
NsS'pindac'
p433
NsS'dubinidine'
p434
NsS'cephalexin__monosodium_salt__(6r_(6alpha_7beta))_isomer'
p435
NsS'colistin'
p436
NsS'bibx_1382_dihydrochloride'
p437
NsS'mdl_73005ef_hydrochloride'
p438
NsS'fluvoxamine'
p439
NsS'cinarizine'
p440
NsS'vinorelbine'
p441
NsS'furacillin'
p442
NsS'amchafibrin'
p443
NsS'sdm25n_hydrochloride'
p444
NsS'dicumarol'
p445
NsS'hydrochloride__tetrracaine'
p446
NsS'atropine_oxide'
p447
NsS'fluphenazine_n_2_chloroethane__dihydrochloride'
p448
NsS'succinate__loxapine'
p449
NsS'procardia_xl'
p450
NsS'hydralazine_mono_hydrochloride'
p451
NsS'betahistine_dihydrobromide'
p452
NsS'alvespimycin'
p453
NsS'isoconazole'
p454
NsS'normon__amikacina'
p455
NsS'anafranil'
p456
NsS'risperidone'
p457
NsS'dienestrol'
p458
NsS'prestw_550'
p459
NsS'arachidonic_acid'
p460
NsS'h_9_dihydrochloride'
p461
NsS'doxazosin_heumann'
p462
NsS'sparteine'
p463
NsS'brd_k23478508_(digoxin)'
p464
NsS'bupivacain_rpr'
p465
NsS'3_hydroxy_dl_kynurenine'
p466
NsS'rimcazole_dihydrochloride'
p467
NsS'4_(((2_amino_3_5_dibromophenyl)methyl)amino)cyclohexanol'
p468
NsS'bretylium_tosilate'
p469
NsS'acid__gelseminic'
p470
NsS'methylfluorprednisolone'
p471
NsS'thiethylperazine'
p472
NsS'nifedipine_monohydrochloride'
p473
NsS'ethyl_beta_carboline_3_carboxylate'
p474
NsS'sk&f_525_a'
p475
NsS'pyridoxol'
p476
NsS'betulin'
p477
NsS'thioguanine'
p478
NsS'tropisetron_hcl'
p479
NsS'methocarbamol'
p480
NsS'ciprofloxacin_monohydrochloride_monohydrate'
p481
NsS'chlortalidone'
p482
NsS'iodipamide'
p483
NsS'apo_baclofen'
p484
NsS'prochlorperazine_edisylate'
p485
NsS'maleate__diethylcarbamazine'
p486
NsS'dobutamin_hexal'
p487
NsS'plendil'
p488
NsS'akt_inhibitor_1_2'
p489
NsS'humatin'
p490
NsS'dicynene'
p491
NsS'paxilline'
p492
NsS'mif\xe3\xa9gyne'
p493
NsS'sparteine_sulfate'
p494
NsS'lisinopril_maleate_(1:1)'
p495
NsS'roxi_1a_pharma'
p496
NsS'mizodin'
p497
NsS'desglucotransvaaline'
p498
NsS'tachmalin'
p499
NsS'edrophonium_chloride'
p500
NsS'cis_diamminedichloroplatinum(ii)'
p501
NsS'cisticid'
p502
NsS'erythrosine_sodium'
p503
NsS'raloxifene_hydrochloride'
p504
NsS'melizide'
p505
NsS'kwells'
p506
NsS'oxaminiquine'
p507
NsS'pergolide'
p508
NsS'karakoline'
p509
NsS'sulfisoxazole'
p510
NsS'alvocidib'
p511
NsS'hesperidin'
p512
NsS'alfamedin'
p513
NsS'clonidine_monohydrobromide'
p514
NsS'norgestimate'
p515
NsS'metrifonate'
p516
NsS'ryuvidine'
p517
NsS'aureomycin'
p518
NsS'cefamezine'
p519
NsS'5_pregnen_3_beta_ol_20_one'
p520
NsS'kinetin'
p521
NsS'actinospectacin'
p522
NsS'novo_buspirone'
p523
NsS'cytoxan'
p524
NsS'bumetanide'
p525
NsS'camptothecine_(s_+)'
p526
NsS'fluspirilen_lindo'
p527
NsS'dephostatin'
p528
NsS'bapta_am'
p529
NsS'molsi_puren'
p530
NsS'promazine_hydrochloride'
p531
NsS'metoprolol_tartrate'
p532
NsS'sulfachlorpyridazine'
p533
NsS'dihydroergotamine_sandoz'
p534
NsS'reverin'
p535
NsS'skatole'
p536
NsS'dropropizine'
p537
NsS'neo_tomizol'
p538
NsS'mysoline'
p539
NsS'sulfate__vancomycin'
p540
NsS'linezolid'
p541
NsS'etoposide__(5a_alpha_9_alpha)_isomer'
p542
NsS'cycloheximide'
p543
NsS'doxorubicine_baxter'
p544
NsS'chemistry_1571'
p545
NsS'sb_206553_hydrochloride'
p546
NsS'trichlormethiazide'
p547
NsS'dexchlorpheniramine_maleate'
p548
NsS'coralyne'
p549
NsS'tripelennamine_citrate'
p550
NsS'isopilocarpine'
p551
NsS'3nitro10'
p552
NsS'syneudon'
p553
NsS'r(_)_apomorphine_hydrochloride_hemihydrate'
p554
NsS'cp_93129_dihydrochloride'
p555
NsS'oxamniquine'
p556
NsS'pipercillin'
p557
NsS'liserdol'
p558
NsS'protriptyline_hydrochloride'
p559
NsS'procain_steigerwald'
p560
NsS'diprophylline'
p561
NsS'cinchocaine'
p562
NsS'papaverine_hydrochloride'
p563
NsS'(s)_(_)_bay_k_8644'
p564
NsS'tobramycin'
p565
NsS'adiphenine'
p566
NsS'butamben'
p567
NsS'pcp_gaba'
p568
NsS'mw_ras12'
p569
NsS'rosiglitazone_hydrochloride'
p570
NsS'lynestrenol__(9_beta__10_alpha_17_alpha)_isomer'
p571
NsS'rilmenidine'
p572
NsS'imizin'
p573
NsS'mefexamide'
p574
NsS'kurantil'
p575
NsS'monosodium_salt_leucovorin'
p576
NsS'guanethidine_sulfate_(1:1)'
p577
NsS'vorinostat'
p578
NsS'oxytetracycline'
p579
NsS'ribrain'
p580
NsS'thiamcol'
p581
NsS'hecogenin'
p582
NsS'mitotane'
p583
NsS'cefpodoxime_proxetil'
p584
NsS'coumestrol'
p585
NsS'ici_199_441_hydrochloride'
p586
NsS'primidone'
p587
NsS'ikk_inhibitor_x'
p588
NsS'l_733_060_hydrochloride'
p589
NsS'maleate__enalapril'
p590
NsS'miochol'
p591
NsS'ro_31_8220_mesylate'
p592
NsS'triprolidine_oxalate'
p593
NsS'olmesartan_medoxomil'
p594
NsS'norethisterone'
p595
NsS'tranilast_wfm1.4'
p596
NsS'mepacrine'
p597
NsS'tretinoin'
p598
NsS'flurofamide'
p599
NsS'famotidine'
p600
NsS'sonapax'
p601
NsS'leponex'
p602
NsS'piren_basan'
p603
NsS'hc_toxin'
p604
NsS'cerutil'
p605
NsS'alcuronium_chloride'
p606
NsS'alfacid'
p607
NsS'estreptomicina_cepa'
p608
NsS'fluoropos'
p609
NsS'podophyllotoxin'
p610
NsS'16_hydroxytriptolide'
p611
NsS'cardene_i.v.'
p612
NsS'vincristine'
p613
NsS'thiosulfil'
p614
NsS'triflusal'
p615
NsS'dimelor'
p616
NsS'trimipramine_monohydrochloride'
p617
NsS'labetalol_hydrochloride'
p618
NsS'arecaidine_propargyl_ester_tosylate'
p619
NsS'clonidine_hydrochloride'
p620
NsS'deprenyl'
p621
NsS'resveratrol'
p622
NsS'hydrochloride__ethambutol'
p623
NsS'glycinate__theophylline_sodium'
p624
NsS'pentoxyverine'
p625
NsS'orstanorm'
p626
NsS'mesylate__maprotiline'
p627
NsS'alcon__betaxolol'
p628
NsS'fu_jmbii105b'
p629
NsS'l_deprenyl'
p630
NsS'avermectin_b1a'
p631
NsS'theo_24'
p632
NsS'taxol__bris'
p633
NsS'nalidixate_sodium_anhydrous'
p634
NsS'dichlorodiammineplatinum'
p635
NsS'methylbenzethonium_chloride'
p636
NsS'sulfaphenylpyrazol'
p637
NsS'monosodium_salt__cefmetazole'
p638
NsS'diflunisal'
p639
NsS'naringin'
p640
NsS'7_aminocephalosporanic_acid'
p641
NsS'phenelzine_sulfate'
p642
NsS'betamethasone_acetate'
p643
NsS'megestrol'
p644
NsS'betoptima'
p645
NsS'disopyramide__l_tartrate_(1:1)__(s)_isomer'
p646
NsS'belph_10'
p647
NsS'trametinib'
p648
NsS'condylox'
p649
NsS'cosmosiin'
p650
NsS'nomifensine'
p651
NsS'pipera_hameln'
p652
NsS'orphenadrine_hydrochloride'
p653
NsS'omeprazole'
p654
NsS'procainamide_hydrochloride'
p655
NsS'balminil'
p656
NsS'tuscalman'
p657
NsS'chlorphenamine'
p658
NsS'2_fluoropalmitic_acid'
p659
NsS'serazide'
p660
NsS'betamethasone'
p661
NsS'mefoxin'
p662
NsS'sulfate_anhydrous__atropine'
p663
NsS'2_aminobenzenesulfonamide'
p664
NsS'meloxicam_sodium'
p665
NsS'moxisylyte'
p666
NsS'doxycycline'
p667
NsS'triacetyloleandomycin'
p668
NsS'cutason'
p669
NsS'bisindolylmaleimide_iv'
p670
NsS'brd_k93754473_(tamoxifen_citrate)'
p671
NsS'eulitop'
p672
NsS'miconazole'
p673
NsS'hyoscyamine'
p674
NsS'betaloc_astra'
p675
NsS'amoxicillin_monosodium_salt'
p676
NsS'amoxicillin'
p677
NsS'vinblastine_sulfate'
p678
NsS'spironone'
p679
NsS'kb_r7943_mesylate'
p680
NsS'metitepine'
p681
NsS'pifithrin__?'
p682
NsS'amethopterin_(r_s)'
p683
NsS'etilefrin'
p684
NsS'al__amantadin'
p685
NsS'baridium'
p686
NsS'thiophenicol'
p687
NsS'balsalazide'
p688
NsS'sodium__methotrexate'
p689
NsS'chlorpropamide'
p690
NsS'iohexol'
p691
NsS'linolenic_acid_(18:3_n_3)'
p692
NsS'indirubin_3?_monoxime'
p693
NsS'prolecofen'
p694
NsS'opalgyne'
p695
NsS'tetroquinone'
p696
NsS'prestwick_967'
p697
NsS'guanethidine'
p698
NsS'5_iodo_2__deoxyuridine'
p699
NsS'debrisoquine'
p700
NsS'n6_methyladenosine'
p701
NsS'lomefloxacin'
p702
NsS'propamerck'
p703
NsS'lasolvan'
p704
NsS'oleandomycin'
p705
NsS'5_amino_(3_4__bipyridine)_6(1h)_one'
p706
NsS'nvp_bez235'
p707
NsS'chlorcyclizine'
p708
NsS'melleril'
p709
NsS'guaiphenesin_carbamate'
p710
NsS'mephenesin'
p711
NsS'hydrocortisone_phosphate_triethylamine'
p712
NsS'azo_dine'
p713
NsS'xamoterol'
p714
NsS'econazole'
p715
NsS'oligomycin_c'
p716
NsS'fursultiamin'
p717
NsS'rotesan'
p718
NsS'sulfadimidine'
p719
NsS'ethacrynate_sodium'
p720
NsS'mefenetoin'
p721
NsS'somalgit'
p722
NsS'novobiocin_calcium'
p723
NsS'guastil'
p724
NsS'etifenin'
p725
NsS'pimozide'
p726
NsS'diucardin'
p727
NsS'droperidol'
p728
NsS'deguelin(_)'
p729
NsS'ciclosporin'
p730
NsS'idoxuridine__125i_labeled'
p731
NsS'carbamazepine'
p732
NsS'clindamycin_hydrochloride'
p733
NsS'idazoxan_hydrochloride'
p734
NsS'pregnenolone_succinate'
p735
NsS'niclosamide__2_aminoethanol_(1:1)'
p736
NsS'decortin'
p737
NsS'methazolamide'
p738
NsS'troxipide'
p739
NsS'3_nitropropionic_acid'
p740
NsS'dindevan'
p741
NsS'dichlorobenzamil'
p742
NsS'pentolonium'
p743
NsS'pravastatin_sodium_salt'
p744
NsS'etopos'
p745
NsS'piretanide'
p746
NsS'mitoxantrone_dihydrochloride'
p747
NsS'lidocaine_sulfate_(1:1)'
p748
NsS'luteoline'
p749
NsS'ponatinib'
p750
NsS'hydrochloride__fendiline'
p751
NsS'cyproterone__1alpha_2_alpha_9_beta_10_alpha_isomer'
p752
NsS'purvalanol_a'
p753
NsS'sulfafurazole'
p754
NsS'enzastaurin'
p755
NsS'apodoxepin'
p756
NsS'betahistine_hydrochloride'
p757
NsS'siguazodan'
p758
NsS'chloroxacillin'
p759
NsS'azathioprine'
p760
NsS'biomet400'
p761
NsS'nu_fluvoxamine'
p762
NsS'brd_k62310379_(fluticasone_propionate)'
p763
NsS'nalgesic'
p764
NsS'bu_239_hydrochloride'
p765
NsS'methylergol_carbamide'
p766
NsS'apoacetazolamide'
p767
NsS'breonesin'
p768
NsS'microlut'
p769
NsS'lfm_a13'
p770
NsS'lfm_a12'
p771
NsS'beta_all_trans_retinoic_acid'
p772
NsS'curcumin'
p773
NsS'etilefrine'
p774
NsS'zentel'
p775
NsS'aminopurvalanol_a'
p776
NsS'monohydrochloride__midodrine'
p777
NsS'domperidone'
p778
NsS'nafazair'
p779
NsS'sulfathiazole'
p780
NsS'trazon'
p781
NsS'yomesan'
p782
NsS'nardil'
p783
NsS'quinacrine_monomesylate'
p784
NsS'bacitracine_martinet'
p785
NsS'oestrasid'
p786
NsS'akti_1/2'
p787
NsS'tyrphostin_ag_1478'
p788
NsS'harmine'
p789
NsS'closantel'
p790
NsS'arctigenin'
p791
NsS'acid__atractylic'
p792
NsS'palbociclib'
p793
NsS'verapamil'
p794
NsS'platino'
p795
NsS'sodium__dicloxacillin'
pmine'
p794
NsS'closantel'
p795
NsS'arctigenin'
p796
NsS'acid__atractylic'
p797
NsS'palbociclib'
p798
NsS'verapamil'
p799
NsS'platino'
p800
NsS'sodium__dicloxacillin'
p801
NsS'panacrine'
p802
NsS'nnc_05_2090_hydrochloride'
p803
NsS'racepinephrine_hcl'
p804
NsS'ethamsylate'
p805
NsS'pizotifen'
p806
NsS'verospiron'
p807
NsS'sulfaphenazole'
p808
NsS'conessine'
p809
NsS'doxorubicina_funk'
p810
NsS'nvp_tae226'
p811
NsS'oxymetholone'
p812
NsS'bh3i_1'
p813
NsS'cefoxitin_sodium'
p814
NsS'virormone'
p815
NsS'riluzole_hydrochloride'
p816
NsS'glaphenine'
p817
NsS'motilium'
p818
NsS'betahistine'
p819
NsS'clorgiline'
p820
NsS'fosfosal'
p821
NsS'caffeic_acid'
p822
NsS'miraclar'
p823
NsS'dideoxycytidine'
p824
NsS'genbaclofen'
p825
NsS'arcyriaflavin_a'
p826
NsS'milrinone'
p827
NsS'sqworm'
p828
NsS'vertigo_vomex'
p829
NsS'quinacrine_dihyrochloride__(r)_isomer'
p830
NsS'puromycin_dihydrochloride'
p831
NsS'norephedrine'
p832
NsS'tiabendazole'
p833
NsS'isradipine'
p834
NsS'cisplatin'
p835
NsS'apirachol'
p836
NsS'dexpropranolol'
p837
NsS'naftifine'
p838
NsS'inhibitor_bec_hydrochloride'
p839
NsS'rimexolone'
p840
NsS'apo_flutamide'
p841
NsS'erganton'
p842
NsS'biotin_hermes'
p843
NsS'dopamine'
p844
NsS'parfenac'
p845
NsS'amidazine'
p846
NsS'jak3_inhibitor_ii'
p847
NsS'wiregyt'
p848
NsS'dicloxacillin_sodium_salt_hydrate'
p849
NsS'androgel'
p850
NsS'dexpanthenol'
p851
NsS'phenoxybenzamine'
p852
NsS'mdm2_inhibitor'
p853
NsS'lincocin'
p854
NsS'metopirone'
p855
NsS'lanoxin_pg'
p856
NsS'andropatch'
p857
NsS'dimethyl_triazeno_imidazole_carboxamide'
p858
NsS'bisacodyl_uniserts'
p859
NsS'dicoumarol'
p860
NsS'n_acetyl_l_aspartic_acid'
p861
NsS'2_chloro_7_methoxyphenothiazine'
p862
NsS'guaifenesin'
p863
NsS'felodipine'
p864
NsS'floxuridine'
p865
NsS'pilder'
p866
NsS'novo_diflunisal'
p867
NsS'leukovorin'
p868
NsS'otssp167'
p869
NsS'spirobeta'
p870
NsS'mesylate__phentolamine'
p871
NsS'1_3_dimethylxanthine'
p872
NsS'procaine'
p873
NsS'trichazol'
p874
NsS'erk_inhibitor_11e'
p875
NsS'dehydroepiandrosterone'
p876
NsS'hydrochloride__zimeldine'
p877
NsS'saracatinib'
p878
NsS'zoxazolamine'
p879
NsS'erythromycin_estolate'
p880
NsS'brl_15572_hydrochloride'
p881
NsS'rosuvastatin_calcium'
p882
NsS'nootrop'
p883
NsS'practolol__eralzdin'
p884
NsS'betaserc'
p885
NsS'bezamerck'
p886
NsS'altrenogest'
p887
NsS'cyclic_adenosine_monophosphate'
p888
NsS'cerivastatin_na'
p889
NsS'salermide'
p890
NsS'kanamycin_sulfate'
p891
NsS'uniphyllin'
p892
NsS'nobiletin'
p893
NsS'novoprotect'
p894
NsS'monohydrochloride__guanfacine'
p895
NsS'clopheline'
p896
NsS'carbastat'
p897
NsS'seneciphylline'
p898
NsS'probucol'
p899
NsS'testosterone_propionate'
p900
NsS'apo_sulin'
p901
NsS'aminolevulinic_acid'
p902
NsS'brazilin'
p903
NsS'econazole_nitrate'
p904
NsS'pontocaine'
p905
NsS'akt_inhibitor_x'
p906
NsS'orasone'
p907
NsS'etodolac__(s)_isomer'
p908
NsS'piperacillin_monosodium_salt'
p909
NsS'trihexyphenidyl'
p910
NsS'd_sparteine'
p911
NsS'propafenone__(r)_isomer'
p912
NsS'felodipin_heumann'
p913
NsS'mafenide'
p914
NsS'selegiline_hydrochloride__(r_s)_isomer'
p915
NsS'suloctidil'
p916
NsS'triludan'
p917
NsS'apo_trihex'
p918
NsS'neomycin'
p919
NsS'acetophenetidin'
p920
NsS'gastromiro'
p921
NsS'zstk_474'
p922
NsS'cyater'
p923
NsS'bisacodyl__fleet'
p924
NsS'lysodren'
p925
NsS'amcinonide'
p926
NsS'praziquantel__(s)_isomer'
p927
NsS'erythromycin_c'
p928
NsS'etiocholanolone'
p929
NsS'ondansetron__(r)_isomer'
p930
NsS'imodium'
p931
NsS'toprol'
p932
NsS'hydroxyurea'
p933
NsS'valproate_calcium'
p934
NsS'triprolidine'
p935
NsS'stavudine'
p936
NsS'gen_amantadine'
p937
NsS'skf_96365_hydrochloride'
p938
NsS'nbqx_disodium_salt'
p939
NsS'diltiazem'
p940
NsS'estradiol__(16_alpha_17_alpha)_isomer'
p941
NsS'tolazoline_monohydrochloride'
p942
NsS'oxodal'
p943
NsS'dothiepin'
p944
NsS'gliclazide'
p945
NsS'ketotifene'
p946
NsS'spaglumic_acid'
p947
NsS'benperidolneuraxpharm'
p948
NsS'fulvicin_u_f'
p949
NsS'mefloquine'
p950
NsS'emetine'
p951
NsS'3_nitro_10'
p952
NsS'cytomel'
p953
NsS'tricor'
p954
NsS'dacarbazine'
p955
NsS'hubermizol'
p956
NsS'fenofibrate'
p957
NsS'diloxanide_furoate'
p958
NsS'convulsofin'
p959
NsS'fenofibrat_azu'
p960
NsS'apomorphine'
p961
NsS'3_acetamidocoumarin'
p962
NsS'amprol'
p963
NsS'doxycycline_hemiethanolate'
p964
NsS'allegron'
p965
NsS'methergine'
p966
NsS'ambrohexal'
p967
NsS'omnipaque'
p968
NsS'gallamine_triethiodide'
p969
NsS'artemisinin'
p970
NsS'cephalexin_monohydrochloride'
p971
NsS'hydrallazin'
p972
NsS'diperodon_hydrochloride'
p973
NsS'desferroxamine'
p974
NsS'equilin'
p975
NsS'dinaciclib'
p976
NsS'ikarugamycin'
p977
NsS'meladinine'
p978
NsS'genrx_gemfibrozil'
p979
NsS'propofol_mct'
p980
NsS'todralazine_hydrochloride'
p981
NsS'agostilben'
p982
NsS'esmacen'
p983
NsS'desitin__amitriptylin'
p984
NsS'nitrofurazone'
p985
NsS'colchicine'
p986
NsS'6_mercaptopurine'
p987
NsS'minotab'
p988
NsS'decaject_l.a.'
p989
NsS'diphemanil_methylsulfate'
p990
NsS'fluor_op'
p991
NsS'novo_fluvoxamine'
p992
NsS'sulfadimethoxine'
p993
NsS'terfenidine'
p994
NsS'ocufen'
p995
NsS'metindamide'
p996
NsS'carisoma'
p997
NsS'flumethasone'
p998
NsS'rolipram'
p999
NsS'oxprenolol'
p1000
NsS'chloroquine_sulfate'
p1001
NsS'e_4031_dihydrochloride'
p1002
NsS'sulfacetamide__monosodium_salt__anhydrous'
p1003
NsS'pamelor'
p1004
NsS'testopel'
p1005
NsS'bisac_evac'
p1006
NsS'abt_888_(veliparib)'
p1007
NsS'nitrate__rolitetracycline'
p1008
NsS'maprotiline_hydrochloride'
p1009
NsS'biperiden'
p1010
NsS'amodiaquin_dihydrochloride_dihydrate'
p1011
NsS'atropine_methonitrate'
p1012
NsS'carbazol_9_yl_p_tolyl_methanone'
p1013
NsS'desipramine'
p1014
NsS'cinchonine'
p1015
NsS'amiloride_hydrochloride'
p1016
NsS'emetine_dihydrochloride_hydrate_(74)'
p1017
NsS'chloramphenicol'
p1018
NsS'atropen'
p1019
NsS'sulfabenzpyrazine'
p1020
NsS'docetaxel'
p1021
NsS'yohimbine_houd\xe3\xa9'
p1022
NsS'sutent'
p1023
NsS'enalapril'
p1024
NsS'clomipramine_monohydrochloride'
p1025
NsS'norpregneninolone'
p1026
NsS'hydroxytacrine_maleate_(r_s)'
p1027
NsS'nornicotine'
p1028
NsS'metamizole_sodium'
p1029
NsS'sarmentogenin'
p1030
NsS'1_alpha_isomer_lovastatin'
p1031
NsS'capval_tropfen'
p1032
NsS'2_bromoergocryptine'
p1033
NsS'ratio_fluvoxamine'
p1034
NsS'cetirizine_dihydrochloride'
p1035
NsS'boehringer__digoxina'
p1036
NsS'efavirenz'
p1037
NsS'etodolic_acid'
p1038
NsS'dihydrochloride__cetirizine'
p1039
NsS'lomatin'
p1040
NsS'cl\xe3\xa9ridium'
p1041
NsS'isoxsuprine'
p1042
NsS'nefopam'
p1043
NsS'5_beta_androsterone'
p1044
NsS'methoxypropiocin'
p1045
NsS'maninil'
p1046
NsS'9_fluorocortisol'
p1047
NsS'cefalonium'
p1048
NsS'fludroxycortide'
p1049
NsS'fgin_1_27'
p1050
NsS'contramareo'
p1051
NsS'dacomitinib'
p1052
NsS'adreson'
p1053
NsS'fevarin'
p1054
NsS'cefalexin'
p1055
NsS'disopyramide__l_tartrate__(s)_isomer'
p1056
NsS'pyocefal'
p1057
NsS'antazoline'
p1058
NsS'carisoprodol'
p1059
NsS'tinaderm'
p1060
NsS'pepstatin'
p1061
NsS'dihydrochloride__trimetazidine'
p1062
NsS'megestrol_acetate'
p1063
NsS'deacura'
p1064
NsS'hydrochloride__pargyline'
p1065
NsS'novalsan'
p1066
NsS'pimethixene'
p1067
NsS'bulleyaconitine_a'
p1068
NsS'duradermal'
p1069
NsS'moroxydine'
p1070
NsS'apo_buspirone'
p1071
NsS'flunarizine_hydrochloride'
p1072
NsS'diltiazem_hydrochloride'
p1073
NsS'mevalolactone'
p1074
NsS'azidothymidine'
p1075
NsS'rytmonorm'
p1076
NsS'demecarium_bromide'
p1077
NsS'norplant_2'
p1078
NsS'cormelian'
p1079
NsS'oxyphenbutazone'
p1080
NsS'novo_sundac'
p1081
NsS'zamifenacin_fumarate'
p1082
NsS'carticaine_hydrochloride'
p1083
NsS'clenbuterol'
p1084
NsS'2_(4_(4__chlorophenyl)cyclohexyl)_3_hydroxy_1_4_naphthoquinone'
p1085
NsS'primaquine_phosphate'
p1086
NsS'pyrazolanthrone'
p1087
NsS'synestrol'
p1088
NsS'disulfiram'
p1089
NsS'molsicor'
p1090
NsS'trans_retinoic_acid'
p1091
NsS'aerobin'
p1092
NsS'santonin'
p1093
NsS'bacampicillin'
p1094
NsS'salt__cefotetan_disodium'
p1095
NsS'antibiotic_799'
p1096
NsS'virazide'
p1097
NsS'methylergometrine_maleate'
p1098
NsS'dopergine'
p1099
NsS'tomatidine'
p1100
NsS'6_aminocaproic_acid'
p1101
NsS'flecainid_isis'
p1102
NsS'nitrendipine'
p1103
NsS'nf_kb_activation_inhibitor_ii__jsh_23'
p1104
NsS'phosphate__antazoline'
p1105
NsS'clofibrate'
p1106
NsS'ortacrone'
p1107
NsS'pipolfen'
p1108
NsS'flutagry'
p1109
NsS'liothyronine'
p1110
NsS'm\xe3\xa9topirone'
p1111
NsS'thiophene_2_carboxylic_acid_benzothiazol_2_ylamide_mls_0446110.0001'
p1112
NsS'neomycin_sulfate'
p1113
NsS'urdrim'
p1114
NsS'moricizine_hydrochloride'
p1115
NsS'clindamycin_monohydrochloride'
p1116
NsS'loxapine_monohydrochloride'
p1117
NsS'tamoxifen'
p1118
NsS'halcinonide'
p1119
NsS'terazosin'
p1120
NsS'diflorasone'
p1121
NsS'fradiomycin_sulfate'
p1122
NsS'trazodone_hydrochloride'
p1123
NsS'thiethylperazine_dimalate'
p1124
NsS'phenformin'
p1125
NsS'isoxicam'
p1126
NsS'spiperone'
p1127
NsS'cvf_csc_7_brd_a32595718'
p1128
NsS'piperidolate'
p1129
NsS'canrenoic_acid'
p1130
NsS'tranylcypromine'
p1131
NsS'gw_3965_hydrochloride'
p1132
NsS'vesanoid'
p1133
NsS'retrorsine'
p1134
NsS'enrofloxacin'
p1135
NsS'chlorlincocin'
p1136
NsS'trifluridine'
p1137
NsS'bleo_cell'
p1138
NsS'cinnarizine__(e)_isomer'
p1139
NsS'bupropion_hydrochloride'
p1140
NsS'bisacodyl'
p1141
NsS'ringelheimer_pulmonal'
p1142
NsS'altracin'
p1143
NsS'ifosfamide'
p1144
NsS'ethinyl_estradiol_3_methyl_ether'
p1145
NsS'daunorubicin'
p1146
NsS'benhydramin'
p1147
NsS'tamoxifen_citrate'
p1148
NsS'harmaline'
p1149
NsS'bithionate_sodium'
p1150
NsS'thonzonium_bromide'
p1151
NsS'cymarin'
p1152
NsS'ginsenoside_rc'
p1153
NsS'felodipin_abz'
p1154
NsS't_amcha'
p1155
NsS'ornidazole'
p1156
NsS'vesamicol'
p1157
NsS'butacaine'
p1158
NsS'riluzole'
p1159
NsS'melipramine'
p1160
NsS'pgf2alpha'
p1161
NsS'mino_wolff'
p1162
NsS'chlornitromycin'
p1163
NsS'acetohexamide'
p1164
NsS'hydrochloride__flunarizine'
p1165
NsS'prostenon'
p1166
NsS'gelsemine'
p1167
NsS'dianhydrosorbitol'
p1168
NsS'remacemide_hydrochloride'
p1169
NsS'salagen'
p1170
NsS'cilostamide'
p1171
NsS'5_ethyl_3_methyl_5_phenylhydantoin'
p1172
NsS'dorsomorphin_dihydrochloride'
p1173
NsS'rs_17053_hydrochloride'
p1174
NsS'azt_(antiviral)'
p1175
NsS'etidronic_acid'
p1176
NsS'propanolol'
p1177
NsS'ciprofloxacin_hydrochloride_anhydrous'
p1178
NsS'moclobemide'
p1179
NsS'chlordelazine'
p1180
NsS'iopamiro'
p1181
NsS'methotrexate__(d)_isomer'
p1182
NsS'sparteine__(7s_(7alpha_7aalpha_14alpha_14abeta))_isomer'
p1183
NsS'emd_386088_hydrochloride'
p1184
NsS'vasartel'
p1185
NsS'fenoprofen_calcium'
p1186
NsS'tazidime'
p1187
NsS'6_azauridine'
p1188
NsS'brd_k68202742_(trichostatin_a)'
p1189
NsS'amoxicilline'
p1190
NsS'senzit'
p1191
NsS'urapidil'
p1192
NsS'5_5_dimethyl_2_4_oxazolidinedione'
p1193
NsS'epitiostanol'
p1194
NsS'azasetron'
p1195
NsS'nitrate__miconasil'
p1196
NsS'isoxsuprine_hydrochloride'
p1197
NsS'brefeldin_a'
p1198
NsS'diclofenamide'
p1199
NsS'iproveratril'
p1200
NsS'nicergolin_ratiopharm'
p1201
NsS'ondansetron_hydrochloride'
p1202
NsS'ceforanide'
p1203
NsS'pimafucin'
p1204
NsS'isoptin'
p1205
NsS'duloxetine_hydrochloride'
p1206
NsS'flutaplex'
p1207
NsS'mesoridazine_besylate'
p1208
NsS'antiphlogistine_rub_a_535_capsaicin'
p1209
NsS'apo_diflunisal'
p1210
NsS'fr_122047_hydrochloride'
p1211
NsS'gen_baclofen'
p1212
NsS'hydromedin'
p1213
NsS'namenda'
p1214
NsS'metadrenaline'
p1215
NsS'adrimedac'
p1216
NsS'clonidine_dihydrochloride'
p1217
NsS'leflunomide'
p1218
NsS'doxo_cell'
p1219
NsS'vorigeno'
p1220
NsS'norplant'
p1221
NsS'lipox_gemfi'
p1222
NsS'novo_doxepin'
p1223
NsS'diisopyramide'
p1224
NsS'sulfamethizol_fna'
p1225
NsS'pemoline'
p1226
NsS'pluryl'
p1227
NsS'azonatural'
p1228
NsS'hydrochloride__levamisole'
p1229
NsS'infectoflu'
p1230
NsS'propofol_lipuro'
p1231
NsS'b9__vitamin'
p1232
NsS'ethionamide'
p1233
NsS'raupasil'
p1234
NsS'anapsique'
p1235
NsS'phenantoin'
p1236
NsS'ciclopirox'
p1237
NsS'chlortetracycline'
p1238
NsS'atosil'
p1239
NsS'genistin'
p1240
NsS'trimethoprim'
p1241
NsS'diphosphate__primaquine'
p1242
NsS'thioguanine_monosodium_salt'
p1243
NsS'cis_diamminedichloroplatinum'
p1244
NsS'amantadinratiopharm'
p1245
NsS'vitamin_b2'
p1246
NsS'vigabatrin'
p1247
NsS'pms_nortriptyline'
p1248
NsS'alfacalcidol'
p1249
NsS'4_amino_1_5_dimethyl_2_phenyl_3h_pyrazolone'
p1250
NsS'n_desmethylclozapine'
p1251
NsS'3_(2_(4_(4_fluorobenzoyl)piperidinol)ethyl)_2_4(1h_3h)_quinazolinedione'
p1252
NsS'diethylstilbestrol__(z)_isomer'
p1253
NsS'sulfapyridine'
p1254
NsS'sulfate__cupric'
p1255
NsS'nitrendipin_beta'
p1256
NsS'simplotan'
p1257
NsS'gemfibrozil__genrx'
p1258
NsS'trate_hydrate'
p1259
NsS'fumarate__bisoprolol'
p1260
NsS'tennecetin'
p1261
NsS'ergodavur'
p1262
NsS'prepar'
p1263
NsS'embay_8440'
p1264
NsS'kendrick'
p1265
NsS'tioguanina_wellcome'
p1266
NsS'nitrensal'
p1267
NsS'retin_a'
p1268
NsS'acid__ethacrynic'
p1269
NsS'ciclopirox_ethanolamine'
p1270
NsS'tolfenamic_acid'
p1271
NsS'8_methyl_n_vanillyl_6_nonenamide'
p1272
NsS'pms_fluorometholone'
p1273
NsS'netromicina'
p1274
NsS'myotonine'
p1275
NsS'furaltadone'
p1276
NsS'clopidogrel'
p1277
NsS'rickamicin'
p1278
NsS'ronidazole'
p1279
NsS'miostat'
p1280
NsS'beza_puren'
p1281
NsS'rottlerin_ncgc00025228_11'
p1282
NsS'vikela'
p1283
NsS'raf1_kinase_inhibitor_i'
p1284
NsS'amukin'
p1285
NsS'dihydro_beta_tubaic_acid'
p1286
NsS'pronetalol'
p1287
NsS'leucenine'
p1288
NsS'sulfate__guanethidine'
p1289
NsS'eskazine'
p1290
NsS'v_ama37'
p1291
NsS'pepcid'
p1292
NsS'pms_amantadine'
p1293
NsS'trap_101'
p1294
NsS'cortone_acetate'
p1295
NsS'oxsoralen_ultra'
p1296
NsS'lysantin'
p1297
NsS'sodium_azlocillin'
p1298
NsS'alpha_ara_a'
p1299
NsS'prestwick_983'
p1300
NsS'circupon'
p1301
NsS'salt__tretinoin_sodium'
p1302
NsS'guaiphenesin'
p1303
NsS'sulfazine'
p1304
NsS'prudoxin'
p1305
NsS'n_methyl_9_10_ethanoanthracene_9(10h)_propylamine'
p1306
NsS'dipyridamole'
p1307
NsS'paracetamol'
p1308
NsS'restryl'
p1309
NsS'novo_gemfibrozil'
p1310
NsS'pivmecillinam_hydrochloride'
p1311
NsS'reactine'
p1312
NsS'oxaprozin'
p1313
NsS'hyoscine'
p1314
NsS'hydrochloride__demeclocycline'
p1315
NsS'lopirin'
p1316
NsS'miccil'
p1317
NsS'bronchopront'
p1318
NsS'prestwick_1084'
p1319
NsS'nortriptyline'
p1320
NsS'prestwick_1080'
p1321
NsS'selegyline'
p1322
NsS'eryped'
p1323
NsS'valyltryptophan'
p1324
NsS'phenoxybenzamine_hydrochloride'
p1325
NsS'bwa_509u'
p1326
NsS'genamantadine'
p1327
NsS'chenodeoxycholic_acid'
p1328
NsS'clotrimazole'
p1329
NsS'betamethasone_17_21_dipropionate'
p1330
NsS'hydrochloride_dihydride__naloxone'
p1331
NsS'paclitaxel'
p1332
NsS'flubenisolone'
p1333
NsS'hexadrol'
p1334
NsS'thioperamide'
p1335
NsS'disopyramide__d_tartrate_(1:1)__(s)_isomer'
p1336
NsS'streptomycin_sulphate'
p1337
NsS'estradiol_anhydrous'
p1338
NsS'mirtazepine'
p1339
NsS'mebendazole'
p1340
NsS'ampicillin_sodium'
p1341
NsS'rythmilen'
p1342
NsS'cefmetazole_sodium'
p1343
NsS'cordarone'
p1344
NsS'nebupent'
p1345
NsS'methotrexate__dicesium_salt'
p1346
NsS'leucovorin__calcium_(1:1)_salt__(dl)_isomer'
p1347
NsS'methotrexate'
p1348
NsS'cefalotin'
p1349
NsS'metacycline'
p1350
NsS'certomycin'
p1351
NsS'betulinic_acid'
p1352
NsS'doxa_puren'
p1353
NsS'phentolamine_mesylate'
p1354
NsS'dantrium'
p1355
NsS'flugalin'
p1356
NsS'2_chloro_11_(1_piperazinyl)dibenz(b_f)(1_4)oxazepine'
p1357
NsS'acupan'
p1358
NsS'gatifloxacin'
p1359
NsS'nystatin_g'
p1360
NsS'dopegyt'
p1361
NsS'propofol_abbott'
p1362
NsS'magnorbin'
p1363
NsS'paromomycin_i'
p1364
NsS'wellcovorin'
p1365
NsS'bleomycin_a2'
p1366
NsS'arechine'
p1367
NsS'chlortetracycline__4_epimer'
p1368
NsS'surbronc'
p1369
NsS'lorelco'
p1370
NsS'3_alpha_hydroxy_5_beta_androstan_17_one'
p1371
NsS'lisuride_mesylate'
p1372
NsS'reisetabletten_l\xe3\xbcnopharm'
p1373
NsS'hydrochloride__naphazoline'
p1374
NsS'adriablastine'
p1375
NsS'ursolic_acid'
p1376
NsS'11_decorticosterone'
p1377
NsS'adriblastine'
p1378
NsS'antistenocardin'
p1379
NsS'calcium_pantothenate'
p1380
NsS'lincomycin_monohydrochloride__(2s_cis)_isomer'
p1381
NsS'5_trifluoromethyl_2__deoxyuridine'
p1382
NsS'hydrochloride__aphrodine'
p1383
NsS'ratiopharm__astemizol'
p1384
NsS'flecainide__(r)_isomer'
p1385
NsS'buspirone_hydrochloride'
p1386
NsS'nifurtimox'
p1387
NsS'clear_eyes'
p1388
NsS'sulfona'
p1389
NsS'chimax'
p1390
NsS'enteroseptol'
p1391
NsS'baypress'
p1392
NsS'methylprednisolone'
p1393
NsS'benfotiamine'
p1394
NsS'apo_sulfinpyrazone'
p1395
NsS'minocycline__(4r_(4_alpha_4a_beta_5a_beta_12a_beta))_isomer'
p1396
NsS'bisoprolol__(_)_isomer'
p1397
NsS'4_5_dehydrogentamicin'
p1398
NsS'acid__trans_retinoic'
p1399
NsS'vistagan'
p1400
NsS'homoharringtonine'
p1401
NsS'methiothepin'
p1402
NsS'sulphachlorpyridazine'
p1403
NsS'akne_puren'
p1404
NsS'propheniramine'
p1405
NsS'kaluril'
p1406
NsS'vagi_hex'
p1407
NsS'amsacrine'
p1408
NsS'canesten'
p1409
NsS'pregnenolone'
p1410
NsS'bayvit__gemfibrozilo'
p1411
NsS'onkotrone'
p1412
NsS'ampicillin__phthalidyl'
p1413
NsS'isoniazid'
p1414
NsS'myricetin'
p1415
NsS'sulformethoxine'
p1416
NsS'ethambutol'
p1417
NsS'tineafax'
p1418
NsS'astesen'
p1419
NsS'13_cis_retinoic_acid'
p1420
NsS'piperine'
p1421
NsS'dienestrol__(z_z)_isomer'
p1422
NsS'gel__prepidil'
p1423
NsS'imurel'
p1424
NsS'evista'
p1425
NsS'securinine'
p1426
NsS'cicloheximide'
p1427
NsS'zelmid'
p1428
NsS'aldizem'
p1429
NsS'gangleoidin_acetate'
p1430
NsS'methoin'
p1431
NsS'sulfate__quinidine'
p1432
NsS'orphenadrine'
p1433
NsS'solanine_alpha'
p1434
NsS'trivastal'
p1435
NsS'cis_dichlorodiammineplatinum(ii)'
p1436
NsS'4_4__diaminophenyl_sulfone'
p1437
NsS'arabinosyladenine'
p1438
NsS'diflamil'
p1439
NsS'iocetamic_acid'
p1440
NsS'genaspor'
p1441
NsS'scopolamine_cooper'
p1442
NsS'carbamazepine_phosphate'
p1443
NsS'enalapril_maleate'
p1444
NsS'thalidomide'
p1445
NsS'etoposide__(5s)_isomer'
p1446
NsS'silentan_nefopam'
p1447
NsS'alpha_isosparteine'
p1448
NsS'linoleamide'
p1449
NsS'dextromethorphan_hydrochloride'
p1450
NsS'talusin'
p1451
NsS'triazide'
p1452
NsS'honokiol'
p1453
NsS'tropicamide_faure'
p1454
NsS'4h_carbazol_4_one__1_2_3_9_tetrahydro_9_methyl_3_((2_methyl_1h_imidazol_1_yl)methyl)_'
p1455
NsS'hydrastinine'
p1456
NsS'halometasone'
p1457
NsS'methoxamine_hydrochloride'
p1458
NsS'cerepar_n'
p1459
NsS'novo_mexiletine'
p1460
NsS'eldoral'
p1461
NsS'liothyronine_(l__isomer)_sodium'
p1462
NsS'demethyl_epipodophyllotoxin_ethylidine_glucoside'
p1463
NsS'5_nonyloxytryptamine'
p1464
NsS'hydrochloride__chlorpromazine'
p1465
NsS'tegopen'
p1466
NsS'nitrendipincorax'
p1467
NsS'fipexide'
p1468
NsS'canadine'
p1469
NsS'doxazomerck'
p1470
NsS'felbamate'
p1471
NsS'isoquercitrin'
p1472
NsS'dalcaine'
p1473
NsS'albendazole'
p1474
NsS'glupitel'
p1475
NsS'prozac'
p1476
NsS'acemetacin'
p1477
NsS'gabexate_monomethanesulfonate'
p1478
NsS'endoplus'
p1479
NsS'brd_k36055864_(cycloheximide)'
p1480
NsS'genisteine_alkaloid'
p1481
NsS'vemurafenib'
p1482
NsS'butein'
p1483
NsS'sulfamethoxypyridazine'
p1484
NsS'prilocaine'
p1485
NsS'molindone_monohydrochloride'
p1486
NsS'mead_ethanolamide'
p1487
NsS'all_trans_retinoic_acid'
p1488
NsS'genistein'
p1489
NsS'disopyramide_phosphate_(1:1)__(+_)_isomer'
p1490
NsS'bromperidol'
p1491
NsS'methoxa_dome'
p1492
NsS'losartan_potassium'
p1493
NsS'doxazosina_normon'
p1494
NsS'cerebramed'
p1495
NsS'hydrochloride_anhydrous__ciprofloxacin'
p1496
NsS'methapyrilene'
p1497
NsS'alfaxalone'
p1498
NsS'molsi_1a_pharma'
p1499
NsS'gen_nortriptyline'
p1500
NsS'dexatrim'
p1501
NsS'nortriptyline_hydrochloride'
p1502
NsS'dixarit'
p1503
NsS'daonil'
p1504
NsS'3_hydroxy_l_tyrosine'
p1505
NsS'ocutropic'
p1506
NsS'deticene'
p1507
NsS'brinedine'
p1508
NsS'efortil'
p1509
NsS'rifabutine'
p1510
NsS'tramadol'
p1511
NsS'tacrine'
p1512
NsS'bromocriptine'
p1513
NsS'triflupromazine_hydrochloride'
p1514
NsS'athromidin'
p1515
NsS'novo_acebutolol'
p1516
NsS'prestwick_860'
p1517
NsS'ratio_bisacodyl'
p1518
NsS'lobelanidine'
p1519
NsS'raltitrexed'
p1520
NsS'prestwick_864'
p1521
NsS'hydrochloride__talampicillin'
p1522
NsS'histerone'
p1523
NsS'cinoxacin'
p1524
NsS'brulamycin'
p1525
NsS'hydrocortisone__(11_alpha)_isomer'
p1526
NsS'rho_kinase_inhibitor_iii_[rockout]'
p1527
NsS'erythromycin'
p1528
NsS'chibret'
p1529
NsS'lipantil'
p1530
NsS'caffeic_acid_phenethyl_ester'
p1531
NsS'benzide_m'
p1532
NsS'betapressin'
p1533
NsS'benzo[a]pyrene'
p1534
NsS'wiskostatin'
p1535
NsS'idebenone'
p1536
NsS'pargyline'
p1537
NsS'fugerel'
p1538
NsS'1_(o_allylphenoxy)_3_(isopropylamino)_2_propanol'
p1539
NsS'irinotecan_hydrochloride_trihydrate'
p1540
NsS'nicardipine_hydrochloride'
p1541
NsS'citanest'
p1542
NsS'pervincamine'
p1543
NsS'arecaline'
p1544
NsS'cyclopentolate'
p1545
NsS'sirolimus'
p1546
NsS'cefixime_trihydrate'
p1547
NsS'isosorbide'
p1548
NsS'morsydomine'
p1549
NsS'naphazoline'
p1550
NsS'withaferin_a'
p1551
NsS'chloropyramine'
p1552
NsS'sparteine__(7r_(7alpha_7abeta_14alpha_14abeta))_isomer'
p1553
NsS'carbostesin'
p1554
NsS'wortmannin'
p1555
NsS'dimethyloxazolidinedione'
p1556
NsS'diethylcarbamazine_l_tartrate_(1:1)'
p1557
NsS'durabezur'
p1558
NsS'rauverid'
p1559
NsS'perhexiline_maleate'
p1560
NsS'rolitetracycline_mononitrate__sesquihydrate'
p1561
NsS'timacar'
p1562
NsS'afatinib'
p1563
NsS'practolol'
p1564
NsS'laxans_ratiopharm'
p1565
NsS'methylarecaidin'
p1566
NsS'd_norgestrel'
p1567
NsS'hydrochloride__guanfacine'
p1568
NsS'dyclonine'
p1569
NsS'cantharidin'
p1570
NsS'seryltrihydroxybenzylhydrazine'
p1571
NsS'methylene_blue'
p1572
NsS'dibenzyran'
p1573
NsS'ticlodone'
p1574
NsS'cyclophosphamide_monohydrate'
p1575
NsS'transamine'
p1576
NsS'novobiocin__monosodium_salt'
p1577
NsS'cetalerg'
p1578
NsS'levamisole_hydrochloride'
p1579
NsS'palpitine'
p1580
NsS'fluorocurarine'
p1581
NsS'cephalexin'
p1582
NsS'pmslevobunolol'
p1583
NsS'carboplatin'
p1584
NsS'sodium_nalidixic_acid__monohydrate'
p1585
NsS'carbenoxolone'
p1586
NsS'demecolcine__(+_)_isomer'
p1587
NsS'calciferols'
p1588
NsS'hexalense'
p1589
NsS'tocainide__(+_)_isomer'
p1590
NsS'dermalog'
p1591
NsS'tremulacin'
p1592
NsS'isotretinoin_zinc_salt__13_cis_isomer'
p1593
NsS'amlodipine_besylate'
p1594
NsS'panavir'
p1595
NsS'demethylimipramine'
p1596
NsS'methiothepin_maleate'
p1597
NsS'sodium__cloxacillin'
p1598
NsS'me_ccnu'
p1599
NsS'nefazodone_hydrochloride'
p1600
NsS'hemado'
p1601
NsS'nitrumon'
p1602
NsS'rapamune'
p1603
NsS'dapsone'
p1604
NsS'metixene_hydrochloride'
p1605
NsS'dilazep'
p1606
NsS'fusidic_acid'
p1607
NsS'spectinomycin_dihydrochloride__pentahydrate'
p1608
NsS'alfuzosin'
p1609
NsS'8_isotestosterone'
p1610
NsS'gyno_pevaril'
p1611
NsS'bergenin'
p1612
NsS'oxytetracycline_anhydrous'
p1613
NsS'levomepromazine'
p1614
NsS'biltricide'
p1615
NsS'magnesium_di_l_ascorbate'
p1616
NsS'sulfasalazine_fna'
p1617
NsS'apo_trazodone'
p1618
NsS'apo_nortriptyline'
p1619
NsS'tetrindole_mesylate'
p1620
NsS'doxazosin_mesylate'
p1621
NsS'nystatin'
p1622
NsS'sodium_salt__cefoperazone'
p1623
NsS'citrovorum_factor'
p1624
NsS'triptone'
p1625
NsS'imipenem'
p1626
NsS'haloprogin'
p1627
NsS'isopropylmeprobamate'
p1628
NsS'tradozone'
p1629
NsS'eticlopride'
p1630
NsS'strepto_hefa'
p1631
NsS'terfenadin_von_ct'
p1632
NsS'flecainide'
p1633
NsS'enkortolon'
p1634
NsS'frumikal'
p1635
NsS'altace'
p1636
NsS'katrum'
p1637
NsS'sodium__cephazolin'
p1638
NsS'deprenalin'
p1639
NsS'aminoglutethimide'
p1640
NsS'entinostat'
p1641
NsS'azodine'
p1642
NsS'pioglitazone'
p1643
NsS'citalopram_hydrobromide'
p1644
NsS'miscleron'
p1645
NsS'thm_i_94'
p1646
NsS'azapropazone'
p1647
NsS'alcobon'
p1648
NsS'jnk_9l'
p1649
NsS'abello__naloxone'
p1650
NsS'carbacholine'
p1651
NsS'carvedilol'
p1652
NsS'huma_zolamide'
p1653
NsS'guanadrel'
p1654
NsS'maleate__domperidone'
p1655
NsS'geminis__fluvoxamina'
p1656
NsS'apogemfibrozil'
p1657
NsS'lysuride_hydrogen_maleate'
p1658
NsS'ethyl_aminobenzoate'
p1659
NsS'diblocin'
p1660
NsS'clofilium_tosylate'
p1661
NsS'leucovorin__calcium_(1:1)_salt'
p1662
NsS'3_7_dihydro_1_3_dimethyl_1h_purine_2_6_dione'
p1663
NsS'arachidonyltrifluoromethane'
p1664
NsS'iohexol_350'
p1665
NsS'allergipuran'
p1666
NsS'agapurin'
p1667
NsS'dibenzyline'
p1668
NsS'phenylalanine_mustard'
p1669
NsS'amantadine_sulfate'
p1670
NsS'linomide'
p1671
NsS'distilb\xc3\xa8ne'
p1672
NsS'salt__prochlorperazine_edisylate'
p1673
NsS'pms_baclofen'
p1674
NsS'sto_609_acetate'
p1675
NsS'pramocaine'
p1676
NsS'belinostat'
p1677
NsS'podocon_25'
p1678
NsS'isopto_carbachol'
p1679
NsS'brd_k77830450_(forskolin)'
p1680
NsS'alw_ii_49_7'
p1681
NsS'pyridinium__1_((4_amino_2_propyl_5_pyrimidinyl)methyl)_2_methyl___chloride_(1:1)'
p1682
NsS'tetrandrine'
p1683
NsS'riboflavine'
p1684
NsS'cefsulodin'
p1685
NsS'bacitracin'
p1686
NsS'clamoxyl_g.a.'
p1687
NsS'theo_von_ct'
p1688
NsS'tobracin'
p1689
NsS'propafenon_hexal'
p1690
NsS'alpha_clopenthixol'
p1691
NsS'(+)_isoprenaline'
p1692
NsS'cefmetazole'
p1693
NsS'monolitum'
p1694
NsS'midecamycin'
p1695
NsS'monohydrochloride__mianserin'
p1696
NsS'erlotinib'
p1697
NsS'chlorbutin'
p1698
NsS'quinethazone'
p1699
NsS'alfadolone'
p1700
NsS'trilafon'
p1701
NsS'tolazamide'
p1702
NsS'hydrate__levopropoxyphene_2_naphthalenesulfonate'
p1703
NsS'prestwick_685'
p1704
NsS'novo_doxazosin'
p1705
NsS'loniten'
p1706
NsS'azulfidine_en'
p1707
NsS'vegf_receptor_3_kinase_inhibitor__maz51'
p1708
NsS'l_803_087_trifluoroacetate'
p1709
NsS'nu_domperidone'
p1710
NsS'smokeless'
p1711
NsS'd_tamin_retard_l.u.t.'
p1712
NsS'apo_feno_micro'
p1713
NsS'meclocycline_sulfosalicylate'
p1714
NsS'mycophenolic_acid'
p1715
NsS'pms_fenofibrate_micro'
p1716
NsS'triamcinolone'
p1717
NsS'calmidazolium'
p1718
NsS'ricinine'
p1719
NsS'6_dehydro_9_beta_10_alpha_progesterone'
p1720
NsS'immepip_dihydrobromide'
p1721
NsS'nitren_acis'
p1722
NsS'bisoprolol_fumarate'
p1723
NsS'citrate__diethylcarbamazine'
p1724
NsS'neostigmine_bromide'
p1725
NsS'felocor'
p1726
NsS'promazine'
p1727
NsS'ondansetron_monohydrochloride'
p1728
NsS'para_bromdylamine'
p1729
NsS'lobeline'
p1730
NsS'salsolinol'
p1731
NsS'la__nicardipine'
p1732
NsS'benfluorex'
p1733
NsS'gris_peg'
p1734
NsS'rs_39604_hydrochloride'
p1735
NsS'cyclonamine'
p1736
NsS'fludrocortisone_acetate'
p1737
NsS'propoxycaine'
p1738
NsS'synthrom'
p1739
NsS'anpirtoline_hydrochloride'
p1740
NsS'zolantidine_dimaleate'
p1741
NsS'amitriptyline_hydrochloride'
p1742
NsS'flunarizine_dihydrochloride'
p1743
NsS'prestwick_675'
p1744
NsS'prestwick_674'
p1745
NsS'acid__nalidixic'
p1746
NsS'streptomycin'
p1747
NsS'w_9_hydrochloride'
p1748
NsS'tocainide_hydrochloride'
p1749
NsS'sulfanilamide'
p1750
NsS'ratio_nortriptyline'
p1751
NsS'sulindac'
p1752
NsS'broxol'
p1753
NsS'cefotetan'
p1754
NsS'prl_3_inhibitor_i'
p1755
NsS'tetraethylthioperoxydicarbonic_diamide__((h2n)c(s))2s2'
p1756
NsS'sulindal'
p1757
NsS'ketorolac_tromethamine'
p1758
NsS'hydrastinine_hydrochloride'
p1759
NsS'mefexamide_hydrochloride'
p1760
NsS'gsk_j1'
p1761
NsS'gsk_j2'
p1762
NsS'prograf'
p1763
NsS'r(+)_6_bromo_apb'
p1764
NsS'encortone'
p1765
NsS'adrenam'
p1766
NsS'epilincomycin'
p1767
NsS'alpha_estradiol'
p1768
NsS'purimethol'
p1769
NsS'ketotifen'
p1770
NsS'torin_1'
p1771
NsS'torin_2'
p1772
NsS'duraspiron'
p1773
NsS'cephazolin__sodium'
p1774
NsS'betazole'
p1775
NsS'lisuride_hydrochloride'
p1776
NsS'ntncb_hydrochloride'
p1777
NsS'thiotepa'
p1778
NsS'ofloxacin'
p1779
NsS'chlorambucil'
p1780
NsS'klinoril'
p1781
NsS'eulexine'
p1782
NsS'evodiamine'
p1783
NsS'tartrate__metaraminol'
p1784
NsS'brd_a68930007_(ouabain)'
p1785
NsS'fentolamin'
p1786
NsS'glyburide'
p1787
NsS'monohydrate__ciprofloxacin_monohydrochloride'
p1788
NsS'dimesylate__quinacrine'
p1789
NsS'aconitine'
p1790
NsS'arabinoside__cytosine'
p1791
NsS'procarbazine_monohydrobromide'
p1792
NsS'stylomycin'
p1793
NsS'diphenhydramine'
p1794
NsS'doxycycline_monohydrochloride__6_epimer'
p1795
NsS'fendiline_hydrochloride'
p1796
NsS'piperlongumine'
p1797
NsS'buspirone'
p1798
NsS'herpecin_l'
p1799
NsS'cyclizine_hydrochloride'
p1800
NsS'anzatax'
p1801
NsS'berocillin'
p1802
NsS'hydroxyzine_dihydrochloride'
p1803
NsS'trimipramine_maleate_salt'
p1804
NsS'arithmin'
p1805
NsS'duphaston'
p1806
NsS'tegretol'
p1807
NsS'zimelidine_hydrochloride'
p1808
NsS'imidamine'
p1809
NsS'clemastine'
p1810
NsS'apressoline'
p1811
NsS'16_phenyltetranorprostaglandin_e2'
p1812
NsS'amantadina_llorente'
p1813
NsS'cinnarizine'
p1814
NsS'guanethidine_sulfate'
p1815
NsS'geroxalen'
p1816
NsS'epirubicin_hydrochloride'
p1817
NsS'thiamphenicol'
p1818
NsS'atromid'
p1819
NsS'penicillin_v'
p1820
NsS'carbamazepine_hydrochloride'
p1821
NsS'sparteine_hydrochloride__(7r_(7alpha_7aalpha_14alpha_14abeta))_isomer'
p1822
NsS'cobalt_chloride'
p1823
NsS'indoprofen'
p1824
NsS'novo_flutamide'
p1825
NsS'azthreonam'
p1826
NsS'dobutamine_phosphate_(1:1)_salt__(_)_isomer'
p1827
NsS'verteporfin'
p1828
NsS'cortisol_acetate'
p1829
NsS'daunoblastine'
p1830
NsS'gen_buspirone'
p1831
NsS'digoxigenin'
p1832
NsS'methyl_benzethonium_chloride'
p1833
NsS'phorbol_12_myristate_13_acetate_(pma)'
p1834
NsS'ddc_(antiviral)'
p1835
NsS'oleandocetin'
p1836
NsS'ak_con'
p1837
NsS'parnate'
p1838
NsS'stilbene_estrogen'
p1839
NsS'prestwick_857'
p1840
NsS'eti_puren'
p1841
NsS'zardaverine'
p1842
NsS'benzocaine'
p1843
NsS'cjd_fun_4_2'
p1844
NsS'lumicolchicine_gamma'
p1845
NsS'apothioridazine'
p1846
NsS'trimipramine_maleate_(1:1)__(+)_isomer'
p1847
NsS'r(_)_n_allylnorapomorphine'
p1848
NsS'apotrimip'
p1849
NsS'ici_204_448_hydrochloride'
849
NsS'ak_con'
p1850
NsS'parnate'
p1851
NsS'stilbene_estrogen'
p1852
NsS'prestwick_857'
p1853
NsS'eti_puren'
p1854
NsS'zardaverine'
p1855
NsS'benzocaine'
p1856
NsS'cjd_fun_4_2'
p1857
NsS'lumicolchicine_gamma'
p1858
NsS'apothioridazine'
p1859
NsS'trimipramine_maleate_(1:1)__(+)_isomer'
p1860
NsS'piplartine'
p1861
NsS'r(_)_n_allylnorapomorphine'
p1862
NsS'apotrimip'
p1863
NsS'ici_204_448_hydrochloride'
p1864
NsS'cardiomax'
p1865
NsS'clobenpropit_dihydrobromide'
p1866
NsS'ramifenazone'
p1867
NsS'veroshpiron'
p1868
NsS'valdecoxib'
p1869
NsS'isonex'
p1870
NsS'celeston'
p1871
NsS'pulmonal_s'
p1872
NsS'carbenoxolone_disodium_salt'
p1873
NsS'antipyrine'
p1874
NsS'apo_quinidine'
p1875
NsS'verapamil_hydrochloride'
p1876
NsS'gen_gemfibrozil'
p1877
NsS'monohydrobromide__procarbazine'
p1878
NsS'nvp_bgj398'
p1879
NsS'heptaminol'
p1880
NsS'urogesic'
p1881
NsS'2_amino_6_trifluoromethoxybenzothiazole'
p1882
NsS'myosmine'
p1883
NsS'demecolcine'
p1884
NsS'tropicamide'
p1885
NsS'maprotilin_neuraxpharm'
p1886
NsS'clemastine_fumarate'
p1887
NsS'claramid'
p1888
NsS'amiprilose'
p1889
NsS'ceftotan'
p1890
NsS'bendapar'
p1891
NsS'bronchoparat'
p1892
NsS'midodrin'
p1893
NsS'lincomycin_monohydrochloride__hemihydrate'
p1894
NsS'dictamnine'
p1895
NsS'coliriocilina_sulfacetam'
p1896
NsS'estradiol_cypionate'
p1897
NsS'novo_desipramine'
p1898
NsS'bupivacaine_monohydrochloride__monohydrate'
p1899
NsS'rifedot'
p1900
NsS'circo_maren'
p1901
NsS'flucloxacillin_sodium'
p1902
NsS'leucovorin__(d)_isomer'
p1903
NsS'praziquantel__(+_)_isomer'
p1904
NsS'prestwick_920'
p1905
NsS'xamoterol_hemifumarate'
p1906
NsS'cephalexin_hemihydrate'
p1907
NsS'redeptin'
p1908
NsS'solutrast_370'
p1909
NsS'ifenprodil'
p1910
NsS'fludrocortisone'
p1911
NsS'lasalocid_sodium'
p1912
NsS'cyklokapron'
p1913
NsS'apo_flurbiprofen'
p1914
NsS'ladogal'
p1915
NsS'fenretinide'
p1916
NsS'furadonine'
p1917
NsS'ski_ii'
p1918
NsS'sitosterol'
p1919
NsS'levopropoxyphene_2_naphthalenesulfonate_hydrate'
p1920
NsS'n_n_hexamethyleneamiloride'
p1921
NsS'trapidil'
p1922
NsS'deferasirox'
p1923
NsS'cyclophosphamide'
p1924
NsS'rytmo_puren'
p1925
NsS'spectinomycin'
p1926
NsS'aminophenazone'
p1927
NsS'amidal'
p1928
NsS'acetazolam'
p1929
NsS'prepidil_gel'
p1930
NsS'sinapsan'
p1931
NsS'benzethonium_chloride'
p1932
NsS'lysine__tetracycline_l_methylene'
p1933
NsS'nitrofural'
p1934
NsS'cognex'
p1935
NsS'methylstat'
p1936
NsS'cantharidine'
p1937
NsS'prazosin'
p1938
NsS'paraplatin'
p1939
NsS'bayer_2502'
p1940
NsS'quizartinib'
p1941
NsS'parkotil'
p1942
NsS'amikacin'
p1943
NsS'desoxymetasone'
p1944
NsS'vermicol'
p1945
NsS'lasalocid_sodium_salt'
p1946
NsS'leucaenine'
p1947
NsS'triamcinolone_acetonide'
p1948
NsS'doxazosina_ratiopharm'
p1949
NsS'icavex'
p1950
NsS'deferoxamine_methanesulfonate'
p1951
NsS'diphenhydramine_theoclate'
p1952
NsS'piroxicam'
p1953
NsS'propafenone_hydrochloride__(r)_isomer'
p1954
NsS'tacrolimus__anhydrous'
p1955
NsS'dasatinib'
p1956
NsS'spiramycine'
p1957
NsS'benzocaine_hydrobromide'
p1958
NsS'bisoprolol'
p1959
NsS'n_acetyl_l_leucine'
p1960
NsS'carduran_neo'
p1961
NsS'novo_spiroton'
p1962
NsS'sb_269970_hydrochloride'
p1963
NsS'ikaran'
p1964
NsS'depakine'
p1965
NsS'paromomycin_sulfate'
p1966
NsS'hydrochloride__biperiden'
p1967
NsS'albendazole_monohydrochloride'
p1968
NsS'tetryzoline'
p1969
NsS'suxibuzone'
p1970
NsS'galanthamine_hydrobromide'
p1971
NsS'novo_benzydamine'
p1972
NsS'cortril'
p1973
NsS'glafenine'
p1974
NsS'irinotecan'
p1975
NsS'pdgf_receptor_tyrosine_kinase_inhibitor_i'
p1976
NsS'amprolium_chloride'
p1977
NsS'novobiocin'
p1978
NsS'dihydrochloride__pirenzepine'
p1979
NsS'pirenzepine_dihydrochloride'
p1980
NsS'doxorubicin'
p1981
NsS'oxytetracycline__(4a_beta_5_beta_5a_beta_12a_beta)_isomer'
p1982
NsS'eburnamonine_(_)'
p1983
NsS'hydrochlorothiazide'
p1984
NsS'loxapine'
p1985
NsS'nootropil'
p1986
NsS'loperamide_monohydrochloride'
p1987
NsS'doneurin'
p1988
NsS'cefixime'
p1989
NsS'haloperidol'
p1990
NsS'theophylline'
p1991
NsS'robustic_acid'
p1992
NsS'mitoxantrone'
p1993
NsS'azlocillin_sodium'
p1994
NsS'meresa'
p1995
NsS'viomycins'
p1996
NsS'ribamidyl'
p1997
NsS'chlorprothixene_hydrochloride'
p1998
NsS'cloxacillin'
p1999
NsS'vincaleukoblastine'
p2000
NsS'lactate__milrinone'
p2001
NsS'hydralazine'
p2002
NsS'naloxone_hydrochloride_dihydride'
p2003
NsS'acetylsalicylsalicylic_acid'
p2004
NsS'gr_127935_hydrochloride'
p2005
NsS'levodopa'
p2006
NsS'pirenzepin_von_ct'
p2007
NsS'6_thiohypoxanthine'
p2008
NsS'tolmetin_sodium'
p2009
NsS'vicemycetin'
p2010
NsS'sensorcaine'
p2011
NsS'myleran'
p2012
NsS'benzocaine_methanesulfonate'
p2013
NsS'doxylamine'
p2014
NsS'indometacin'
p2015
NsS'pre_084_hydrochloride'
p2016
NsS'desmethylimipramine'
p2017
NsS'dexpak'
p2018
NsS'baclof\xe3\xa8ne_irex'
p2019
NsS'amantadin_al'
p2020
NsS'(+)_chelidonine'
p2021
NsS'sarkolysin'
p2022
NsS'sulfate__colistin'
p2023
NsS'nebicin'
p2024
NsS'acid__retinoic'
p2025
NsS'adaquin'
p2026
NsS'hydrea'
p2027
NsS'paromomycin__beta_d_glucopyranosyl_isomer'
p2028
NsS'veto_centre'
p2029
NsS'gitoxigenin'
p2030
NsS'magnesium__omeprazole'
p2031
NsS'tetracycline'
p2032
NsS'cerebroxine'
p2033
NsS'lobelanidine_hydrochloride'
p2034
NsS'calm_x'
p2035
NsS'16beta_hydroxy_estradiol'
p2036
NsS'cyclodol'
p2037
NsS'isoglaucon'
p2038
NsS'nafcillin'
p2039
NsS'aratac'
p2040
NsS'2_(1_piperazinyl)quinoline'
p2041
NsS'butyl_hydroxybenzoate'
p2042
NsS'arvanil'
p2043
NsS'grisefuline'
p2044
NsS'roche__biotine'
p2045
NsS'nylidrin_hydrochloride'
p2046
NsS'baci_rx'
p2047
NsS'roxigr\xe3\xbcn'
p2048
NsS'delsoline'
p2049
NsS'sinthrome'
p2050
NsS'lonidamine'
p2051
NsS'sertaconazole'
p2052
NsS'beta_phenylethylhydrazine'
p2053
NsS'dihydrochloride__flunarizine'
p2054
NsS'n_lysinomethyltetracycline'
p2055
NsS'monohydrochloride__clindamycin'
p2056
NsS'xamoterol__(s)_isomer'
p2057
NsS'hydrochloride__loxapine'
p2058
NsS'arestin'
p2059
NsS'fna__sulfamethizol'
p2060
NsS'hexamethylquercetagetin'
p2061
NsS'catapres'
p2062
NsS'oxybutynin'
p2063
NsS'ratio_domperidone'
p2064
NsS'bezafisal'
p2065
NsS'etomidate'
p2066
NsS'm_hydroxyphenylpropanolamine'
p2067
NsS'gelfert__biotin'
p2068
NsS'nifurazolidone'
p2069
NsS'rilmenidine_hemifumarate'
p2070
NsS'mycophenolate_sodium'
p2071
NsS'maprotilin_teva'
p2072
NsS'nitrofurantoin'
p2073
NsS'chlortetracycline_sulfate_(1:1)'
p2074
NsS'nafcillin_sodium_salt_monohydrate'
p2075
NsS'sildenafil_citrate'
p2076
NsS'curantyl'
p2077
NsS'ibrutinib'
p2078
NsS'mevinolin'
p2079
NsS'alrheumum'
p2080
NsS'prestwick_664'
p2081
NsS'prestwick_665'
p2082
NsS'fluvoxadura'
p2083
NsS'phenothiazine'
p2084
NsS'piperacetazine'
p2085
NsS'1_aminoadamantane'
p2086
NsS'albenza'
p2087
NsS'inca_6'
p2088
NsS'pizotyline_malate'
p2089
NsS'bosutinib'
p2090
NsS'idoxuridine__123i_labeled'
p2091
NsS'estrone__(8_alpha)_isomer'
p2092
NsS'skf_525a'
p2093
NsS'fasudil'
p2094
NsS'metyrapone'
p2095
NsS'spiradoline'
p2096
NsS'cuxabrain'
p2097
NsS'centyl'
p2098
NsS'metronidazole_monohydrochloride'
p2099
NsS'terguride'
p2100
NsS'terconazole'
p2101
NsS'bd_1047_dihydrobromide'
p2102
NsS'diltiazem_malate'
p2103
NsS'blenoxane'
p2104
NsS'tuberactinomycin_b'
p2105
NsS'valinomycin'
p2106
NsS'carteolol'
p2107
NsS'fotexina'
p2108
NsS'vinblastin_hexal'
p2109
NsS'prolixin'
p2110
NsS'sparteine_monohydroiodide__(7r_(7alpha_7aalpha_14alpha_14abeta))_isomer'
p2111
NsS'5_azacytidine'
p2112
NsS'sodium__dantrolene'
p2113
NsS'sdz_nkt_343'
p2114
NsS'zaprinast'
p2115
NsS'larylin_husten_l\xe3\xb6ser'
p2116
NsS'nicergolin_lindo'
p2117
NsS'sulfacetamide'
p2118
NsS'chelerythrine_chloride'
p2119
NsS'dbl_gemfibrozil'
p2120
NsS'heumann__dimen'
p2121
NsS'moracizine'
p2122
NsS'sericetin_dimethyl_ether'
p2123
NsS'chloride__bethanechol'
p2124
NsS'jutapress'
p2125
NsS'monohydrochloride__xamoterol'
p2126
NsS'progesterone'
p2127
NsS'clozapine'
p2128
NsS'bethanechol_chloride'
p2129
NsS'isocorydine'
p2130
NsS'n_benzylnaltrindole_hydrochloride'
p2131
NsS'morantel_tartrate'
p2132
NsS'blebbistatin'
p2133
NsS'mebeverine'
p2134
NsS'tocainide_monohydrobromide__(r)_isomer'
p2135
NsS're_azo'
p2136
NsS'flusemide'
p2137
NsS'sulphamethoxazole'
p2138
NsS'chemistry_1735'
p2139
NsS'vilona'
p2140
NsS'propitocaine'
p2141
NsS'gastro_entericanis_biocanina'
p2142
NsS'nivalin'
p2143
NsS'gineflavir'
p2144
NsS'sustamycin'
p2145
NsS'remoxipride_monohydrochloride'
p2146
NsS'pyrantel'
p2147
NsS'demeclocycline_hydrochloride'
p2148
NsS'neptal'
p2149
NsS'thioguanin_gsk'
p2150
NsS'hydrochloride__mitoxantrone'
p2151
NsS'corotrope'
p2152
NsS'celestona'
p2153
NsS'pivampicillin_monohydrochloride'
p2154
NsS'guiatuss'
p2155
NsS'nonoxynol_9'
p2156
NsS'zomepirac'
p2157
NsS'16_alpha_hydroxy_estradiol'
p2158
NsS'pmsamantadine'
p2159
NsS'voltaren'
p2160
NsS'tinidazole'
p2161
NsS'quinacrine_monoacetate'
p2162
NsS'monohydrobromide__clonidine'
p2163
NsS'toltrazuril'
p2164
NsS'edisylate_salt__prochlorperazine'
p2165
NsS'garcinol'
p2166
NsS'dilren'
p2167
NsS'von_ct__ergotam'
p2168
NsS'5_alpha_androstan_3_alpha_ol_17_one'
p2169
NsS'bayer_5360'
p2170
NsS'flumetasone'
p2171
NsS'finlepsin'
p2172
NsS'transderm_v'
p2173
NsS'fursultiamin_hydrochloride'
p2174
NsS'vastensium'
p2175
NsS'diaglyk'
p2176
NsS'hydrochloride__buspirone'
p2177
NsS'befibrat'
p2178
NsS'digoxina_boehringer'
p2179
NsS'cinnarizin_siegfried'
p2180
NsS'folvite'
p2181
NsS'pre_par'
p2182
NsS'iopanoic_acid'
p2183
NsS'sulconazole'
p2184
NsS'l\xe3\xbcnopharm__reisetabletten'
p2185
NsS'dinobroxol'
p2186
NsS'apo_mefenamic'
p2187
NsS'pms_buspirone'
p2188
NsS'dapson_fatol'
p2189
NsS'mofetil_hydrochloride__mycophenolate'
p2190
NsS'xanthotoxin'
p2191
NsS'tetrakain'
p2192
NsS'biokur'
p2193
NsS'idoxuridine__131i_labeled'
p2194
NsS'amanta_hci_azu'
p2195
NsS'dextromethorphan_hydrobromide__monohydrate'
p2196
NsS'i_bet151'
p2197
NsS'chlorisept'
p2198
NsS'erythromycin_ethylsuccinate'
p2199
NsS'cyproheptadine'
p2200
NsS'lomerizine_dihcl'
p2201
NsS'mesylate__2_bromoergocryptine'
p2202
NsS'hcl__metformin'
p2203
NsS'(s)_1_((1_1_dimethylethyl)amino)_3_((4_(4_morpholinyl)_1_2_5_thiadazol_3_yl)oxy)_2_propanol'
p2204
NsS'naloxone_hydrochloride'
p2205
NsS'neomycin_e'
p2206
NsS'disulfide__tetraethylthiuram'
p2207
NsS'doxazosina_alter'
p2208
NsS'korinfar'
p2209
NsS'baclospas'
p2210
NsS'cefobid'
p2211
NsS'(_)_jq1'
p2212
NsS'methotrexate__sodium_salt'
p2213
NsS'domperidona_gamir'
p2214
NsS'brd_k93568044_(hydrocortisone)'
p2215
NsS'hydroquinidine'
p2216
NsS'amodiaquine_hydrochloride'
p2217
NsS'bepridil_hydrochloride'
p2218
NsS'ebselen'
p2219
NsS'benzthiazide'
p2220
NsS'eldepryl'
p2221
NsS'glyade'
p2222
NsS'prinivil'
p2223
NsS'w_12__hydrochloride'
p2224
NsS'pentamidine_isethionate'
p2225
NsS'fluta_gry'
p2226
NsS'doxylamine_succinate'
p2227
NsS'aristocort'
p2228
NsS'epicatechin_monogallate'
p2229
NsS'hydrochloride__lisuride'
p2230
NsS'dipropyl_5ct'
p2231
NsS'16alpha_17beta_estriol'
p2232
NsS'hydrochloride__ranitidine'
p2233
NsS'dexamethasone'
p2234
NsS'metformin'
p2235
NsS'4_aminophenazone'
p2236
NsS'3__4__5_7_tetrahydroxy_flavone'
p2237
NsS'pterostilbene'
p2238
NsS'bufalin'
p2239
NsS'vermox'
p2240
NsS'nicergoline'
p2241
NsS'tindurine'
p2242
NsS'xyloneural'
p2243
NsS'thiazolopyrimidine'
p2244
NsS'azu__fenofibrat'
p2245
NsS'tocainide'
p2246
NsS'lullamin'
p2247
NsS'azo_natural'
p2248
NsS'trimipramine_maleate_(1:1)__(_)_isomer'
p2249
NsS'heat_hydrochloride'
p2250
NsS'esculoside'
p2251
NsS'terfedura'
p2252
NsS'betonicine'
p2253
NsS'imidobenzyle'
p2254
NsS'acid__azolinic'
p2255
NsS'arg_csc_91'
p2256
NsS'cordipine'
p2257
NsS'nipecotic_acid'
p2258
NsS'pepstatin_a'
p2259
NsS'regitine'
p2260
NsS'daminozide'
p2261
NsS'sulfamonomethoxine'
p2262
NsS'mucotablin'
p2263
NsS'ranolazine'
p2264
NsS'epirizole'
p2265
NsS'nu_buspirone'
p2266
NsS'ponstan_forte'
p2267
NsS'compound_58'
p2268
NsS'citrate__norflex_orphenadrine'
p2269
NsS'cisaken'
p2270
NsS'flecainide__5_ho_n_(6_oxo)_derivative__(+_)_isomer'
p2271
NsS'd.h.e._45'
p2272
NsS'drogenil'
p2273
NsS'phenergan'
p2274
NsS'pazopanib'
p2275
NsS'bladuril'
p2276
NsS'sulconazole_nitrate'
p2277
NsS'decitabine'
p2278
NsS'dhe_45'
p2279
NsS'breezee'
p2280
NsS'dihydride__naloxone_hydrochloride'
p2281
NsS'mirtazapine'
p2282
NsS'isopromethazine'
p2283
NsS'ursodeoxycholic_acid'
p2284
NsS'noscapine'
p2285
NsS'octadine'
p2286
NsS'ys_035_hydrochloride'
p2287
NsS'methotrimeprazine'
p2288
NsS'alpha_methyl_l_dopa'
p2289
NsS'colo_pleon'
p2290
NsS'b_12__vitamin'
p2291
NsS'sydnopharm'
p2292
NsS'tetrahydroalstonine'
p2293
NsS'oxytetracycline__disodium_salt__dihydrate'
p2294
NsS'cimetidine'
p2295
NsS'bacampicillin_hydrochloride'
p2296
NsS'marcaine'
p2297
NsS'spirono_isis'
p2298
NsS'gant_58'
p2299
NsS'paroxetine_hydrochloride_hemihydrate'
p2300
NsS'bethanechol'
p2301
NsS'ultracef'
p2302
NsS'zantac'
p2303
NsS'linopirdine_dihydrochloride'
p2304
NsS'solasodine'
p2305
NsS'nvp_aew541'
p2306
NsS'carbosin'
p2307
NsS'mapp__d_erythro'
p2308
NsS'itavastatin_ca'
p2309
NsS'mononitrate__rolitetracycline'
p2310
NsS'raubasine'
p2311
NsS'p_butoxyphenylacethydroxamic_acid'
p2312
NsS'thioguanosine'
p2313
NsS'enilconazole'
p2314
NsS'bromocriptine_mesylate'
p2315
NsS'iproniazid'
p2316
NsS'carbazepin'
p2317
NsS'fenformin'
p2318
NsS'analergine'
p2319
NsS'fluvastatin'
p2320
NsS'exemestane'
p2321
NsS'sulfamethizole'
p2322
NsS'sulphadiazine'
p2323
NsS'arachidonyl_trifluoro_methyl_ketone'
p2324
NsS'glycerol_guaiacolate'
p2325
NsS'hydrochloride__nortriptyline'
p2326
NsS'zimeldine'
p2327
NsS'glycopyrronium_bromide'
p2328
NsS'maprotiline'
p2329
NsS'benzbromaron'
p2330
NsS'ginkgolide_a'
p2331
NsS'loxipine_succinate'
p2332
NsS'mycophenolic_acid_morpholinoethyl_ester'
p2333
NsS'nu_trazodone'
p2334
NsS'altretamine'
p2335
NsS'sulfate__chloroquine'
p2336
NsS'ortoton'
p2337
NsS'naftopidil'
p2338
NsS'carbamide__methylergol'
p2339
NsS'pryleugan'
p2340
NsS'rhotrimine'
p2341
NsS'oxolamine'
p2342
NsS'dicloxacillin'
p2343
NsS'naloxon_ratiopharm'
p2344
NsS'altizide'
p2345
NsS'bupropion'
p2346
NsS'enoxin'
p2347
NsS'khingamin'
p2348
NsS'pyracetam'
p2349
NsS'dehidrobenzperidol'
p2350
NsS'terramycin'
p2351
NsS'oxedrine'
p2352
NsS'monohydrochloride__doxazosin'
p2353
NsS'sertraline'
p2354
NsS'acid__all_trans_retinoic'
p2355
NsS'euglucon_5'
p2356
NsS'hexinawas'
p2357
NsS'vupral'
p2358
NsS'ratio_buspirone'
p2359
NsS'progesterone__(13_alpha_17_alpha)_(+_)_isomer'
p2360
NsS'parbendazole'
p2361
NsS'oxpentifylline'
p2362
NsS'levamisole'
p2363
NsS'loxapine_succinate'
p2364
NsS'meclocycline'
p2365
NsS'molsidomin_ratiopharm'
p2366
NsS'n_(4_(4_(2_pyrimidinyl)_1_piperazinyl)butyl)_1_cyclopentanediacetamide'
p2367
NsS'7_chloro_7_deoxylincomycin'
p2368
NsS'lisinopril'
p2369
NsS'kitasamycin_a3'
p2370
NsS'desferioximine'
p2371
NsS'penitrem_a'
p2372
NsS'aracytidine'
p2373
NsS'4_aminoantipyrine'
p2374
NsS'dimetane'
p2375
NsS'ab_piperacillin'
p2376
NsS'raloxifene'
p2377
NsS'kenpaullone'
p2378
NsS'yohimbine'
p2379
NsS'zimelidin'
p2380
NsS'fungicidin'
p2381
NsS'amitriptylin_beta'
p2382
NsS'tocainide_monohydrochloride__(s)_isomer'
p2383
NsS'w_7_hydrochloride'
p2384
NsS'amitriptyline'
p2385
NsS'diclofenac_sodium'
p2386
NsS'ethymal'
p2387
NsS'amodiaquine'
p2388
NsS'dabrafenib'
p2389
NsS'mono_hydrochloride__phentolamine'
p2390
NsS'tracazolate'
p2391
NsS'niclosamide'
p2392
NsS'fenoprain'
p2393
NsS'neratinib'
p2394
NsS'ratio_levobunolol'
p2395
NsS'brd_k37270826_(mifepristone)'
p2396
NsS'atrofen'
p2397
NsS'sertan'
p2398
NsS'noscapine_hydrochloride'
p2399
NsS'aminobenzyl_penicillin'
p2400
NsS'thomasin'
p2401
NsS'biodramina'
p2402
NsS'gemfibrozil__sbpa'
p2403
NsS'disodium__cefotetan'
p2404
NsS'atsefen'
p2405
NsS'dobutamina_inibsa'
p2406
NsS'arthrobid'
p2407
NsS'levomethorphan'
p2408
NsS'sulfacetam__coliriocilina'
p2409
NsS'pms_domperidone'
p2410
NsS'gemfi_1a_pharma'
p2411
NsS'eqvalan'
p2412
NsS'dosulepin'
p2413
NsS'(+)_3_hydroxy_n_methylmorphinan_d_tartrate'
p2414
NsS'dobutamin_ratiopharm'
p2415
NsS'mutamycin'
p2416
NsS'benzocaine_acetate'
p2417
NsS'gen_doxazosin'
p2418
NsS'bay_va_1470'
p2419
NsS'busulphan'
p2420
NsS'primacor'
p2421
NsS'lisuride__(8alpha)_(+_)_isomer'
p2422
NsS'piracetam_rph'
p2423
NsS'cimetidine_hcl'
p2424
NsS'domperidone_maleate'
p2425
NsS'alclometasone'
p2426
NsS'mitoxantrone_hydrochloride'
p2427
NsS'5_chloro_7_iodo_8_quinolinol'
p2428
NsS'sulfachloropyridazine'
p2429
NsS'velnacrine'
p2430
NsS'ratio_doxazosin'
p2431
NsS'bifemelane_hydrochloride'
p2432
NsS'allerdryl'
p2433
NsS'aminosidine'
p2434
NsS'mebhydrolin'
p2435
NsS'paratect'
p2436
NsS'hydrochloride__dobutamine'
p2437
NsS'progynova'
p2438
NsS'diamicron'
p2439
NsS'zinc_salt__tretinoin'
p2440
NsS'amipaque'
p2441
NsS'hycanthone'
p2442
NsS'clofelin'
p2443
NsS'digitoxin'
p2444
NsS'amicar'
p2445
NsS'gbtan'
p2446
NsS'etmozin'
p2447
NsS'diamidine'
p2448
NsS'merbromin'
p2449
NsS'hydrochloride__cefotiam'
p2450
NsS'sertraline_hydrochloride'
p2451
NsS'dolobis'
p2452
NsS'topotecan_hcl'
p2453
NsS'metoclopramide_monohydrochloride'
p2454
NsS'alpha_6_deoxyoxytetracycline'
p2455
NsS'ketorolac'
p2456
NsS'amphocil'
p2457
NsS'co_dergocrine_mesilate'
p2458
NsS'allergan_211'
p2459
NsS'pirinixic_acid'
p2460
NsS'mirena'
p2461
NsS'diuramide'
p2462
NsS'oxetacaine'
p2463
NsS'caproamin'
p2464
NsS'pirenperone'
p2465
NsS'masitinib'
p2466
NsS'3__azido_2__3__dideoxythymidine'
p2467
NsS'mosapride'
p2468
NsS'betahistine_methanesulfonate'
p2469
NsS'homochlorcyclizine_dihydrochloride'
p2470
NsS'infecto_flu'
p2471
NsS'phentolamine_mono_hydrochloride'
p2472
NsS'laxysat_b\xe3\xbcrger'
p2473
NsS'amide__procaine'
p2474
NsS'lin_buspirone'
p2475
NsS'selectomycin'
p2476
NsS'theobid'
p2477
NsS'von_ct__theo'
p2478
NsS'trimethobenzamide'
p2479
NsS'sunitinib'
p2480
NsS'ansaid'
p2481
NsS'pge2alpha'
p2482
NsS'epiandrosterone'
p2483
NsS'chlorhexidine_acetate'
p2484
NsS'nor_qd'
p2485
NsS'von_ct__felodipin'
p2486
NsS'memo_puren'
p2487
NsS'physostigmine'
p2488
NsS'propranolol'
p2489
NsS'dibutyrylcyclic_amp'
p2490
NsS'levcromakalim'
p2491
NsS'olaparib'
p2492
NsS'helveticoside'
p2493
NsS'succinylsulfathiazole'
p2494
NsS'isradipine__(r)_isomer'
p2495
NsS'hydrochloride_anhydrous__remoxipride'
p2496
NsS'bidocef'
p2497
NsS'bamalite'
p2498
NsS'cyclomen'
p2499
NsS'clobetasol'
p2500
NsS'sulfadiazine'
p2501
NsS'zalcitabine'
p2502
NsS'niprina'
p2503
NsS'flagecidin'
p2504
NsS'aureocyclin'
p2505
NsS'nicergobeta'
p2506
NsS'abbott_48999'
p2507
NsS'sebical'
p2508
NsS'amoxicillin_anhydrous'
p2509
NsS'cilpen'
p2510
NsS'nafronyl_oxalate'
p2511
NsS'pertofran'
p2512
NsS'monohydrochloride__fursultiamin'
p2513
NsS'contomin'
p2514
NsS'ramipril'
p2515
NsS'hydrochloride__carticaine'
p2516
NsS'dimen_heumann'
p2517
NsS'cinnarizin_ratiopharm'
p2518
NsS'vitamin_b_1'
p2519
NsS'rhodomyrtoxin'
p2520
NsS'serotonin'
p2521
NsS'pheniramine_bimaleate'
p2522
NsS'danazol'
p2523
NsS'stas_gurgell\xe3\xb6sung_n'
p2524
NsS'famprofazone'
p2525
NsS'florisan_n'
p2526
NsS'regorafenib'
p2527
NsS'theo_dur'
p2528
NsS'apodiflunisal'
p2529
NsS'lapatinib'
p2530
NsS'lynestrenol'
p2531
NsS'4_octopamine'
p2532
NsS'etanidazole'
p2533
NsS'hydrochloride__cyclizine'
p2534
NsS'novo_dipiradol'
p2535
NsS'brainal'
p2536
NsS'pyrenzepine'
p2537
NsS'glibenclamide'
p2538
NsS'maphenid'
p2539
NsS'podofilox'
p2540
NsS'gemfibrozil'
p2541
NsS'calyculin_a'
p2542
NsS'araminol'
p2543
NsS'diatracin'
p2544
NsS'monohydrochloride__quinacrine'
p2545
NsS'fresofol'
p2546
NsS'kemadrin'
p2547
NsS'cordemcura'
p2548
NsS'dihydrexidine_hydrochloride'
p2549
NsS'disoprivan'
p2550
NsS'hydrochloride__metoclopramide'
p2551
NsS'kanesten'
p2552
NsS'indirubin_3_oxime'
p2553
NsS'quinacrine'
p2554
NsS'epsikapron'
p2555
NsS'hydrocortisone_hemisuccinate'
p2556
NsS'sodium_cephazolin'
p2557
NsS'serentil'
p2558
NsS'n_acetylmuramic_acid'
p2559
NsS'skimmianine'
p2560
NsS'ethotoin'
p2561
NsS'etofylline'
p2562
NsS'ajmaline'
p2563
NsS'sodium_naproxenate'
p2564
NsS'hydrastine_(1r__9s)'
p2565
NsS'methyl_ccnu'
p2566
NsS'acyclovir'
p2567
NsS'lymecycline'
p2568
NsS'syncumar'
p2569
NsS'hypnomidate'
p2570
NsS'lemblastine'
p2571
NsS'nifuroxazide'
p2572
NsS'l_741_742_hydrochloride'
p2573
NsS'tolmetin'
p2574
NsS'teva__etoposide'
p2575
NsS'naproxen'
p2576
NsS'gastrozepin'
p2577
NsS'bayotensin'
p2578
NsS'flumequine'
p2579
NsS'isobamate'
p2580
NsS'carbidopa'
p2581
NsS'crizotinib'
p2582
NsS'scriptaid'
p2583
NsS'r(_)_2_10_11_trihydroxyaporphine'
p2584
NsS'pyridiate'
p2585
NsS'triprolidine_hydrochloride'
p2586
NsS'tolbutamide'
p2587
NsS'ouabain'
p2588
NsS'clofen'
p2589
NsS'dactarin'
p2590
NsS'syk_inhibitor'
p2591
NsS'naphthamidopenicillin'
p2592
NsS'aknin_mino'
p2593
NsS'monohydrochloride__albendazole'
p2594
NsS'sulfacetamide_sodic_hydrate'
p2595
NsS'4_homosulfanilamide'
p2596
NsS'naphazoline_monohydrochloride'
p2597
NsS'atractyloside'
p2598
NsS'amdinocillin_pivoxil'
p2599
NsS'cyclosporin_a'
p2600
NsS'biolf_62'
p2601
NsS'tosufloxacin_hydrochloride'
p2602
NsS'trolox_c'
p2603
NsS'estradiol_17_beta'
p2604
NsS'dibenzepine_hydrochloride'
p2605
NsS'hustenl\xe3\xb6ser__therapin'
p2606
NsS'afonilum_retard'
p2607
NsS'hydrochloride__propranolol'
p2608
NsS'calpeptin'
p2609
NsS'4_aminosalicylic_acid'
p2610
NsS'atebrin'
p2611
NsS'nsc_632839_hydrochloride'
p2612
NsS'dobutamine_(+)_isomer'
p2613
NsS'azacyclonol'
p2614
NsS'capsaicine'
p2615
NsS'indomethacin'
p2616
NsS'prostogenat'
p2617
NsS'clofazimine'
p2618
NsS'rhamnetin'
p2619
NsS'bayluscide'
p2620
NsS'ethopropazine_hydrochloride'
p2621
NsS'quinostatin'
p2622
NsS'repaglinide'
p2623
NsS'roxibeta'
p2624
NsS'(_)_gallocatechin_gallate'
p2625
NsS'3_o_hemisuccinate__glycyrrhetinic_acid'
p2626
NsS'lipidil_ter'
p2627
NsS'mead_acid_(20:3_n_9)'
p2628
NsS'juventus__amantadina'
p2629
NsS'capzasin'
p2630
NsS'fursultiamine'
p2631
NsS'benzydamine_hydrochloride'
p2632
NsS'pi_103_hydrochloride'
p2633
NsS'stada__reisetabletten'
p2634
NsS'jak3_inhibitor_i'
p2635
NsS'deposul'
p2636
NsS'ordiflazine'
p2637
NsS'cefamandole'
p2638
NsS'ratio_flurbiprofen'
p2639
NsS'cloxacillin__sodium'
p2640
NsS'carbeneoxolone'
p2641
NsS'dexbrompheniramine'
p2642
NsS'alclometazone_dipropionate'
p2643
NsS'naltrexone_hydrochloride_dihydrate'
p2644
NsS'diclofenac_potassium'
p2645
NsS'chlorprotixen'
p2646
NsS'doxycycline_monohydrate'
p2647
NsS'tridihexethyl_chloride'
p2648
NsS'transderm_scop'
p2649
NsS'onkoposid'
p2650
NsS'aciclovir'
p2651
NsS'cercosporin'
p2652
NsS'iodochloroxyquinoline'
p2653
NsS'3_deoxydenosine'
p2654
NsS'oftan_idu'
p2655
NsS'beclomethasone_dipropionate'
p2656
((F1.0
S'beclomethasone'
p2657
tp2658
S"Suffix-based-exact-matching ('beclomethasone_dipropionate', 'beclomethasone') ('beclomethasone_dipropionate', 'beclomethasone')"
p2659
tp2660
sS't_stat'
p2661
NsS'gossypol_dipotassium_salt'
p2662
NsS'phenylpropanolamine'
p2663
NsS'mtw_molsidomin'
p2664
NsS'digitoxigenin'
p2665
NsS'propoxyphene__(r_(r*_s*))_isomer'
p2666
NsS'oncocarbide'
p2667
NsS'domperidon_teva'
p2668
NsS'natamycin'
p2669
NsS'o_p_ddd'
p2670
NsS'dihexazin'
p2671
NsS'bephenium_hydroxynaphthoate'
p2672
NsS'thioguanine_anhydrous'
p2673
NsS'semustine'
p2674
NsS'levopa'
p2675
NsS'nicergolin_von_ct'
p2676
NsS'cardene'
p2677
NsS'azelastine_hcl'
p2678
NsS'maleate__nomifensine'
p2679
NsS'alw_ii_38_3'
p2680
NsS'copper_sulfate'
p2681
NsS'colcemid'
p2682
NsS'gsk_3b_inhibitor_viii'
p2683
NsS'roxatidine_acetate_hcl'
p2684
NsS'lycoremine'
p2685
NsS'minoxidil'
p2686
NsS'baclof\xe3\xa8neirex'
p2687
NsS'hesperetin_7_rhamnoglucoside'
p2688
NsS'l_dopa'
p2689
NsS'mucofips'
p2690
NsS'roxithro_lich'
p2691
NsS'ketanserin'
p2692
NsS'ergont'
p2693
NsS'hydrochloride__papaverine'
p2694
NsS'benzonatate'
p2695
NsS'acetazine'
p2696
NsS'primperan'
p2697
NsS'sch_39166_hydrobromide'
p2698
NsS'felodipin_ratiopharm'
p2699
NsS'rondual_kinase_inhibitor'
p2700
NsS'heliotrine'
p2701
NsS'procyclid'
p2702
NsS'amikin'
p2703
NsS'desitriptyline'
p2704
NsS'ticlopidine'
p2705
NsS'doxorubicin_hydrochloride'
p2706
NsS'prasterone__3_alpha_isomer'
p2707
NsS'dihydro_7_desacetyldeoxygedunin'
p2708
NsS'harman'
p2709
NsS'cucurbitacin_i'
p2710
NsS'cyclomin'
p2711
NsS'surmontil_maleate'
p2712
NsS'piperacillin_sodium'
p2713
NsS'bleomycin_b2'
p2714
NsS'ametycine'
p2715
NsS'nomegestrol'
p2716
NsS'prenylamine'
p2717
NsS'ketotifen_fumarate'
p2718
NsS'methylandrostenediol'
p2719
NsS'ratio_sulfasalazine'
p2720
NsS'asulfidine'
p2721
NsS'tampovagan'
p2722
NsS'cilostazol'
p2723
NsS'mtw_roxithromycin'
p2724
NsS'dicesium_salt_methotrexate'
p2725
NsS'4_hydroxyphenazone'
p2726
NsS'flutamin'
p2727
NsS'phentolamine'
p2728
NsS'biocarbazine'
p2729
NsS'clomid'
p2730
NsS'bezacur'
p2731
NsS'4_demethoxydaunorubicin_hydrochloride_(65)'
p2732
NsS'cardiorythmine'
p2733
NsS'articaine'
p2734
NsS'neo_naclex'
p2735
NsS'benzbromarone'
p2736
NsS'kaempferol'
p2737
NsS'ampyrone'
p2738
NsS'acid__etacrynic'
p2739
NsS'ferkel_spectam'
p2740
NsS'laxanin'
p2741
NsS'cefepime'
p2742
NsS'monohydrochloride_monohydrate__remoxipride'
p2743
NsS'thymoxamine'
p2744
NsS'nu_baclo'
p2745
NsS'pindione'
p2746
NsS'tiotidine'
p2747
NsS'sinophenin'
p2748
NsS'piracetam'
p2749
NsS'memantine_hydrochloride'
p2750
NsS'nitrate__naphazoline'
p2751
Nmethoxydaunorubicin_hydrochloride_(65)'
p2750
NsS'cardiorythmine'
p2751
NsS'articaine'
p2752
NsS'neo_naclex'
p2753
NsS'benzbromarone'
p2754
NsS'kaempferol'
p2755
NsS'simvastatin'
p2756
NsS'ampyrone'
p2757
NsS'acid__etacrynic'
p2758
NsS'ferkel_spectam'
p2759
NsS'laxanin'
p2760
NsS'cefepime'
p2761
NsS'monohydrochloride_monohydrate__remoxipride'
p2762
NsS'thymoxamine'
p2763
NsS'nu_baclo'
p2764
NsS'pindione'
p2765
NsS'tiotidine'
p2766
NsS'sinophenin'
p2767
NsS'piracetam'
p2768
NsS'memantine_hydrochloride'
p2769
NsS'nitrate__naphazoline'
p2770
NsS'metformin_hcl'
p2771
NsS'thioproperazine'
p2772
NsS'idoxuridine'
p2773
NsS'ondansetron'
p2774
NsS'ratiotrazodone'
p2775
NsS'molsihexal'
p2776
NsS'apocard'
p2777
NsS'wehgen'
p2778
NsS'gelopol'
p2779
NsS'protoveratrine_a'
p2780
NsS'norketamine_hydrochloride'
p2781
NsS'ralenova'
p2782
NsS'oxytetracycline_dihydrate'
p2783
NsS'mtw_fenofibrat'
p2784
NsS'fu_jmbii227b'
p2785
NsS'rectodelt'
p2786
NsS'proscillaridin_a'
p2787
NsS'astemizole'
p2788
NsS'fluken'
p2789
NsS'dihydroergocristine'
p2790
NsS'alpha__prostaglandin_e2'
p2791
NsS'lasalocid'
p2792
NsS'norcyclobenzaprine'
p2793
NsS'corynanthine'
p2794
NsS'fraxidin_methyl_ether'
p2795
NsS'pentoxifylline'
p2796
NsS'bwa509u'
p2797
NsS'rifabutin'
p2798
NsS'gossypol__(+)_isomer'
p2799
NsS'cefotiam'
p2800
NsS'finoptin'
p2801
NsS'lidoflazine'
p2802
NsS'kawain'
p2803
NsS'prostacur'
p2804
NsS'hydroflumethiazide'
p2805
NsS'nu_nortriptyline'
p2806
NsS'doxazosina_combino_pharm'
p2807
NsS'sulf_10'
p2808
NsS'keclor'
p2809
NsS'vitamin_b_12'
p2810
NsS'strefen'
p2811
NsS'permax'
p2812
NsS'alverine'
p2813
NsS'urapidil_hydrochloride'
p2814
NsS'hydrochloride__dothiepin'
p2815
NsS'isoeugenitol'
p2816
NsS'ratio_benzydamine'
p2817
NsS'mexiletine'
p2818
NsS'2_(3_benzoylphenyl)propionic_acid'
p2819
NsS'suloctidil_hydrochloride'
p2820
NsS'hydrochloride__amiloride'
p2821
NsS'orlistat'
p2822
NsS'flupentixol'
p2823
NsS'vancomycine_dakota'
p2824
NsS'cortexone'
p2825
NsS'phenindione'
p2826
NsS'netilmicin_sulfate'
p2827
NsS'dactinomycin'
p2828
NsS'syntomycin'
p2829
NsS'amp__dibutyryl_cyclic'
p2830
NsS'2_4_dideoxy_dc_45_a2'
p2831
NsS'syrosingopine'
p2832
NsS'acrichine'
p2833
NsS'sulphamethoxypyridazine'
p2834
NsS'sporiline'
p2835
NsS'ulgescum'
p2836
NsS'paromomycin'
p2837
NsS'taxifolin_(+/_)'
p2838
NsS'protein_tyrosine_phosphatase_inhibitor_iv'
p2839
NsS'radenarkon'
p2840
NsS'scopolamine_n_oxide'
p2841
NsS'tambocor'
p2842
NsS'morantel'
p2843
NsS's_propranolol'
p2844
NsS'ioversol'
p2845
NsS'vancocin'
p2846
NsS'sulfasalazine'
p2847
NsS'flecadura'
p2848
NsS'tolnaftat_purder_n'
p2849
NsS'tropicamide_monohydrochloride__(s)_isomer'
p2850
NsS'gamma_vinyl_gamma_aminobutyric_acid'
p2851
NsS'etoposide_pierre_fabre'
p2852
NsS'lansoprazole_sodium'
p2853
NsS'theospan'
p2854
NsS'bjm_ctd2_9'
p2855
NsS'estradiol__(9_beta_17_beta)_isomer'
p2856
NsS'bntx_maleate'
p2857
NsS'oxyphenylbutazone'
p2858
NsS'dioxybenzone'
p2859
NsS'fluriproben'
p2860
NsS'helfergin'
p2861
NsS'clomipramine'
p2862
NsS'methanesulfonate__benzocaine'
p2863
NsS'cycloserine'
p2864
NsS'imipenem_anhydrous'
p2865
NsS'benzoxiquine'
p2866
NsS'2_bromoergocryptine_mesylate'
p2867
NsS'nadide'
p2868
NsS'thiozine'
p2869
NsS'nomifensine_maleate_(1:1)'
p2870
NsS'turimycin_a5'
p2871
NsS'caprolest'
p2872
NsS'cymarigenin'
p2873
NsS'antazoline_hydrochloride'
p2874
NsS'resocyanine'
p2875
NsS'bongkrekic_acid'
p2876
NsS'biocisplatinum'
p2877
NsS'sulfamylon'
p2878
NsS'16beta_bromoandrosterone'
p2879
NsS'promethazine'
p2880
NsS'rolitetracycline_nitrate'
p2881
NsS'tropicamide__(r)_isomer'
p2882
NsS'geldanamycin'
p2883
NsS'hexamethylmelamine'
p2884
NsS'ftivazide'
p2885
NsS'quipazine_dimaleate_salt'
p2886
NsS'benzydamine'
p2887
NsS'embeline_e'
p2888
NsS'ortho_para_ddd'
p2889
NsS'hydrochloride__procyclidine'
p2890
NsS'malipuran'
p2891
NsS'pilocarpine_nitrate'
p2892
NsS'timolol_maleate__(1:1)_salt'
p2893
NsS'epivincamine'
p2894
NsS'doxazosin_azu'
p2895
NsS'ceftazidime_pentahydrate'
p2896
NsS'anhydrous__pinacidil'
p2897
NsS'physiomycine'
p2898
NsS'rogitine'
p2899
NsS'embonate__noscapine_hydrogen'
p2900
NsS'stas_hustenl\xe3\xb6ser'
p2901
NsS'17_alpha_ethynyltestosterone'
p2902
NsS'brinzolamide'
p2903
NsS'hesperetin'
p2904
NsS'brd_k67847053_(guanabenz_acetate)'
p2905
NsS'apigenin_triacetate'
p2906
NsS'iso_endoxan'
p2907
NsS'chlorpiprazine'
p2908
NsS'roxithromycin'
p2909
NsS'felo_biochemie'
p2910
NsS'palmatine'
p2911
NsS'flurbiprofen'
p2912
NsS'no\xe3\xa9_socopharm_hydrochloride'
p2913
NsS'minocycline_hydrochloride'
p2914
NsS'amiodarone'
p2915
NsS'bucladesine__barium_(1:1)_salt'
p2916
NsS'hydrochloride__procaine'
p2917
NsS'alfuzosin_hydrochloride'
p2918
NsS'dibutyryl_adenosine_3__5__monophosphate'
p2919
NsS'pentetic_acid'
p2920
NsS'anagrelide_hydrochloride'
p2921
NsS'glycyrrhetinic_acid_3_o_hemisuccinate'
p2922
NsS'methyldopa_(l__)'
p2923
NsS'glidiazinamide'
p2924
NsS'6_ethoxy_2_2_4_trimethyl_1_2_dihydroquinoline'
p2925
NsS'unicordium'
p2926
NsS'memantine'
p2927
NsS'amphotericin_b_colloidal_dispersion'
p2928
NsS'trioxysalen'
p2929
NsS'rausedyl'
p2930
NsS'trifluoperazine_dihydrochloride'
p2931
NsS'bepadin'
p2932
NsS'ethylphenylephrine'
p2933
NsS'ak_zol'
p2934
NsS'maleate__lisuride'
p2935
NsS'desoxycortone'
p2936
NsS'pirenzepine'
p2937
NsS'ipratropium_bromide'
p2938
NsS'vasoconstrictor_pensa'
p2939
NsS'5_thia_1_azabicyclo(4.2.0)oct_2_ene_2_carboxylic_acid__7_((aminophenylacetyl)amino)_3_chloro_8_oxo___(6r_(6alpha_7beta(r*)))_'
p2940
NsS'mercurochrome'
p2941
NsS'ks_r1__antibiotic'
p2942
NsS'v\xe3\xa9p\xe3\xa9side_sandoz'
p2943
NsS'endo_iwr_1'
p2944
NsS'2_phenethylhydrazine'
p2945
NsS'sodium__cefmetazole'
p2946
NsS'obracin'
p2947
NsS'dtic_dome'
p2948
NsS'trimetazidine_dihydrochloride'
p2949
NsS'nausicalm'
p2950
NsS'renitek'
p2951
NsS'7_epi_taxol'
p2952
NsS'compound_64716'
p2953
NsS'diphenylhydramine'
p2954
NsS'2_bromoergocryptine_methanesulfonate'
p2955
NsS'rhizocarpic_acid'
p2956
NsS'kerecide'
p2957
NsS'dorzolamide'
p2958
NsS'phenanthridinone'
p2959
NsS'latamoxef'
p2960
NsS'disodium_salt_bucladesine'
p2961
NsS'ranitidin'
p2962
NsS'demeclocycline__calcium_(1:2)_salt'
p2963
NsS'napsylate_hydrate__levopropoxyphene'
p2964
NsS'sulfaquinoxaline'
p2965
NsS'hydrochloride__betahistine'
p2966
NsS'antimycin_a'
p2967
NsS'apo_trimip'
p2968
NsS'medroxyprogesterone'
p2969
NsS'hydrochloride__proguanil'
p2970
NsS'lithocholic_acid'
p2971
NsS'trioxsalen'
p2972
NsS'amoxycillin'
p2973
NsS'epsilon_aminocaproic_acid'
p2974
NsS'acetazolamide_sodium__(sterile)'
p2975
NsS'er_27319_maleate'
p2976
NsS'canavanine'
p2977
NsS'pr\xe3\xb6caine_chlorhydrate_lavoisier'
p2978
NsS'scopace'
p2979
NsS'bisoprolol__fumarate_(2:1)_salt'
p2980
NsS'ribocarbo'
p2981
NsS'hydroxyzine_pamoate'
p2982
NsS'monohydrochloride__bepridil'
p2983
NsS'etoposide'
p2984
NsS'miconazole_nitrate'
p2985
NsS'tetraverin'
p2986
NsS'azt__antiviral'
p2987
NsS'deoxycorticosterone'
p2988
NsS'novapirina'
p2989
NsS'hydrobromide__dextromethorphan'
p2990
NsS'quipazine_maleate'
p2991
NsS'captopril'
p2992
NsS'penicillin__aminobenzyl'
p2993
NsS'norsynephrine'
p2994
NsS'clindamycin'
p2995
NsS'notezine'
p2996
NsS'necrostatin_1'
p2997
NsS'priscol'
p2998
NsS'monohydrochloride__tiapride'
p2999
NsS'posiject'
p3000
NsS'pipril'
p3001
NsS'lior\xe3\xa9sal'
p3002
NsS'elesclomol'
p3003
NsS'holoxan'
p3004
NsS'gibberellic_acid'
p3005
NsS'remoxipride_monohydrochloride_monohydrate'
p3006
NsS'6_methylprednisolone'
p3007
NsS'trihexane'
p3008
NsS'vepesid'
p3009
NsS'telenzepine'
p3010
NsS'flumid'
p3011
NsS'betahistin_ratiopharm'
p3012
NsS'dynacirc'
p3013
NsS'sotalol_hydrochloride'
p3014
NsS'isovue'
p3015
NsS'mephentermine'
p3016
NsS'vitamin_d2'
p3017
NsS'strophanthidin'
p3018
NsS'aldomet'
p3019
NsS'prospec'
p3020
NsS'diclofenac'
p3021
NsS'nitrendipin_ratiopharm'
p3022
NsS'disodium__ticarcillin'
p3023
NsS'primafen'
p3024
NsS'cetamide'
p3025
NsS'n(6)_0(2_)_dibutyryl_cyclic_amp'
p3026
NsS'molindone'
p3027
NsS'tantum_topico'
p3028
NsS'viomycin'
p3029
NsS'periplocymarin'
p3030
NsS'gastrocure'
p3031
NsS'jutanorm'
p3032
NsS'nilotinib'
p3033
NsS'ethosuximide'
p3034
NsS'nitrofurantoin__monohydrate'
p3035
NsS'mepenzolate_bromide'
p3036
NsS'pyknolepsinum'
p3037
NsS'dopamet'
p3038
NsS'ciprofloxacin'
p3039
NsS'n_formimidoylthienamycin'
p3040
NsS'nudiflunisal'
p3041
NsS'sulmazole'
p3042
NsS'paroxetine_hydrochloride'
p3043
NsS'estreptomicina_normon'
p3044
NsS'tiratricol'
p3045
NsS'anisomycin'
p3046
NsS'methyltestosterone'
p3047
NsS'flavoxate'
p3048
NsS'cyclophosphamide__(s)_isomer'
p3049
NsS'isocarboxazid'
p3050
NsS'buspar'
p3051
NsS'omdm_2'
p3052
NsS'ciclacillin'
p3053
NsS'flavoxate_hydrochloride'
p3054
NsS'sotalol'
p3055
NsS'fenoprofen'
p3056
NsS'clofarabine'
p3057
NsS'acetylsalicylic_acid'
p3058
NsS'by_vertin'
p3059
NsS'cyanocobalamin'
p3060
NsS'vibra_tabs'
p3061
NsS'15_delta_prostaglandin_j2'
p3062
NsS'apatef'
p3063
NsS'cefaclor'
p3064
NsS'vincimax'
p3065
NsS'tibolone'
p3066
NsS'corbionax'
p3067
NsS'nisoldipine'
p3068
NsS'diphenhydramine_citrate'
p3069
NsS'panasol'
p3070
NsS'everolimus'
p3071
NsS'zm_39923_hydrochloride'
p3072
NsS'ca_074_me'
p3073
NsS'bepridil'
p3074
NsS'brd_k87343924_(wortmannin)'
p3075
NsS'apo_acetazolamide'
p3076
NsS'3_methyladenine'
p3077
NsS'carmustine'
p3078
NsS'apomorphine_chloride'
p3079
NsS'phenylindanedione'
p3080
NsS'narcotine'
p3081
NsS'propaphenin'
p3082
NsS'1_2_3_4_tetrahydroaminoacridine'
p3083
NsS'scopolamine'
p3084
NsS'ct_incb'
p3085
NsS'ceporexine'
p3086
NsS'gen_trazodone'
p3087
NsS'hydrobromide__benzocaine'
p3088
NsS'tryptizol'
p3089
NsS'naturetin'
p3090
NsS'doxazosin_stada'
p3091
NsS'hydrochloride__clindamycin'
p3092
NsS'penfluridol'
p3093
NsS'luteolin'
p3094
NsS'aminohippuric_acid'
p3095
NsS'(_)_catechin'
p3096
NsS'paclitaxel__(4_alpha)_isomer'
p3097
NsS'carboptic'
p3098
NsS'ocu_tropic'
p3099
NsS'cefotaxim'
p3100
NsS'planipart'
p3101
NsS'apoacebutolol'
p3102
NsS'dauno_rubidomycine'
p3103
NsS'flecainide_monoacetate__(s)_isomer'
p3104
NsS'lidocaine_hydrochloride'
p3105
NsS'flavokawain_b'
p3106
NsS'propeshia'
p3107
NsS'nocodazole'
p3108
NsS'sulphacetamide'
p3109
NsS'profenamine'
p3110
NsS'pyrithyldione'
p3111
NsS'chloromycetin'
p3112
NsS'opipramol_dihydrochloride'
p3113
NsS'chloropyrazine'
p3114
NsS'amiodarex'
p3115
NsS'nitrendepat'
p3116
NsS'diethylcarbamazine_citrate_(1:2)'
p3117
NsS'trimipramine__(_)_isomer'
p3118
NsS'monensin_a_sodium_complex'
p3119
NsS'artane'
p3120
NsS'pivamdinocillin'
p3121
NsS'methylergometrine'
p3122
NsS'scillarenin_rhamnoside'
p3123
NsS'linsitinib'
p3124
NsS'viocin'
p3125
NsS'cinarizina_inkey'
p3126
NsS'idoxuridine__radical_ion_(1_)'
p3127
NsS'etacrynic_acid'
p3128
NsS'boro_scopol'
p3129
NsS'tomoxetine_hydrochloride'
p3130
NsS'azaperone'
p3131
NsS'dizocilpine'
p3132
NsS'corticosterone'
p3133
NsS'paralergin'
p3134
NsS'hippophaine'
p3135
NsS'15(s)_15_methylprostaglandin_e2'
p3136
NsS'tropicamide_monofree'
p3137
NsS'2_6_dichlorobenzylideneaminoguanidine'
p3138
NsS'estrovarin'
p3139
NsS'zyntabac'
p3140
NsS'alonga__astemizol'
p3141
NsS'hydrochloride__mianserin'
p3142
NsS'ticarcillin_disodium'
p3143
NsS'trom__amiduret'
p3144
NsS'mycophenolate_mofetil'
p3145
NsS'pms_gemfibrozil'
p3146
NsS'dimetabs'
p3147
NsS'nortrilen'
p3148
NsS'131i_labeled_idoxuridine'
p3149
NsS'selexid'
p3150
NsS'ansatipine'
p3151
NsS'4_aminobenzoic_acid_ethyl_ester'
p3152
NsS'amikason_s'
p3153
NsS'amuvatinib'
p3154
NsS'sulfoxyphenylpyrazolidin'
p3155
NsS'moricizine'
p3156
NsS'propafenone_hydrochloride'
p3157
NsS'testoderm'
p3158
NsS'flecatab'
p3159
NsS'mianserin_hydrochloride'
p3160
NsS'zabien'
p3161
NsS'tetracyclinemethylene_lysine'
p3162
NsS'sb_200646_hydrochloride'
p3163
NsS'1_butyl_n_(2_6_dimethylphenyl)_2_piperidinecarboxamide'
p3164
NsS'azacytidine_5'
p3165
NsS'rottlerin'
p3166
NsS'tolazoline'
p3167
NsS'paroxetine'
p3168
NsS'ludiomil'
p3169
NsS'parafon'
p3170
NsS'celiomycin'
p3171
NsS'naproxenate__sodium'
p3172
NsS'11_epicortisol'
p3173
NsS'ramodar'
p3174
NsS'isobarin'
p3175
NsS'lobendazole'
p3176
NsS'dhe_ratiopharm'
p3177
NsS'tolvon'
p3178
NsS'pyridoxin'
p3179
NsS'domperidon'
p3180
NsS'l_norgestrel'
p3181
NsS'tacrolimus'
p3182
NsS'altanserin_hydrochloride'
p3183
NsS'anhydrous__thioguanine'
p3184
NsS'dau_5884_hydrochloride'
p3185
NsS'biogastrone'
p3186
NsS'flunixin'
p3187
NsS'keoxifene'
p3188
NsS'ajmaline_hydrochloride'
p3189
NsS'lansoprazole'
p3190
NsS'melopat'
p3191
NsS'omeprazole_sodium'
p3192
NsS'1_amino_3_5_dimethyladamantane'
p3193
NsS'triftazin'
p3194
NsS'cerucal'
p3195
NsS'zm_306416_hydrochloride'
p3196
NsS'spectam'
p3197
NsS'torasemide'
p3198
NsS'kerlone'
p3199
NsS'clobetasol_propionate'
p3200
NsS'levobunolol'
p3201
NsS'niopam'
p3202
NsS'estradiol_hemihydrate'
p3203
NsS'pilocarpine'
p3204
NsS'sulfaguanidine'
p3205
NsS'dentomycin'
p3206
NsS'miglitol'
p3207
NsS'ikk_16'
p3208
NsS'naphcon_forte'
p3209
NsS'hermes__myo'
p3210
NsS'torental'
p3211
NsS'angionorm'
p3212
NsS'ritodrine_hydrochloride'
p3213
NsS'ethacrynic_acid'
p3214
NsS'thiothixene'
p3215
NsS'niguldipine_hydrochloride'
p3216
NsS'toprol_xl'
p3217
NsS'9_beta_d_arabinofuranosyladenine'
p3218
NsS'estraderm_tts'
p3219
NsS'metronidazole_phosphoester'
p3220
NsS'phenformin_hydrochloride'
p3221
NsS'von_ct__nicergolin'
p3222
NsS'thapsigargin'
p3223
NsS'bd_1063_dihydrochloride'
p3224
NsS'lovastatin'
p3225
NsS'hexylcaine'
p3226
NsS'heumann__fenofibrat'
p3227
NsS'azufibrat'
p3228
NsS'novoacebutolol'
p3229
NsS'mepirizole'
p3230
NsS'zidovudine'
p3231
NsS'brompheniramine_maleate'
p3232
NsS'nutlin_3'
p3233
NsS'iopamidol'
p3234
NsS'maleate__loxipine'
p3235
NsS'stugeron'
p3236
NsS'dcebio'
p3237
NsS'proadifen_hydrochloride'
p3238
NsS'prostaglandin_e2'
p3239
NsS'methapyrilene_hydrochloride'
p3240
NsS'orthophen'
p3241
NsS'bespar'
p3242
NsS'indapamide'
p3243
NsS'dinoprost'
p3244
NsS'flucytosine'
p3245
NsS'acetylbenzoyl_aconine'
p3246
NsS'cgs_21680_hydrochloride'
p3247
NsS'dihydroergocristine_monomesylate'
p3248
NsS'triciribine'
p3249
NsS'estrofan'
p3250
NsS'pik_93'
p3251
NsS'nicerium'
p3252
NsS'bufexamac'
p3253
NsS'amiloberag'
p3254
NsS'dextrosulfenidol'
p3255
NsS'dolo_visano_m'
p3256
NsS'penbutolol_sulfate_(2:1)'
p3257
NsS'sulfamethoxazole'
p3258
NsS'chlorhexidine'
p3259
NsS'bleomycins'
p3260
NsS'xylocaine'
p3261
NsS'ocu_tracin'
p3262
NsS'progandol_neo'
p3263
NsS'nimergoline'
p3264
NsS'selegiline'
p3265
NsS'capronor'
p3266
NsS'apo_trifluoperazine'
p3267
NsS'banisterine'
p3268
NsS'anti_worm'
p3269
NsS'oxytetracycline__anhydrous'
p3270
NsS'probecid'
p3271
NsS'guanfacine'
p3272
NsS'cephamezine'
p3273
NsS'brivanib'
p3274
NsS'prednison_acsis'
p3275
NsS'nafcillin_sodium'
p3276
NsS'deferrioxamine_b'
p3277
NsS'mediamix_v_disthelm'
p3278
NsS'pipemidic_acid'
p3279
NsS'carbamazepine_anhydrous'
p3280
NsS'fluoxetine'
p3281
NsS'nalidixic_acid'
p3282
NsS'terfenadin_ratiopharm'
p3283
NsS'auranofin'
p3284
NsS'acid__ascorbic'
p3285
NsS'hydrogen_embonate__noscapine'
p3286
NsS'xylazine_phosphate_(1:1)'
p3287
NsS'trifluoroperazine'
p3288
NsS'antaxone'
p3289
NsS'm\xe3\xa9ladinine'
p3290
NsS'az_threonam'
p3291
NsS'arachidonamide'
p3292
NsS'apolevobunolol'
p3293
NsS'2_deoxy_2_((methylnitrosoamino)carbonyl)amino_d_glucose'
p3294
NsS'hydopa'
p3295
NsS'hydroxynaphthoquinone_566c80'
p3296
NsS'racecadotril'
p3297
NsS'diclophenac'
p3298
NsS'n_cyano_n__methyl_n___(2_(((5_methyl_1h_imidazol_4_yl)methyl)thio)ethyl)guanidine'
p3299
NsS'rofecoxib'
p3300
NsS'cyclosporine'
p3301
NsS'hyoscyamine_hydrochloride'
p3302
NsS'curasan__piperacillin'
p3303
NsS'esidrex'
p3304
NsS'9_alpha_fluorohydrocortisone'
p3305
NsS'sibutramine_hcl'
p3306
NsS'cisapride'
p3307
NsS'dinoprostone'
p3308
NsS'decaris'
p3309
NsS'diphenylcyclopropenone'
p3310
NsS'amitriptylin_neuraxpharm'
p3311
NsS'podophyllotoxin__(5r_(5_alpha_5a_alpha_8a_alpha_9_beta))_isomer'
p3312
NsS'fortum'
p3313
NsS'iopamidol__(r)_isomer'
p3314
NsS'herniarin'
p3315
NsS'prikkelhoest__librochin'
p3316
NsS'acacetin'
p3317
NsS'mecloprodin'
p3318
NsS'perhexiline'
p3319
NsS'diacarb'
p3320
NsS'piromidic_acid'
p3321
NsS'n__o__dibutyryl_camp'
p3322
NsS'novaldex'
p3323
NsS'winpred'
p3324
NsS'estradiol__(17_alpha)_isomer'
p3325
NsS'clorsulon'
p3326
NsS'somophyllin_t'
p3327
NsS'rauwolscine'
p3328
NsS'ikk_3_inhibitor_ix'
p3329
NsS'achromycin'
p3330
NsS'remoxipride'
p3331
NsS'quibron_tsr'
p3332
NsS'calcium_folinate'
p3333
NsS'levopropoxyphene'
p3334
NsS'lastet'
p3335
NsS'quinacrine_dihydrochloride_dihydrate'
p3336
NsS'primacin'
p3337
NsS'c\xe3\xa9fobis'
p3338
NsS'rimetin'
p3339
NsS'jnj_10191584_maleate'
p3340
NsS'folic_acid__potassium_salt'
p3341
NsS'metanephrine'
p3342
NsS'dienestrol__(e_e)_isomer'
p3343
NsS'gascop'
p3344
NsS'diaphenylsulfone'
S'flecainide_acetate'
p3345
NsS'erastin'
p3346
NsS'propantheline_bromide'
p3347
NsS'mydral'
p3348
NsS'noroxin'
p3349
NsS'clopenthixol'
p3350
NsS'ratio_desipramine'
p3351
NsS'exisulind'
p3352
NsS'mefloquine_hydrochloride'
p3353
NsS'hexigel'
p3354
NsS'robaxin'
p3355
NsS'isotretinoin'
p3356
NsS'frusemide'
p3357
NsS'methyldiphenylhydramine'
p3358
NsS'cetirigamma'
p3359
NsS'meropenem'
p3360
NsS'nafadotride'
p3361
NsS'bendroflumethiazide'
p3362
NsS'mifepristone'
p3363
NsS'colisticin'
p3364
NsS'doxepin_hydrochloride__cis_trans_isomer_mixture_(approximately_1:5)'
p3365
NsS'methanesulphonate__betahistine'
p3366
NsS'gramaxin'
p3367
NsS'mesylate__gabexate'
p3368
NsS'dl_pdmp'
p3369
NsS'cefapirin'
p3370
NsS'tyloxapol'
p3371
NsS'nimodipino_bayvit'
p3372
NsS'sulpiride'
p3373
NsS'mendiaxon'
p3374
NsS'hinokitiol'
p3375
NsS'guanfacine_hydrochloride'
p3376
NsS'methbipyranone'
p3377
NsS'neo_thyreostat'
p3378
NsS'nativelle__digoxine'
p3379
NsS'thiocolchicoside'
p3380
NsS'desferrioxamine_b'
p3381
NsS'bucladesine'
p3382
NsS'daunomycin'
p3383
NsS'froben'
p3384
NsS'norethynodrel'
p3385
NsS'thiamine'
p3386
NsS'antabus'
p3387
NsS'dl_thiorphan'
p3388
NsS'gliquidone'
p3389
NsS'coly_mycin'
p3390
NsS'chlortetracycline__calcium_salt'
p3391
NsS'puromycin_hydrochloride'
p3392
NsS'lucenfal'
p3393
NsS'trimipramine'
p3394
NsS'isonicotinic_acid_vanillylidenehydrazide'
p3395
NsS'crotamiton'
p3396
NsS'normodyne'
p3397
NsS'nimodipin_isis'
p3398
NsS'chloride__amprolium'
p3399
NsS'apo_thioridazine'
p3400
NsS'prothazin'
p3401
NsS'dibenyline'
p3402
NsS'pkcbeta_inhibitor'
p3403
NsS'motion_aid'
p3404
NsS'ceftazidime'
p3405
NsS'tocainide__(s)_isomer'
p3406
NsS'dicyclomine_hydrochloride'
p3407
NsS'tranexamic_acid'
p3408
NsS'atropine_sulfate__3(s)_endo_isomer'
p3409
NsS'ethisterone'
p3410
NsS'nimodipine'
p3411
NsS'(s)_1_(3_mercapto_2_methyl_1_oxopropyl)_l_proline'
p3412
NsS'trecator_sc'
p3413
NsS'chloroquine'
p3414
NsS'urocarb'
p3415
NsS'demeclocycline'
p3416
NsS'cinobac'
p3417
NsS'cortancyl'
p3418
NsS'ceti_tad'
p3419
NsS'prevacid'
p3420
NsS'pregneninolone'
p3421
NsS'4_(bis(2_chloroethyl)amino)benzenebutanoic_acid'
p3422
NsS'ganciclovir'
p3423
NsS'hydrochloride__daunorubicin'
p3424
NsS'indatraline'
p3425
NsS'eureceptor'
p3426
NsS'benzbromaron_ratiopharm'
p3427
NsS'jak3_inhibitor_v'
p3428
NsS'syn\xe3\xa9dil'
p3429
NsS'disipal'
p3430
NsS'novo_trazodone'
p3431
NsS'bepridil_monohydrochloride'
p3432
NsS'doxacor'
p3433
NsS'bupivacaine_carbonate'
p3434
NsS'mafenide_acetate'
p3435
NsS'lopressor'
p3436
NsS'methacholine_chloride'
p3437
((F1.0
S'methacholine'
p3438
tp3439
S"Suffix-based-exact-matching ('methacholine chloride', 'methacholine') ('methacholine_chloride', 'methacholine')"
p3440
tp3441
sS'nalidixin'
p3442
NsS'fml_liquifilm'
p3443
NsS'pivampicillin'
p3444
NsS'apo_bisacodyl'
p3445
NsS'chelidonine_(+)'
p3446
NsS'procyclidine'
p3447
NsS'nilstat'
p3448
NsS'nystatin_a2'
p3449
NsS'fti_276_trifluoroacetate'
p3450
NsS'1_2_dihydro_6_ethoxy_2_2_4_trimethylquinoline'
p3451
NsS'maleate__acepromazine'
p3452
NsS'estra_1_3_5(10)_triene_3_16beta_17beta_triol'
p3453
NsS'prostaglandin_e2alpha'
p3454
NsS'chloroguanide_hydrochloride'
p3455
NsS'mifegyne'
p3456
NsS'nubain'
p3457
NsS'doxazosin_findusfit'
p3458
NsS'camptothecin'
p3459
NsS'amoxapine'
p3460
NsS'farmiblastina'
p3461
NsS'levopropoxyphene_napsylate_hydrate'
p3462
NsS'embelin'
p3463
NsS'tonzonium_bromide'
p3464
NsS'minomycin'
p3465
NsS'amyleine_hydrochloride'
p3466
NsS'chlormezanone'
p3467
NsS'brimonidine'
p3468
NsS'vanillylidenehydrazide__isonicotinic_acid'
p3469
NsS'iodophenpropit_dihydrobromide'
p3470
NsS'alpha_yohimbine'
p3471
NsS'nvp_bgt226'
p3472
NsS'thioridazine_hydrochloride'
p3473
NsS'prestwick_1103'
p3474
NsS'doxorubicin_nc'
p3475
NsS'thiethylperazine_malate'
p3476
NsS'tritace'
p3477
NsS'tretinoin_sodium_salt'
p3478
NsS'bishydroxycoumarin'
p3479
NsS'hydrochloride__chlorhexidine'
p3480
NsS'3_alpha_hydroxy_5_alpha_androstan_17_one'
p3481
NsS'chinoform'
p3482
NsS'aphrodine_hydrochloride'
p3483
NsS'tetraethylenepentamine'
p3484
NsS'ramace'
p3485
NsS'nitre_puren'
p3486
NsS'biperiden_hydrochloride'
p3487
NsS'diloxanide'
p3488
NsS'ketoconazole'
p3489
NsS'meprylcaine'
p3490
NsS'estradiol__(8_alpha_17_beta)_isomer'
p3491
NsS'prestwick_1100'
p3492
NsS'soprodol'
p3493
NsS'lactate__erythromycin'
p3494
NsS'lumicolchicine'
p3495
NsS'proxymetacaine'
p3496
NsS'chlorogenic_acid'
p3497
NsS'paroxetine__cis_(+)_isomer'
p3498
NsS'sulfate__bleomycin'
p3499
NsS'monaspor'
p3500
NsS'hydroxyachillin'
p3501
NsS'trimineurin_maleate'
p3502
NsS'tamoxifen__4_hydroxy___(z)_'
p3503
NsS'estrone'
p3504
NsS'6_propyl_2_thiouracil'
p3505
NsS'doramapimod'
p3506
NsS'magnesium_valproate'
p3507
NsS'isofosfamide'
p3508
NsS'heumann__molsidomin'
p3509
NsS'calcipotriene'
p3510
NsS'catapresan'
p3511
NsS'hydrochloride__lymecycline'
p3512
NsS'3h_pyrido(3_4_b)indole__4_9_dihydro_7_methoxy_1_methyl_'
p3513
NsS'awd__baclofen'
p3514
NsS'cgp_54626_hydrochloride'
p3515
NsS'nefopam_hydrochloride'
p3516
NsS'sorafenib'
p3517
NsS'oxymetazoline'
p3518
NsS'5_formyltetrahydropteroylglutamate'
p3519
NsS'procanbid'
p3520
NsS'gerokit'
p3521
NsS'phenazo'
p3522
NsS'akt_inhibitor_iv'
p3523
NsS'novo_nortriptyline'
p3524
NsS'hdac6_inhibitor_isox'
p3525
NsS'cefuroxime'
p3526
NsS'mtw_doxazosin'
p3527
NsS'ethosuccimid'
p3528
NsS'todralazine'
p3529
NsS'maprotiline_mesylate'
p3530
NsS'nitrendipin_atid'
p3531
NsS'angiogenesis_inhibitor'
p3532
NsS'dexverapamil'
p3533
NsS'idoxuridine__3h_labeled'
p3534
NsS'gabexate_monomethanesulfonate__14c_labeled_cpd'
p3535
NsS'metoprolol_cr_xl'
p3536
NsS'sodium__cefotaxime'
p3537
NsS'papaverine'
p3538
NsS'nvp_auy922'
p3539
NsS'prestwick_972'
p3540
NsS'monohydrochloride__minocycline'
p3541
NsS'thiostrepton'
p3542
NsS'procytox'
p3543
NsS'clomiphene_citrate_(z_e)'
p3544
NsS'bimaleate__pheniramine'
p3545
NsS'ipecine'
p3546
NsS'panacur'
p3547
NsS'isoflupredone_acetate'
p3548
NsS'6_bromoindirubin_3__oxime'
p3549
NsS'noretynodrel'
p3550
NsS'sant_1'
p3551
NsS'ketoprofen'
p3552
NsS'digoxin'
p3553
NsS'lincil'
p3554
NsS'rovamycine'
p3555
NsS'fluvoxamina_geminis'
p3556
NsS'roscovitine'
p3557
NsS'abbott_46811'
p3558
NsS'drofenine'
p3559
NsS'florfenicol'
p3560
NsS'cobalamins'
p3561
NsS'arminol'
p3562
NsS'amizepine'
p3563
NsS'perhexilene'
p3564
NsS'vasoxin'
p3565
NsS'albalon'
p3566
NsS'hydrastine_hydrochloride'
p3567
NsS'2_6_bis(1_methylethyl)phenol'
p3568
NsS'monomesylate__dihydroergocristine'
p3569
NsS'wellvone'
p3570
NsS'chemistry_2804'
p3571
NsS'5_androsten_3_ol_17_one'
p3572
NsS'abbott48999'
p3573
NsS'busulfan_wellcome'
p3574
NsS'mitocin_c'
p3575
NsS'arabinofuranosyladenine'
p3576
NsS'clopamide'
p3577
NsS'novantrone'
p3578
NsS'piceatannol'
p3579
NsS'mibefradil_dihydrochloride'
p3580
NsS'vascard'
p3581
NsS'prednisolone_acetate'
p3582
((F1.0
S'prednisolone'
p3583
tp3584
S"Suffix-based-exact-matching ('prednisolone_acetate', 'prednisolone') ('prednisolone_acetate', 'prednisolone')"
p3585
tp3586
sS'stelazine'
p3587
NsS'fali_cor'
p3588
NsS'vanoxerine'
p3589
NsS'123i_labeled_idoxuridine'
p3590
NsS'melphalan'
p3591
NsS'meteneprost'
p3592
NsS'etynodiol'
p3593
NsS'naringenin'
p3594
NsS'dextromethorphan'
p3595
NsS'cromoglicic_acid'
p3596
NsS'mitomycin'
p3597
NsS'nordihydroguaiaretic_acid'
p3598
NsS'pluriviron'
p3599
NsS'dipropyl_acetate'
p3600
NsS'metaraminol_bitartrate'
p3601
NsS'anapriline'
p3602
NsS'pracinostat'
p3603
NsS'phensuximide'
p3604
NsS'phenazopyridine'
p3605
NsS'chlormethazanone'
p3606
NsS'eglonyl'
p3607
NsS'difril'
p3608
NsS'zeba_rx'
p3609
NsS'mitroxone'
p3610
NsS'dehydroisoandosterone_3_acetate'
p3611
NsS'trivazol'
p3612
NsS'histapyridamine'
p3613
NsS'etodolac__(+_)_isomer'
p3614
NsS'apramycin'
p3615
NsS'estradiol_benzoate'
p3616
NsS'dobutamine_hydrochloride'
p3617
NsS'wehamine'
p3618
NsS'mesoridazine'
p3619
NsS'cyclo_[arg_gly_asp_d_phe_val]'
p3620
NsS'methoxy_6_harmalan'
p3621
NsS'tolnaftate'
p3622
NsS'seroxat'
p3623
NsS'flunarizine'
p3624
NsS'estradiol__sodium_salt'
p3625
NsS'urinorm'
p3626
NsS'proglumide'
p3627
NsS'minocycline'
p3628
NsS'devazepide'
p3629
NsS'tizanidine_hcl'
p3630
NsS'procain_jenapharm'
p3631
NsS'niridazole'
p3632
NsS'artesunate'
p3633
NsS'paroxetine_acetate'
p3634
NsS'orabet'
p3635
NsS'remoxipride_hydrochloride_anhydrous'
p3636
NsS'cefoxitin'
p3637
NsS'bo2_(inhibits_rad51)'
p3638
NsS'natulan'
p3639
NsS'nu_desipramine'
p3640
NsS'dl_ppmp'
p3641
NsS'dimethylguanylguanidine'
p3642
NsS'nitren_1a_pharma'
p3643
NsS'distilb\xe3\xa8ne'
p3644
NsS'fanasil'
p3645
NsS'anturane'
p3646
NsS'biocoryl'
p3647
NsS'amikafur'
p3648
NsS'cladribine'
p3649
NsS'tofranil'
p3650
NsS'metaradrin'
p3651
NsS'imidazole_carboxamide__dimethyl'
p3652
NsS'amantadin_ratiopharm'
p3653
NsS'depudecin'
p3654
NsS'spironolactone'
p3655
NsS'sun_benz'
p3656
NsS'nelfinavir'
p3657
NsS'constant_t'
p3658
NsS'adipiodone'
p3659
NsS'syncoumar'
p3660
NsS'testosterone'
p3661
NsS'lofibra'
p3662
NsS'topicycline'
p3663
NsS'trimipramine_maleate'
p3664
NsS'cytosar_u'
p3665
NsS'thenylpyramine'
p3666
NsS'quinisocaine'
p3667
NsS'apo_labetalol'
p3668
NsS'zirtek'
p3669
NsS'canertinib'
p3670
NsS'felogamma'
p3671
NsS's(_)_timolol'
p3672
NsS'rocilinostat'
p3673
NsS'brd_k91509126_(piceatannol)'
p3674
NsS'dumirox'
p3675
NsS'norgestrel'
p3676
NsS'asendis'
p3677
NsS'ciglitazone'
p3678
NsS'ciba_32.644_ba'
p3679
NsS'traziquantel'
p3680
NsS'wyeth_ayerst_of_guanabenz_acetate'
p3681
NsS'viridal'
p3682
NsS'azlocillin'
p3683
NsS'chlormadinone_acetate'
p3684
NsS'azathioprine_sodium_salt'
p3685
NsS'bw_b70c'
p3686
NsS'mesylate__deferoxamine'
p3687
NsS'brompheniramine'
p3688
NsS'bromocryptin'
p3689
NsS'metaclopramide'
p3690
NsS'decaspray'
p3691
NsS'dobutamine'
p3692
NsS'pilocarpine_hydrochloride'
p3693
NsS'tavist'
p3694
NsS'disopyramide_phosphate'
p3695
NsS'methoxamedrin'
p3696
NsS'sodium__lansoprazole'
p3697
NsS'imidurea'
p3698
NsS'ethaverine'
p3699
NsS'phenethylhydrazine'
p3700
NsS'lamprene'
p3701
NsS'mantadix'
p3702
NsS'prednisolone_hemisuccinate'
p3703
NsS'phenazone'
p3704
NsS'piperacillin_fresenius'
p3705
NsS'21_hydroxy_4_pregnene_3_20_dione'
p3706
NsS'e6_berbamine'
p3707
NsS'6_azathymine'
p3708
NsS'6_mercaptopurine_monohydrate'
p3709
NsS'mimosine'
p3710
NsS'adenosine_phosphate'
p3711
((F1.0
S'adenosine'
p3712
tp3713
S"Suffix-based-exact-matching ('adenosine_phosphate', 'adenosine') ('adenosine_phosphate', 'adenosine')"
p3714
tp3715
sS'eplerenone'
p3716
NsS'prednidib'
p3717
NsS'nalbuphine_hydrochloride'
p3718
NsS'3_3__4__5_7_pentahydroxyflavone'
p3719
NsS'penicillin_g_potassium'
p3720
NsS'hydrochloride__labetalol'
p3721
NsS'vancomicina_chiesi'
p3722
NsS'atracurium_besilate'
p3723
NsS'antazoline_phosphate'
p3724
NsS'ametop'
p3725
NsS'gamadiabet'
p3726
NsS'quinacrine__(r)_isomer'
p3727
NsS'platidiam'
p3728
NsS'chlorphenesin'
p3729
NsS'tranilast'
p3730
NsS'sulfacyl'
p3731
NsS'urokit_doxo_cell'
p3732
NsS'mefenamine'
p3733
NsS'skf_86002_dihydrochloride'
p3734
NsS'probenecid'
p3735
NsS'linifanib'
p3736
NsS'pipenzolate_bromide'
p3737
NsS'methanthelinium_bromide'
p3738
NsS'alcophobin'
p3739
NsS'apo_dimenhydrinate'
p3740
NsS'trimethadione'
p3741
NsS'g_strophanthin'
p3742
NsS'hymecromone'
p3743
NsS'pachycarpine_sulfate_(1:1)__pentahydrate__(7s_(7alpha_7aalpha_14alpha_14abeta))_isomer'
p3744
NsS'zelapar'
p3745
NsS'ronidazol'
p3746
NsS'n_ethyl_n_(4_pyridylmethyl)tropamide'
p3747
NsS'mono_hydrochloride__piribedil'
p3748
NsS'hydrochloride__hydralazine'
p3749
NsS'terbutaline_hemisulfate'
p3750
NsS'flufenamic_acid'
p3751
NsS'fenoterol_hydrobromide'
p3752
((F1.0
S'fenoterol'
p3753
tp3754
S"Suffix-based-exact-matching ('fenoterol_hydrobromide', 'fenoterol') ('fenoterol_hydrobromide', 'fenoterol')"
p3755
tp3756
sS'orphenadrine_citrate'
p3757
NsS'orimeten'
p3758
NsS'carwin'
p3759
NsS'gemhexal'
p3760
NsS'tele_stulln'
p3761
NsS'aminogenistein'
p3762
NsS'myelosan'
p3763
NsS'cefaclor_anhydrous'
p3764
NsS'rho_kinase_inhibitor_ii'
p3765
NsS'aequamen'
p3766
NsS'eto_gry'
p3767
NsS'doxamax'
p3768
NsS'vasylox'
p3769
NsS'osnervan'
p3770
NsS'blocadren'
p3771
NsS'monohydrochloride__chlortetracycline'
p3772
NsS'reducterol'
p3773
NsS'sulfamethazine'
p3774
NsS'gossypol'
p3775
NsS'ridene'
p3776
NsS'alfadolone_acetate'
p3777
NsS'streptozocin'
p3778
NsS'benecid'
p3779
NsS'l_methionine_sulfoximine'
p3780
NsS'hydrochloride__no\xe3\xa9_socopharm'
p3781
NsS'fumarate__ketotifen'
p3782
NsS'guggulsterone'
p3783
NsS'albucid'
p3784
NsS'oxantel'
p3785
NsS'hexylcaine_hydrochloride'
p3786
NsS'fenbendazolegenistein'
p3786
NsS'myelosan'
p3787
NsS'cefaclor_anhydrous'
p3788
NsS'rho_kinase_inhibitor_ii'
p3789
NsS'aequamen'
p3790
NsS'eto_gry'
p3791
NsS'doxamax'
p3792
NsS'vasylox'
p3793
NsS'osnervan'
p3794
NsS'blocadren'
p3795
NsS'monohydrochloride__chlortetracycline'
p3796
NsS'reducterol'
p3797
NsS'sulfamethazine'
p3798
NsS'gossypol'
p3799
NsS'ridene'
p3800
NsS'alfadolone_acetate'
p3801
NsS'streptozocin'
p3802
NsS'benecid'
p3803
NsS'l_methionine_sulfoximine'
p3804
NsS'hydrochloride__no\xe3\xa9_socopharm'
p3805
NsS'fumarate__ketotifen'
p3806
NsS'guggulsterone'
p3807
NsS'albucid'
p3808
NsS'oxantel'
p3809
NsS'hexylcaine_hydrochloride'
p3810
NsS'fenbendazole'
p3811
NsS'cytophosphane'
p3812
NsS'pavabid'
p3813
NsS'1_benzylimidazole'
p3814
NsS'anthisan'
p3815
NsS'18alpha_carbenoxolone'
p3816
NsS'amoxicillin_trihydrate'
p3817
NsS'benperidol'
p3818
NsS'gargon'
p3819
NsS'vomex_a'
p3820
NsS'nu_fenofibrate'
p3821
NsS'dulco_lax'
p3822
NsS'lisuride'
p3823
NsS'kordaron'
p3824
NsS'beta__fluspirilen'
p3825
NsS'terfenadine'
p3826
NsS'benzopurpurin_(b)'
p3827
NsS'dimitronal'
p3828
NsS'napaltan'
p3829
NsS'homosalate'
p3830
NsS'proguanil'
p3831
NsS'mibrox'
p3832
NsS'melatonin'
p3833
NsS'corbadrine'
p3834
NsS'minakne'
p3835
NsS'etodolac__monosodium_salt__(s)_isomer'
p3836
NsS'etodolac'
p3837
NsS'dibutyryl_camp__sodium_salt'
p3838
NsS'velban'
p3839
NsS'furosemide_monohydrochloride'
p3840
NsS'ethyladrianol'
p3841
NsS'sparteine_hydroiodide__(7r_(7alpha_7aalpha_14alpha_14abeta))_isomer'
p3842
NsS'troglitazone'
p3843
NsS'conceplan'
p3844
NsS'anuject'
p3845
NsS'lidocaine'
p3846
NsS'rhamnoside__scillarenin'
p3847
NsS'sulfate_anhydrous__sparteine'
p3848
NsS'tiletamine'
p3849
NsS'rytmil'
p3850
NsS'prindolol'
p3851
NsS'hydrochloride__flavoxate'
p3852
NsS'methotrexate_hydrate'
p3853
NsS'propafenone'
p3854
NsS'brd_k56515112_(medrysone)'
p3855
NsS'r_4_amino_3_isoxazolidinone'
p3856
NsS'2_(2_(1_(4_chlorophenyl)_1_phenylethoxy)ethyl)_1_methylpyrrolidine'
p3857
NsS'nu_mefenamic'
p3858
NsS'folinate__calcium'
p3859
NsS'disopyramide_phosphate_(1:1)__(s)_isomer'
p3860
NsS'motesanib'
p3861
NsS'betaxolol_hydrochloride'
p3862
NsS'apomorphine_hydrochloride__anhydrous'
p3863
NsS'zd_7155_hydrochloride'
p3864
NsS'dibencycladine'
p3865
NsS'colecalciferol'
p3866
NsS'(2_(4_((4_chlorophenyl)phenylmethyl)_1_piperazinyl)ethoxy)acetic_acid'
p3867
NsS'monobenzone'
p3868
NsS'levonorgestrel'
p3869
NsS'curcubitacin_i'
p3870
NsS'domidon'
p3871
NsS'metipred'
p3872
NsS'bisco_lax'
p3873
NsS'alexidine'
p3874
NsS'n_methylacetazolamide'
p3875
NsS'exidol'
p3876
NsS'cinanserin'
p3877
NsS'astonin_h'
p3878
NsS'telepathine'
p3879
NsS'insogen'
p3880
NsS'saquinavir'
p3881
NsS'imipramine'
p3882
NsS'gemfibrozilo_bexal'
p3883
NsS'serpivite'
p3884
NsS'naprosyn'
p3885
NsS'hydrocotarnine'
p3886
NsS'9alpha_11beta_pgf2'
p3887
NsS'progynon_depot'
p3888
NsS'bisolvomycin'
p3889
NsS'convolamine'
p3890
NsS'ascorbic_acid'
p3891
NsS'rastinon'
p3892
NsS'seldane'
p3893
NsS'microx'
p3894
NsS'procamide'
p3895
NsS'bisoprolol_methanesulfonate_salt'
p3896
NsS'isopropamide_iodide'
p3897
NsS'tenakrin'
p3898
NsS'pyrvinium_pamoate'
p3899
NsS'acetopromazine'
p3900
NsS'nitrendidoc'
p3901
NsS'ofloxacin_hydrochloride'
p3902
NsS'benzidamine'
p3903
NsS'etoposide__alpha_d_glucopyranosyl_isomer'
p3904
NsS'methacycline'
p3905
NsS'r_atenolol'
p3906
NsS'fluorometholone'
p3907
NsS'lanacordin'
p3908
NsS'dormin'
p3909
NsS'droleptan'
p3910
NsS'ritodrine'
p3911
NsS'beloc_duriles'
p3912
NsS'salmosan_t'
p3913
NsS'minisintrom'
p3914
NsS'ak_sulf'
p3915
NsS'virophta'
p3916
NsS'proscillaridin'
p3917
NsS'novospiroton'
p3918
NsS'gemcitabine'
p3919
NsS'vitexin'
p3920
NsS'sodium__cefsulodin'
p3921
NsS'ulcolax'
p3922
NsS'eldeline'
p3923
NsS'triiodothyronine'
p3924
NsS'pheniramine'
p3925
NsS'dydrogesterone'
p3926
NsS'proxyphylline'
p3927
NsS'artosin'
p3928
NsS'prestwick_981'
p3929
NsS'biopropazepan_trimethoxybenzoate'
p3930
NsS'tremorine_dihydrochloride'
p3931
NsS'nu_sulfinpyrazone'
p3932
NsS'stashustenl\xe3\xb6ser'
p3933
NsS'estradiol_valerate'
p3934
NsS'triprolidine_monohydrochloride'
p3935
NsS'maleate__pyrilamine'
p3936
NsS'aminocaproic_acid'
p3937
NsS'liquid_pred'
p3938
NsS'dexibuprofen'
p3939
NsS'propoxycaine_hydrochloride'
p3940
NsS'alprostadil'
p3941
NsS'demeclocycline__4_epimer'
p3942
NsS'gelseminic_acid'
p3943
NsS'bms_182874_hydrochloride'
p3944
NsS'bepridil__(+_)_isomer'
p3945
NsS'avatec'
p3946
NsS'ribostamycin'
p3947
NsS'kanamycin'
p3948
NsS'nadolol'
p3949
NsS'gabapentin'
p3950
NsS'tenoxicam'
p3951
NsS'rocornal'
p3952
NsS'norfenon'
p3953
NsS'2_methyl_5_nitroimidazole_1_ethanol'
p3954
NsS'biosint'
p3955
NsS'adriamycin'
p3956
NsS'sparteine__(_)_isomer'
p3957
NsS'iobenguane'
p3958
NsS'quinine_hemisulfate_salt_monohydrate'
p3959
NsS'anhydrous__imipenem'
p3960
NsS'pyrrolidinedithiocarbamate_ammonium'
p3961
NsS'17_beta_estradiol_17_valerate'
p3962
NsS'sodium__omeprazole'
p3963
NsS'ancotil'
p3964
NsS'maprotilin_holsten'
p3965
NsS'dobuject'
p3966
NsS'guanabenz'
p3967
NsS'4_hydroxycephalexin'
p3968
NsS'skf_81297_hydrobromide'
p3969
NsS'binazin'
p3970
NsS'hexal__nimodipin'
p3971
NsS'etilefrine_hydrochloride'
p3972
NsS'depo_medrol'
p3973
NsS'monomethanesulfonate__gabexate'
p3974
NsS'fendiline'
p3975
NsS'clomifene'
p3976
NsS'levocabastine'
p3977
NsS'chrysin'
p3978
NsS'niflumic_acid'
p3979
NsS'podophyllotoxin__(5r_(5_alpha_5a_beta_8a_alpha_9_beta))_isomer'
p3980
NsS'anhydrous__tacrolimus'
p3981
NsS'doxepin'
p3982
NsS'dramanate'
p3983
NsS'novo_flurprofen'
p3984
NsS'trifluoperazine_hcl'
p3985
NsS'fluconazole'
p3986
NsS'nimesulide'
p3987
NsS'nu_sulindac'
p3988
NsS'2_amino_6_purinethiol'
p3989
NsS'ambropp'
p3990
NsS'ganciclovir__monosodium_salt'
p3991
NsS'slo_phyllin'
p3992
NsS'esculetin'
p3993
NsS'aquareduct'
p3994
NsS'amoxicillin_crystalline'
p3995
NsS'sisomicin_sulfate'
p3996
NsS'novotripramine'
p3997
NsS'netromycin'
p3998
NsS'theovent'
p3999
NsS'contac_husten_trunk'
p4000
NsS'6_methylcompactin'
p4001
NsS'flecainide_monoacetate__(+_)_isomer'
p4002
NsS'hydrochloride__fluphenazine'
p4003
NsS'carbinoxamine'
p4004
NsS'triptolide'
p4005
NsS'cebutid'
p4006
NsS'mek1/2_inhibitor'
p4007
NsS'guanabenz_monoacetate'
p4008
NsS'vitamin_b12'
p4009
NsS'bacitin'
p4010
NsS'nnc_55_0396_dihydrochloride'
p4011
NsS'metosyn'
p4012
NsS'apo_gemfibrozil'
p4013
NsS'nicardipino_seid'
p4014
NsS'cardura'
p4015
NsS'gr_55562_dihydrochloride'
p4016
NsS'romadin'
p4017
NsS'gr_32191_hydrochloride'
p4018
NsS'amantadin_stada'
p4019
NsS'erymax'
p4020
NsS'mepyramine'
p4021
NsS'cefoperazone_sodium'
p4022
NsS'kriptin'
p4023
NsS'biphenabid'
p4024
NsS'prasterone'
p4025
NsS'bleomycin'
p4026
NsS'nitrendipin_von_ct'
p4027
NsS'streptonivicin'
p4028
NsS'lactobionic_acid'
p4029
NsS'novoflutamide'
p4030
NsS'glianimon'
p4031
NsS'stat3_inhibitor_vi__s31_201'
p4032
NsS'nicardipine'
p4033
NsS'tridihexethyl'
p4034
NsS'warticon'
p4035
NsS'danazant'
p4036
NsS'aprinox'
p4037
NsS'persantine'
p4038
NsS'rosiglitazone'
p4039
NsS'nitrendipin_al'
p4040
NsS'spiroperone'
p4041
NsS'thyroid_hormone__t3'
p4042
NsS'apo_minocycline'
p4043
NsS'diethylcarbamazine'
p4044
NsS'salicylazosulfapyridine'
p4045
NsS'lincomycin_a'
p4046
NsS'naltrexone'
p4047
NsS'sin_10'
p4048
NsS'amphotericin_b'
p4049
NsS'rizatriptan_benzoate'
p4050
NsS'lenoxin'
p4051
NsS'bioflutin'
p4052
NsS'aceclofenac'
p4053
NsS'triflupromazine'
p4054
NsS'carbinoxamine_maleate'
p4055
NsS'zyban_(anti_smoking)'
p4056
NsS'radewerm'
p4057
NsS'2_bromo_alpha_ergocryptine'
p4058
NsS'divalproex'
p4059
NsS'rescinnamine'
p4060
NsS'levetiracetam'
p4061
NsS'pararosaniline'
p4062
NsS'hemicholinium_bromide'
p4063
NsS'furazolidone'
p4064
NsS'meclofenoxate'
p4065
NsS'mono_hydrochloride__hydralazine'
p4066
NsS'concor'
p4067
NsS'tensogradal'
p4068
NsS'4_(bis(2_chloroethyl)amino)phenylalanine'
p4069
NsS'ketotiphen'
p4070
NsS'dl_alpha_tocopherol'
p4071
NsS'cinnarizine_l_tartrate_(1:1)'
p4072
NsS'folic_acid'
p4073
NsS'cot_10b'
p4074
NsS'dihydrodiethylstilbestrol'
p4075
NsS'nuelin_s.a.'
p4076
NsS'gsk_j4'
p4077
NsS'timoptic'
p4078
NsS'espironolactona_mundogen'
p4079
NsS'bezafibrate'
p4080
NsS'quinacrine_dimesylate'
p4081
NsS'dirithromycin'
p4082
NsS'fluprostenol'
p4083
NsS'methyl_7_desoxypurpurogallin_7_carboxylate_trimethyl_ether'
p4084
NsS'luzindole'
p4085
NsS'isoflupredone'
p4086
NsS'beta_ara_c'
p4087
NsS'beta_ara_a'
p4088
NsS'pentamidine'
p4089
NsS'pioglitazone_hydrochloride'
p4090
NsS'vasomotal'
p4091
NsS'peritol'
p4092
NsS'minipress'
p4093
NsS'sodium_anhydrous__nalidixate'
p4094
NsS'trecator'
p4095
NsS'apo_domperidone'
p4096
NsS'quinpirole_hydrochloride'
p4097
NsS'fluspirilene'
p4098
NsS'buparlisib'
p4099
NsS'timolol'
p4100
NsS'l_ornithine__n5_[imino(methylamino)methyl]_[cas]'
p4101
NsS'isoetarine'
p4102
NsS'asiaticoside'
p4103
NsS'obsidan'
p4104
NsS'quinacrine_dihydrochloride__dihydrate'
p4105
NsS'nitrate__pilocarpine'
p4106
NsS'mestranol'
p4107
NsS'lysinopril'
p4108
NsS'jnk_in_5a'
p4109
NsS'desisulpid'
p4110
NsS'boldine'
p4111
NsS'trangorex'
p4112
NsS'fenobam'
p4113
NsS'xylazine'
p4114
NsS'2_pyrrolidone_n_acetamide'
p4115
NsS'dequalinium_chloride'
p4116
NsS'hyperoside'
p4117
NsS'p\xe3\xa9ridys'
p4118
NsS'pms_benzydamine'
p4119
NsS'selamectin'
p4120
NsS'nifangin'
p4121
NsS'diclofenac__sodium'
p4122
NsS'corinfar'
p4123
NsS'deferoxamine'
p4124
NsS'gabexate_mesylate'
p4125
NsS'triamcinolone_diacetate'
p4126
NsS'chloriguane'
p4127
NsS'hexamethonium_bromide'
p4128
NsS'cyclizine'
p4129
NsS'sulpitil'
p4130
NsS'benzamil'
p4131
NsS'clamoxyl'
p4132
NsS'norpramin'
p4133
NsS'darinaparsin'
p4134
NsS'rubidomycin'
p4135
NsS'mephentermine_sulfate'
p4136
NsS'disopyramide'
p4137
NsS'betaloc'
p4138
NsS'vindesine'
p4139
NsS'lovastatin__1_alpha_isomer'
p4140
NsS'galantamine'
p4141
NsS'risperdal_consta'
p4142
NsS'hydroxyzine'
p4143
NsS'drenural'
p4144
NsS'berberine'
p4145
NsS'dicycloverine'
p4146
NsS'pamoate__hydroxyzine'
p4147
NsS'carticaine'
p4148
NsS'piribedil'
p4149
NsS'naloxone_abello'
p4150
NsS'delsym'
p4151
NsS'deptran'
p4152
NsS'nabumetone'
p4153
NsS'sulfacetamide_monosodium_salt'
p4154
NsS'loxapinsuccinate'
p4155
NsS'bucladesine_sodium_salt'
p4156
NsS'theoconfin_continuous'
p4157
NsS'olomoucine'
p4158
NsS'apo_amitriptyline'
p4159
NsS'oradexon'
p4160
NsS'flunisolide'
p4161
NsS'stamycin'
p4162
NsS'propylthiouracil'
p4163
NsS'roxi_paed_1a_pharma'
p4164
NsS'hexestrol'
p4165
NsS'narciclasine'
p4166
NsS'benzathine_benzylpenicillin'
p4167
NsS'2_phenyl_1_3_indandione'
p4168
NsS'spiro_l.u.t.'
p4169
NsS'trichostatin_a'
p4170
NsS'sodium__piperacillin'
p4171
NsS'dobutrex'
p4172
NsS'roxi_q'
p4173
NsS'kestrone'
p4174
NsS'nintedanib'
p4175
NsS'ambroxin'
p4176
NsS'duricef'
p4177
NsS'fluocinonide'
p4178
NsS'muco_fips'
p4179
NsS'17_beta_hydroxy_4_androsten_3_one'
p4180
NsS'debrisoquin'
p4181
NsS'apo_acebutolol'
p4182
NsS'p_octopamine'
p4183
NsS'loracarbef'
p4184
NsS'cetilich'
p4185
NsS'desyrel'
p4186
NsS'benserazide'
p4187
NsS'sedoval'
p4188
NsS'propoxyphene_hydrochloride__(r*_s*)_(+_)_isomer'
p4189
NsS'amfebutamone'
p4190
NsS'dnqx_disodium_salt'
p4191
NsS'prednison_hexal'
p4192
NsS'nicardipine_la'
p4193
NsS'tiaprofenic_acid'
p4194
NsS'trimox'
p4195
NsS'loperamide'
p4196
NsS'nitrate__econazole'
p4197
NsS'(16beta_17beta)_estra_1_3_5(10)_triene_3_16_17_triol'
p4198
NsS'ampicillin'
p4199
NsS'azathioprine_sulfate'
p4200
NsS'2__3__dideoxycytidine'
p4201
NsS'sissomicin'
p4202
NsS'sodium_anhydrous__tolmetin'
p4203
NsS'paroxetine__trans_(+)_isomer'
p4204
NsS'fipronil'
p4205
NsS'flufenazin'
p4206
NsS'dihydrostreptomycin'
p4207
NsS'prestwick_559'
p4208
NsS'tisercin'
p4209
NsS'cabozantinib'
p4210
NsS'alprenolol'
p4211
NsS'finasteride'
p4212
NsS'clidinium_bromide'
p4213
NsS'oxyterracin'
p4214
NsS'trimetazidine'
p4215
NsS'liskantin'
p4216
NsS'hetrazan'
p4217
NsS'prolamine'
p4218
NsS'famotidine_hydrochloride'
p4219
NsS'miambutol'
p4220
NsS'cefsulodin_monosodium_salt'
p4221
NsS'rexigen'
p4222
NsS'vertigo_meresa'
p4223
NsS'fenofibrat_von_ct'
p4224
NsS'monohydrochloride__carteolol'
p4225
NsS'amikacina_medical'
p4226
NsS'tizertsin'
p4227
NsS'alsterpaullone'
p4228
NsS'buflomedil'
p4229
NsS'vinburnine'
p4230
NsS'atropine'
p4231
NsS'vibramycin'
p4232
NsS'diethylcarbamazine_monohydrochloride'
p4233
NsS'(s)_3_bromo_n_((1_ethyl_2_pyrrolidinyl)methyl)_2_6_dimethoxybenzamide'
p4234
NsS'vidarabine'
p4235
NsS'glipizide'
p4236
NsS'fenofanton'
p4237
NsS'axonyl'
p4238
NsS'entero_septol'
p4239
NsS'naloxone_benzoylhydrazone'
p4240
NsS'iopromide'
p4241
NsS'emb_hefa'
p4242
NsS'cil'
p4241
NsS'terry_white_chemists_gemfibrozil'
p4242
NsS'skf_525_a'
p4243
NsS'corynanthine_tartrate'
p4244
NsS'hydrocortisone'
p4245
NsS'triflumann'
p4246
NsS'doxepin_rph'
p4247
NsS'cabergoline'
p4248
NsS'imatinib'
p4249
NsS'tolectin'
p4250
NsS'dipivefrine'
p4251
NsS'methylsulfadiazine'
p4252
NsS'thioridazine'
p4253
NsS'cotinine'
p4254
NsS'cephaeline'
p4255
NsS'hoe_893d'
p4256
NsS'antalon'
p4257
NsS'temsirolimus_[ci779]'
p4258
NsS'pempidine'
p4259
NsS'tyrphostin_ag_825'
p4260
NsS'propofol'
p4261
NsS'tivantinib'
p4262
NsS'6h_purine_6_thione__1_7_dihydro_'
p4263
NsS'adenosine_5__monophosphate_monohydrate'
p4264
NsS'tetracaine'
p4265
NsS'novo_tripramine'
p4266
NsS'oxytetracycline_monohydrochloride'
p4267
NsS'adrenosterone'
p4268
NsS'pharmaxolon'
p4269
NsS'carmofur'
p4270
NsS'paraflex'
p4271
NsS'theoclate__diphenhydramine'
p4272
NsS'lysergol'
p4273
NsS'estradiol'
p4274
NsS'itraconazole'
p4275
NsS'rodovan'
p4276
NsS'meclozine'
p4277
NsS'digitek'
p4278
NsS'doxycycline_phosphate_(1:1)'
p4279
NsS'dihydroergotamine_methanesulfonate'
p4280
NsS'nu_flurbiprofen'
p4281
NsS'p_bromdylamine'
p4282
NsS'busulfan'
p4283
NsS'doxorubicin_hexal'
p4284
NsS'pyrilamine_maleate'
p4285
NsS'vancocin_hcl'
p4286
NsS'strophantine_octahydrate'
p4287
NsS'myocet'
p4288
NsS'dynapen'
p4289
NsS'dogmatil'
p4290
NsS'pik_90'
p4291
NsS'compound_83405'
p4292
NsS'gyki_52466_hydrochloride'
p4293
NsS'arecholin'
p4294
NsS'erythromycin_phosphate'
p4295
NsS'valproate'
p4296
NsS'k_strophanthidin'
p4297
NsS'bisolvon_am'
p4298
NsS'apo_dipyridamole'
p4299
NsS'novocaine'
p4300
NsS'brd_a82238138_(budesonide)'
p4301
NsS'5_fluorouracil'
p4302
NsS'proadifen'
p4303
NsS'rotenone'
p4304
NsS'celance'
p4305
NsS'androsta_1_4_dien_3_17_dione'
p4306
NsS'oxfendazole'
p4307
NsS'solutrast'
p4308
NsS'heumann__felodipin'
p4309
NsS'pyrimethamine'
p4310
NsS'dobutamine__(_)_isomer'
p4311
NsS'methyl_2_5_dihydroxycinnamate'
p4312
NsS'chloroxine'
p4313
NsS'17_beta_oestradiol'
p4314
NsS'tabloid'
p4315
NsS'fluocinolide'
p4316
NsS'bisoprolol_fumarate_(1:1)_salt__(+_)_isomer'
p4317
NsS'procetofen__antara_micronized'
p4318
NsS'oraldine'
p4319
NsS'ergocalciferols'
p4320
NsS'histodil'
p4321
NsS'jutalar'
p4322
NsS'zitazonium'
p4323
NsS'terfenadin_al'
p4324
NsS'fluoxetine_hydrochloride'
p4325
NsS'zinc_bacitracin'
p4326
NsS'piracetrop'
p4327
NsS'theolair'
p4328
NsS'tubocurarine_chloride_pentahydrate_(+)'
p4329
NsS'octopamine'
p4330
NsS'reisetabletten_ratiopharm'
p4331
NsS'praxel'
p4332
NsS'labetalol__(r_r)_isomer'
p4333
NsS'cyclobenzaprine'
p4334
NsS'invirase'
p4335
NsS'hydrochloride__oxprenolol'
p4336
NsS'sulfamethylisoxazole'
p4337
NsS'methotrimeprazine_maleat_salt'
p4338
NsS'z_leu3_vs'
p4339
NsS'lanoxicaps'
p4340
NsS'trihydrate__ampicillin'
p4341
NsS'salazopyrin'
p4342
NsS'droxaryl'
p4343
NsS'solaskil'
p4344
NsS'semisodium_valproate'
p4345
NsS'methyldopate'
p4346
NsS'hydrochloride__clomipramine'
p4347
NsS'americaine'
p4348
NsS'bleomicina'
p4349
NsS'benuryl'
p4350
NsS'steri_sol'
p4351
NsS'roxi_tad'
p4352
NsS'acetazolamide'
p4353
NsS'phenolphthalein'
p4354
NsS'flutamide'
p4355
NsS'tridione'
p4356
NsS'fluspirilen'
p4357
NsS'diclocil'
p4358
NsS'bufederm'
p4359
NsS'ledermycin'
p4360
NsS'thimerosal'
p4361
NsS'ponstel'
p4362
NsS'hismanal'
p4363
NsS'benzhydramine'
p4364
NsS'siseptin'
p4365
NsS'tetracycline_l_methylene_lysine'
p4366
NsS'beta_escin'
p4367
NsS'beta_isosparteine'
p4368
NsS'prostaglandin_f2'
p4369
NsS'pentamidin'
p4370
NsS'octocaine'
p4371
NsS'tetramisole'
p4372
NsS'midoride'
p4373
NsS'guanethidine_sulfate_(2:1)__14c_labeled'
p4374
NsS'sericetin'
p4375
NsS'spesicor'
p4376
NsS'sulfabenzamide'
p4377
NsS'halcimat'
p4378
NsS'ony_clear'
p4379
NsS'quinpirole'
p4380
NsS'dilazep_dihydrochloride'
p4381
NsS'hydrochloride__etilefrine'
p4382
NsS'bupivacaine'
p4383
NsS'vancomycin_phosphate_(1:2)__decahydrate'
p4384
NsS'fluphenazine'
p4385
NsS'harpagoside'
p4386
NsS'prestwick_984'
p4387
NsS'bis_tyrphostin'
p4388
NsS'trans_2_phenylcyclopropylamine'
p4389
NsS'felodipin_al'
p4390
NsS'pripsen_mebendazole'
p4391
NsS'gamma_linolenic_acid_(18:3_n_6)'
p4392
NsS'hydrochloride__oxymetazoline'
p4393
NsS'fenazoxine'
p4394
NsS'eralzdin_practolol'
p4395
NsS'aminazine'
p4396
NsS'fluocinolone_acetonide_21_acetate'
p4397
NsS'streptomycin_sulfate_(2:3)_salt'
p4398
NsS'mephenytoin'
p4399
NsS'6_benzylaminopurine'
p4400
NsS'deltasoralen'
p4401
NsS'dicloxacillin__monosodium_salt__mono_hydrate'
p4402
NsS'pms_trazodone'
p4403
NsS'parthenolide'
p4404
NsS'9_alpha_fludrohydrocortisone'
p4405
NsS'methanesulfonate__dihydroergotamine'
p4406
NsS'sulforthomidine'
p4407
NsS'oxindole_i'
p4408
NsS'mometasone_furoate'
p4409
((F1.0
S'mometasone'
p4410
tp4411
S"Suffix-based-exact-matching ('mometasone_furoate', 'mometasone') ('mometasone_furoate', 'mometasone')"
p4412
tp4413
sS'cytarabine'
p4414
NsS'tipifarnib_p1'
p4415
NsS'tipifarnib_p2'
p4416
NsS'amrinone'
p4417
NsS'methyleneoxytetracycline'
p4418
NsS'ribovirin'
p4419
NsS'anesthesin'
p4420
NsS'dihydrate_tolmetin_sodium'
p4421
NsS'pronestyl'
p4422
NsS'566c80_hydroxynaphthoquinone'
p4423
NsS'chingamin'
p4424
NsS'sodium__nafcillin'
p4425
NsS'ambro_puren'
p4426
NsS'compound_12'
p4427
NsS'cefotaxime'
p4428
NsS'(e)_capsaicin'
p4429
NsS'lincomycin__(2s_cis)_isomer'
p4430
NsS'dhe_puren'
p4431
NsS'ethinylestrenol'
p4432
NsS'trimipramin_neurazpharm'
p4433
NsS'vitamin_c'
p4434
NsS'paromomycin_sulfate_(1:1)'
p4435
NsS'sinequan'
p4436
NsS'cefadroxil'
p4437
NsS'atovaquone'
p4438
NsS'estomycin'
p4439
NsS'aldactone_a'
p4440
NsS'pms_fluvoxamine'
p4441
NsS'ropinirole_hcl'
p4442
NsS'fasigyn'
p4443
NsS'dilacor_xr'
p4444
NsS'sulphapyridine'
p4445
NsS'diprazin'
p4446
NsS'ql_xi_92'
p4447
NsS'quincardine'
p4448
NsS'nu_trimipramine'
p4449
NsS'calycanthine'
p4450
NsS'chlomipramine'
p4451
NsS'triprolidine_monohydrochloride__(z)_isomer'
p4452
NsS'diphenyleneiodonium_chloride'
p4453
NsS'pyrvinium'
p4454
NsS'periostat'
p4455
NsS'mesalazine'
p4456
NsS'progesterone__(9_beta_10_alpha)_isomer'
p4457
NsS'valproic_acid'
p4458
NsS'levothyroxine_sodium'
p4459
NsS'biklin'
p4460
NsS'barasertib'
p4461
NsS'carbosan'
p4462
NsS'apomorphin_teclapharm'
p4463
NsS'aloisine_a'
p4464
NsS'guaiacol_glyceryl_ether'
p4465
NsS'8_azaguanine'
p4466
NsS'sulfate__amantadine'
p4467
NsS'medebiotin'
p4468
NsS'pyrazinamide'
p4469
NsS'lipo_pge1'
p4470
NsS'puvalen'
p4471
NsS'vira_a'
p4472
NsS'von_ct__doxazosin'
p4473
NsS'capsazepine'
p4474
NsS'piracebral'
p4475
NsS'foliosidine'
p4476
NsS'benzamil_hydrochloride'
p4477
NsS'chlodithane'
p4478
NsS'hexestrol__(r*_s*)_isomer'
p4479
NsS'calcipotriol'
p4480
NsS'dovitinib'
p4481
NsS'riboflavin'
p4482
NsS'pinalgesic'
p4483
NsS'brd_k80334323_(norethynodrel)'
p4484
NsS'6_thioguanine'
p4485
NsS'trimipramin_azu'
p4486
NsS'prednisone'
p4487
NsS'efflumidex'
p4488
NsS'estriol'
p4489
Ns.z)_isomer'
p4488
NsS'diphenyleneiodonium_chloride'
p4489
NsS'pyrvinium'
p4490
NsS'periostat'
p4491
NsS'mesalazine'
p4492
NsS'progesterone__(9_beta_10_alpha)_isomer'
p4493
NsS'valproic_acid'
p4494
NsS'levothyroxine_sodium'
p4495
NsS'biklin'
p4496
NsS'barasertib'
p4497
NsS'carbosan'
p4498
NsS'apomorphin_teclapharm'
p4499
NsS'aloisine_a'
p4500
NsS'guaiacol_glyceryl_ether'
p4501
NsS'8_azaguanine'
p4502
NsS'sulfate__amantadine'
p4503
NsS'medebiotin'
p4504
NsS'pyrazinamide'
p4505
NsS'lipo_pge1'
p4506
NsS'puvalen'
p4507
NsS'vira_a'
p4508
NsS'von_ct__doxazosin'
p4509
NsS'capsazepine'
p4510
NsS'piracebral'
p4511
NsS'foliosidine'
p4512
NsS'benzamil_hydrochloride'
p4513
NsS'chlodithane'
p4514
NsS'hexestrol__(r*_s*)_isomer'
p4515
NsS'calcipotriol'
p4516
NsS'dovitinib'
p4517
NsS'riboflavin'
p4518
NsS'atovaquone'
p4519
NsS'brd_k80334323_(norethynodrel)'
p4520
NsS'6_thioguanine'
p4521
NsS'trimipramin_azu'
p4522
NsS'prednisone'
p4523
NsS'efflumidex'
p4524
NsS'estriol'
p4525
Ns.