(dp0
S'prestwick_691'
p1
NsS'prestwick_692'
p2
NsS'terfenadin_ratiopharm'
p3
NsS'meptazinol'
p4
NsS'monorden'
p5
NsS'dl_ppmp'
p6
NsS'desoxycorticosterone'
p7
NsS'aptine'
p8
NsS'anabasine'
p9
NsS'dihydrochloride__betazole'
p10
NsS'vincamine'
p11
NsS'10_methoxyharmalan'
p12
NsS'p_aminohippuric_acid'
p13
NsS'5_hydroxytryptamine'
p14
NsS'citiolone'
p15
NsS'mecillinam_pivaloyl_ester'
p16
NsS'cloperastine'
p17
NsS'propoxyphene_hydrochloride__(r*_s*)_(+_)_isomer'
p18
NsS'diperodon'
p19
NsS'procarbazine'
p20
NsS'ambril'
p21
NsS'pivmecillinam'
p22
NsS'extramycin'
p23
NsS'zuclopenthixol'
p24
NsS'hexetidine'
p25
NsS'rolitetracycline'
p26
NsS'ioxaglic_acid'
p27
NsS'eucatropine'
p28
NsS'novo_gliclazide'
p29
NsS'homochlorcyclizine'
p30
NsS'cinnarizin_al'
p31
NsS'myricetin'
p32
NsS'talampicillin_hydrochloride'
p33
NsS'apomorphine_hydrochloride'
p34
NsS'camptothecine'
p35
NsS'acid_3_o_hemisuccinate__glycyrrhetinic'
p36
NsS'acetyl_beta_methacholine_chloride'
p37
NsS'pentoxyverine'
p38
NsS'provokit'
p39
NsS'stachydrine'
p40
NsS'tanespimycin'
p41
NsS'proadifen_hydrochloride'
p42
NsS'sulfadimidine'
p43
NsS'nitrendipin_lindo'
p44
NsS'hydrochloride__isoxsuprine'
p45
NsS'domperidon'
p46
NsS'xylometazoline'
p47
NsS'syncoumar'
p48
NsS'aptinduriles'
p49
NsS'prestwick_665'
p50
NsS'dequalinium_dichloride'
p51
NsS'sisomicin'
p52
NsS'methetharimide'
p53
NsS'karakoline'
p54
NsS'corvaton'
p55
NsS'alpha_ergocryptine'
p56
NsS'atractylic_acid'
p57
NsS'hubermizol'
p58
NsS'quinisocaine'
p59
NsS'rolipram'
p60
NsS'capsidol'
p61
NsS'nitrepuren'
p62
NsS'ciprofibrate'
p63
NsS'chlorpromazine'
p64
((F1.0
S'chlorpromazine_hydrochloride'
p65
tp66
S"Suffix-based-exact-matching ('chlorpromazine', 'chlorpromazine_hydrochloride') ('chlorpromazine', 'chlorpromazine_hydrochloride')"
p67
tp68
sS'cormelian'
p69
NsS'hexestrol__(s_(r*_r*))_isomer'
p70
NsS'biotin'
p71
NsS'arecoline'
p72
NsS'rifampicin'
p73
NsS'pseudopelletierine'
p74
NsS'glycocholate_sodium'
p75
NsS'senzit'
p76
NsS'medrysone'
p77
NsS'enteroquinol'
p78
NsS'rolitetracycline_hydrochloride'
p79
((F0.8666666666666667
S'tetracycline_hydrochloride'
p80
tp81
S"(st) matching: ratio , lcs, (key,drug) (keynorm,drugnorm 0.866666666667 tetracycline_hydrochloride ('rolitetracycline_hydrochloride', 'tetracycline_hydrochloride') ('rolitetracycline_hydrochloride', 'tetracycline_hydrochloride')"
p82
tp83
sS'meso_nordihydroguaiaretic_acid'
p84
NsS'vertigo_neogama'
p85
NsS'hydrochloride__pivampicillin'
p86
NsS'capsaicin'
p87
NsS'nomifensin'
p88
NsS'capsaicine'
p89
NsS'cyproterone'
p90
NsS'etilefrin_ratiopharm'
p91
NsS'deptropine'
p92
NsS'furaltadone'
p93
NsS'allantoin'
p94
NsS'fenasal'
p95
NsS'pentetrazol'
p96
NsS'glycocholic_acid'
p97
NsS'bronchopront'
p98
NsS'yohimex'
p99
NsS'epiandrosterone'
p100
NsS'etamsylate'
p101
NsS'cefalotin'
p102
NsS'bemegride'
p103
NsS'monastrol'
p104
NsS'linesterol'
p105
NsS'sparteine_sulfate_(1:1)__(7s_(7alpha_7aalpha_14alpha_14abeta))_isomer'
p106
NsS'naftidrofuryl'
p107
NsS'sibelium'
p108
NsS'meticrane'
p109
NsS'benzalolin'
p110
NsS'syn\xc3\xa9dil'
p111
NsS'betazole_dihydrochloride'
p112
NsS'chlorprothixene'
p113
NsS'(+/_)_catechin'
p114
NsS'kerecide'
p115
NsS'pargyline'
p116
NsS'puromycin'
p117
NsS'dyclonine'
p118
NsS'acid__isolithocholic'
p119
NsS'tremorine'
p120
NsS'allergipuran'
p121
NsS'roxarsone'
p122
NsS'prestwick_682'
p123
NsS'tenoxicam'
p124
NsS'prestwick_689'
p125
NsS'dynexan_mhp'
p126
NsS'oxamic_acid'
p127
NsS'gabexate'
p128
NsS'bufexamac_ratiopharm'
p129
NsS'duphaston'
p130
NsS'quipazine_hydrochloride'
p131
NsS'germanin'
p132
NsS'difenidol'
p133
NsS'cetirizine'
p134
((F1.0
S'cetirizine_hydrochloride'
p135
tp136
S"Suffix-based-exact-matching ('cetirizine', 'cetirizine_hydrochloride') ('cetirizine', 'cetirizine_hydrochloride')"
p137
tp138
sS'hydrochloride__biperiden'
p139
NsS'flucloxacillin'
p140
NsS'cyclopenthiazide'
p141
NsS'bucladesine__monosodium_salt'
p142
NsS'suramin_sodium'
p143
NsS'hemicholinium'
p144
NsS'hydrochloride__no\xc3\xa9_socopharm'
p145
NsS'oxybuprocaine'
p146
NsS'desoxycortone'
p147
NsS'harmidine'
p148
NsS'idazoxan'
p149
NsS'naganin'
p150
NsS'sanguinarine'
p151
NsS'isocorydine'
p152
NsS'diphemanil_metilsulfate'
p153
NsS'hexamethonium_diiodide'
p154
NsS'forskolin'
p155
NsS'extovyl'
p156
NsS'penbutolol'
p157
NsS'(_)_isoprenaline'
p158
NsS'camoquine'
p159
((F0.8888888888888888
S'camoquin_hydrochloride'
p160
tp161
S"(st) matching: ratio , lcs, (key,drug) (keynorm,drugnorm 0.888888888889 camoquin ('camoquine', 'camoquin_hydrochloride') ('camoquine', 'camoquin_hydrochloride')"
p162
tp163
sS'pizotifen'
p164
NsS'carbimazole'
p165
NsS'xamoterol_monohydrobromide'
p166
NsS'ethylmethylglutarimide'
p167
NsS'hydroquinine'
p168
NsS'oxolinic_acid'
p169
NsS'flupentixol'
p170
NsS'hydrochloride__procarbazine'
p171
NsS'celastrol'
p172
NsS'hesperidin_2s'
p173
NsS'furazol'
p174
((F0.8571428571428571
S'nitrofurazone'
p175
tp176
S"(st) matching: ratio , lcs, (key,drug) (keynorm,drugnorm 0.857142857143 furazo ('furazol', 'nitrofurazone') ('furazol', 'nitrofurazone')"
p177
tp178
sS'hyoscyamine_sulfate'
p179
NsS'tiapride_monohydrochloride'
p180
NsS'colistin'
p181
((F0.875
S'colistimethate_sodium'
p182
tp183
S"(st) matching: ratio , lcs, (key,drug) (keynorm,drugnorm 0.875 colisti ('colistin', 'colistimethate_sodium') ('colistin', 'colistimethate_sodium')"
p184
tp185
sS'clebopride'
p186
NsS'1_4_chrysenequinone'
p187
NsS'cinarizine'
p188
NsS'hydroxyethylidene_diphosphonic_acid'
p189
NsS'11_deoxy_16_16_dimethylprostaglandin_e2'
p190
NsS'niflumic_acid'
p191
NsS'fusidate__sodium'
p192
NsS'etidronate'
p193
((F1.0
S'etidronate_disodium'
p194
tp195
S"Suffix-based-exact-matching ('etidronate', 'etidronate_disodium') ('etidronate', 'etidronate_disodium')"
p196
tp197
sS'alvespimycin'
p198
NsS'sulphamethoxypyridazine'
p199
NsS'arachidonic_acid'
p200
NsS'sparteine'
p201
NsS'3_hydroxy_dl_kynurenine'
p202
NsS'4_(((2_amino_3_5_dibromophenyl)methyl)amino)cyclohexanol'
p203
NsS'acid__gelseminic'
p204
NsS'sk&f_525_a'
p205
NsS'betulin'
p206
NsS'broxol'
p207
NsS'chlortalidone'
p208
NsS'ambrol\xc3\xb6s'
p209
NsS'dicynene'
p210
NsS'sparteine_sulfate'
p211
NsS'roxi_1a_pharma'
p212
NsS'desglucotransvaaline'
p213
NsS'tachmalin'
p214
NsS'malipuran'
p215
NsS'fusaric_acid'
p216
NsS'oxaminiquine'
p217
NsS'latamoxef'
p218
NsS'5_pregnen_3_beta_ol_20_one'
p219
NsS'lomustine'
p220
NsS'fluspirilen_lindo'
p221
NsS'molsi_puren'
p222
NsS'sulfachlorpyridazine'
p223
NsS'reverin'
p224
NsS'dropropizine'
p225
NsS'neo_tomizol'
p226
NsS'iodopanoic_acid'
p227
NsS'cycloheximide'
p228
NsS'scillarenin_rhamnoside'
p229
NsS'quinacrine_dihyrochloride__(r)_isomer'
p230
NsS'3nitro10'
p231
NsS'oxamniquine'
p232
NsS'liserdol'
p233
NsS'diprophylline'
p234
NsS'cinchocaine'
p235
NsS'adiphenine'
p236
NsS'butamben'
p237
NsS'lynestrenol__(9_beta__10_alpha_17_alpha)_isomer'
p238
NsS'rilmenidine'
p239
NsS'mefexamide'
p240
NsS'vorinostat'
p241
NsS'ribrain'
p242
NsS'thiamcol'
p243
NsS'hecogenin'
p244
NsS'solvidont'
p245
NsS'alpha_yohimbine'
p246
NsS'tetraethylenepentamine'
p247
NsS'mepacrine'
p248
NsS'papaverine'
p249
NsS'piren_basan'
p250
NsS'alcuronium_chloride'
p251
NsS'123i_labeled_idoxuridine'
p252
NsS'naringenin'
p253
NsS'acetopromazine'
p254
NsS'trioxocholate'
p255
NsS'mono_hydrochloride__piribedil'
p256
NsS'resveratrol'
p257
NsS'sulfaphenylpyrazol'
p258
NsS'naringin'
p259
NsS'corbadrine'
p260
NsS'imipramine'
p261
((F1.0
S'imipramine_hydrochloride'
p262
tp263
S"Suffix-based-exact-matching ('imipramine', 'imipramine_hydrochloride') ('imipramine', 'imipramine_hydrochloride')"
p264
tp265
sS'nitrendidoc'
p266
NsS'balminil'
p267
NsS'tuscalman'
p268
NsS'chlorphenamine'
p269
NsS'n_phenylanthranilic_acid'
p270
NsS'serazide'
p271
NsS'2_aminobenzenesulfonamide'
p272
NsS'gefitinib'
p273
NsS'moxisylyte'
p274
NsS'novaminsulfone'
p275
NsS'triacetyloleandomycin'
p276
NsS'eulitop'
p277
NsS'hyoscyamine'
p278
NsS'tizertsin'
p279
NsS'metitepine'
p280
NsS'dihydrate__hexamethonium_dichloride'
p281
NsS'etilefrin'
p282
NsS'thiophenicol'
p283
NsS'e2__prostaglandin'
p284
NsS'opalgyne'
p285
NsS'vasylox'
p286
NsS'guanethidine'
p287
((F1.0
S'guanethidine_monosulfate'
p288
tp289
S"(st) matching: ratio , lcs, (key,drug) (keynorm,drugnorm 1.0 guanethidine ('guanethidine', 'guanethidine_monosulfate') ('guanethidine', 'guanethidine_monosulfate')"
p290
tp291
sS'5_iodo_2__deoxyuridine'
p292
NsS'n6_methyladenosine'
p293
NsS'lomefloxacin'
p294
NsS'tetracaine'
p295
((F1.0
S'tetracaine_hydrochloride'
p296
tp297
S"Suffix-based-exact-matching ('tetracaine', 'tetracaine_hydrochloride') ('tetracaine', 'tetracaine_hydrochloride')"
p298
tp299
sS'lasolvan'
p300
NsS'oleandomycin'
p301
NsS'meglumine__ioxaglate'
p302
NsS'rotenone'
p303
NsS'chlorcyclizine'
p304
NsS'mephenesin'
p305
NsS'xamoterol'
p306
NsS'econazole'
p307
((F1.0
S'econazole_nitrate'
p308
tp309
S"Suffix-based-exact-matching ('econazole', 'econazole_nitrate') ('econazole', 'econazole_nitrate')"
p310
tp311
sS'fursultiamin'
p312
NsS'rotesan'
p313
NsS'mefenetoin'
p314
NsS'novobiocin_calcium'
p315
NsS'guastil'
p316
NsS'etifenin'
p317
NsS'ciclosporin'
p318
NsS'idoxuridine__125i_labeled'
p319
NsS'idazoxan_hydrochloride'
p320
NsS'benzocaine_hydrobromide'
p321
NsS'3_nitropropionic_acid'
p322
NsS'dindevan'
p323
NsS'pentolonium'
p324
NsS'piretanide'
p325
NsS'luteoline'
p326
NsS'cyproterone__1alpha_2_alpha_9_beta_10_alpha_isomer'
p327
NsS'irinotecan'
p328
((F1.0
S'irinotecan_hydrochloride'
p329
tp330
S"Suffix-based-exact-matching ('irinotecan', 'irinotecan_hydrochloride') ('irinotecan', 'irinotecan_hydrochloride')"
p331
tp332
sS'sulfafurazole'
p333
NsS'betahistine_hydrochloride'
p334
NsS'molsidomin_stada'
p335
NsS'lisuride_maleate__(8beta)_isomer'
p336
NsS'methylergol_carbamide'
p337
NsS'avlocardyl'
p338
NsS'etilefrine'
p339
NsS'acetylbenzoylaconine'
p340
NsS'domperidone'
p341
NsS'sulfathiazole'
p342
NsS'yomesan'
p343
NsS'tyrphostin_ag_1478'
p344
NsS'harmine'
p345
NsS'diperchlorate__hexamethonium'
p346
NsS'ethamsylate'
p347
NsS'rompun'
p348
NsS'sulfaphenazole'
p349
NsS'conessine'
p350
NsS'cefapirin'
p351
NsS'glaphenine'
p352
NsS'motilium'
p353
NsS'betahistine'
p354
NsS'clorgiline'
p355
NsS'fosfosal'
p356
NsS'caffeic_acid'
p357
NsS'ursolite'
p358
NsS'panacur'
p359
NsS'coralyne'
p360
NsS'puromycin_dihydrochloride'
p361
NsS'tiabendazole'
p362
NsS'dexpropranolol'
p363
NsS'naftifine'
p364
((F1.0
S'naftifine_hydrochloride'
p365
tp366
S"Suffix-based-exact-matching ('naftifine', 'naftifine_hydrochloride') ('naftifine', 'naftifine_hydrochloride')"
p367
tp368
sS'betapressin'
p369
NsS'rimexolone'
p370
NsS'biotin_hermes'
p371
NsS'parfenac'
p372
NsS'megestrol'
p373
((F1.0
S'megestrol_acetate'
p374
tp375
S"Suffix-based-exact-matching ('megestrol', 'megestrol_acetate') ('megestrol', 'megestrol_acetate')"
p376
tp377
sS'streptozotocin'
p378
NsS'dexpanthenol'
p379
NsS'1_hydroxyethylidene_1_1_bisphosphonate'
p380
NsS'n_acetyl_l_aspartic_acid'
p381
NsS'niclosamide__2_aminoethanol_(1:1)'
p382
NsS'ethanehydroxyphosphate'
p383
NsS'procaine'
p384
((F1.0
S'procaine_hydrochloride'
p385
tp386
S"Suffix-based-exact-matching ('procaine', 'procaine_hydrochloride') ('procaine', 'procaine_hydrochloride')"
p387
tp388
sS'dehydroepiandrosterone'
p389
NsS'hydrochloride__zimeldine'
p390
NsS'zoxazolamine'
p391
NsS'norephedrine'
p392
NsS'apirachol'
p393
NsS'nootrop'
p394
NsS'practolol__eralzdin'
p395
NsS'betaserc'
p396
NsS'cyclic_adenosine_monophosphate'
p397
NsS'acid__deoxyursocholic'
p398
NsS'acid__ursodeoxycholic'
p399
NsS'seneciphylline'
p400
NsS'd_sparteine'
p401
NsS'fusidate_sodium'
p402
NsS'noramidopyrine_methanesulfonate_sodium'
p403
NsS'triludan'
p404
NsS'pimethixene'
p405
NsS'securinine'
p406
NsS'cyater'
p407
NsS'1_hydroxyethane_1_1_diphosphonate'
p408
NsS'tolazoline_monohydrochloride'
p409
NsS'dothiepin'
p410
NsS'spaglumic_acid'
p411
NsS'benperidolneuraxpharm'
p412
NsS'emetine'
p413
NsS'3_nitro_10'
p414
NsS'pralidoxime'
p415
((F1.0
S'pralidoxime_chloride'
p416
tp417
S"Suffix-based-exact-matching ('pralidoxime', 'pralidoxime_chloride') ('pralidoxime', 'pralidoxime_chloride')"
p418
tp419
sS'domperidon_hexal'
p420
NsS'apomorphine'
p421
NsS'3_acetamidocoumarin'
p422
NsS'amprol'
p423
NsS'ambrohexal'
p424
NsS'gallamine_triethiodide'
p425
NsS'artemisinin'
p426
NsS'hexamethonium_dichloride_dihydrate'
p427
NsS'equilin'
p428
NsS'dichloride__dequalinium'
p429
NsS'esmacen'
p430
NsS'3_alpha_hydroxy_5_beta_androstan_17_one'
p431
NsS'sulfadimethoxine'
p432
NsS'oligomycin'
p433
NsS'terfenidine'
p434
NsS'enteroseptol'
p435
NsS'methiothepin'
p436
NsS'nitrate__rolitetracycline'
p437
NsS'biperiden'
p438
NsS'atropine_methonitrate'
p439
NsS'cinchonine'
p440
NsS'sulfabenzpyrazine'
p441
NsS'arecaline'
p442
NsS'metamizole_sodium'
p443
NsS'durabezur'
p444
NsS'capval_tropfen'
p445
NsS'mometasone'
p446
((F1.0
S'mometasone_furoate'
p447
tp448
S"Suffix-based-exact-matching ('mometasone', 'mometasone_furoate') ('mometasone', 'mometasone_furoate')"
p449
tp450
sS'isoxsuprine'
p451
NsS'nefopam'
p452
NsS'5_beta_androsterone'
p453
NsS'cefalonium'
p454
NsS'fludroxycortide'
p455
NsS'bambuterol'
p456
NsS'pyocefal'
p457
NsS'antazoline'
p458
NsS'tinaderm'
p459
NsS'pepstatin'
p460
NsS'dihydrochloride__trimetazidine'
p461
NsS'deacura'
p462
NsS'hydrochloride__pargyline'
p463
NsS'nifluril'
p464
NsS'duradermal'
p465
NsS'moroxydine'
p466
NsS'berocillin'
p467
NsS'mevalolactone'
p468
NsS'syntostigmine'
p469
NsS'2_(1_piperazinyl)quinoline'
p470
NsS'eti_puren'
p471
NsS'clenbuterol'
p472
NsS'adipiodone'
p473
NsS'molsicor'
p474
NsS'santonin'
p475
NsS'bacampicillin'
p476
NsS'memo_puren'
p477
NsS'dopergine'
p478
NsS'tomatidine'
p479
NsS'nitrendipine'
p480
NsS'mepenzolate_bromide'
p481
NsS'phosphate__antazoline'
p482
NsS'polstigmine'
p483
NsS'vanoxerine'
p484
NsS'urdrim'
p485
NsS'terazosin'
p486
((F1.0
S'terazosin_hydrochloride'
p487
tp488
S"Suffix-based-exact-matching ('terazosin', 'terazosin_hydrochloride') ('terazosin', 'terazosin_hydrochloride')"
p489
tp490
sS'diflorasone'
p491
((F1.0
S'diflorasone_diacetate'
p492
tp493
S"Suffix-based-exact-matching ('diflorasone', 'diflorasone_diacetate') ('diflorasone', 'diflorasone_diacetate')"
p494
tp495
sS'isoxicam'
p496
NsS'mebhydrolin'
p497
NsS'piperidolate'
p498
NsS'canrenoic_acid'
p499
NsS'chlorisept'
p500
NsS'retrorsine'
p501
NsS'etiocholanolone'
p502
NsS'cinnarizine__(e)_isomer'
p503
NsS'ringelheimer_pulmonal'
p504
NsS'dequalinium_diacetate'
p505
NsS'harmaline'
p506
NsS'ornidazole'
p507
NsS'altizide'
p508
NsS'butacaine'
p509
NsS'oxedrine'
p510
NsS'pgf2alpha'
p511
NsS'hydrochloride__flunarizine'
p512
NsS'n_acetylmuramic_acid'
p513
NsS'5_chloro_7_iodo_8_quinolinol'
p514
NsS'etidronic_acid'
p515
NsS'pipram'
p516
NsS'propanolol'
p517
NsS'hydrochloride__cefotiam'
p518
NsS'acetophenetidin'
p519
NsS'sparteine__(7s_(7alpha_7aalpha_14alpha_14abeta))_isomer'
p520
NsS'vasartel'
p521
NsS'abbott_48999'
p522
NsS'cisaken'
p523
NsS'arachidonic_acid__cerium_salt__(all_z)_isomer'
p524
NsS'urapidil'
p525
NsS'5_5_dimethyl_2_4_oxazolidinedione'
p526
NsS'skimmianine'
p527
NsS'scriptaid'
p528
NsS'diclofenamide'
p529
NsS'nicergolin_ratiopharm'
p530
NsS'pimafucin'
p531
NsS'deposul'
p532
NsS'chlorprotixen'
p533
NsS'metamizol'
p534
NsS'fenbufen'
p535
NsS'metadrenaline'
p536
NsS'docosahexaenoic_acid_ethyl_ester'
p537
NsS'uropipemid'
p538
NsS'methacholine'
p539
NsS'isopropamide_iodide'
p540
NsS'siquil'
p541
NsS'phenantoin'
p542
NsS'ciloprost'
p543
NsS'gurgell\xc3\xb6sung_ratiopharm'
p544
NsS'etamivan'
p545
NsS'anisomycin'
p546
NsS'pirlindole'
p547
NsS'pridazole'
p548
NsS'xilamide'
p549
NsS'nialamide'
p550
NsS'berotek'
p551
NsS'denatonium_benzoate'
p552
NsS'4_amino_1_5_dimethyl_2_phenyl_3h_pyrazolone'
p553
NsS'3_(2_(4_(4_fluorobenzoyl)piperidinol)ethyl)_2_4(1h_3h)_quinazolinedione'
p554
NsS'sulpyrin'
p555
NsS'iloprost'
p556
NsS'nitrendipin_beta'
p557
NsS'metixene'
p558
NsS'acifugan'
p559
NsS'trimethylcolchicinic_acid'
p560
NsS'molsidomin_heumann'
p561
NsS'lycorine'
p562
NsS'yohimbic_acid'
p563
NsS'esculin'
p564
NsS'tennecetin'
p565
NsS'etofenamate'
p566
NsS'nitrensal'
p567
NsS'androsterone'
p568
NsS'gly_his_lys'
p569
NsS'8_methyl_n_vanillyl_6_nonenamide'
p570
NsS'talampicillin'
p571
NsS'fenoterol_hydrochloride'
p572
NsS'ronidazole'
p573
NsS'cytisine'
p574
NsS'fluticasone'
p575
((F1.0
S'fluticasone_propionate'
p576
tp577
S"Suffix-based-exact-matching ('fluticasone', 'fluticasone_propionate') ('fluticasone', 'fluticasone_propionate')"
p578
tp579
sS'eglonyl'
p580
NsS'pronetalol'
p581
NsS'spiramycin'
p582
NsS'alpheprol'
p583
NsS'fumarate__xamoterol'
p584
NsS'zeasorb'
p585
NsS'dihydrochloride__emetine'
p586
NsS'iodixanol'
p587
NsS'harmol'
p588
NsS'diethylaminoethyldiphenylpropyl_acetate'
p589
NsS'brinedine'
p590
NsS'salsolidin'
p591
NsS'levcycloserine'
p592
NsS'minaprine'
p593
NsS'solasodine'
p594
NsS'nisoxetine'
p595
NsS'cytochalasin_b'
p596
NsS'sodium_azlocillin'
p597
NsS'tiapride'
p598
NsS'neogama'
p599
NsS'gabacet'
p600
NsS'mianserin'
p601
NsS'cyclic_amp__dibutyryl'
p602
NsS'gallamine_triethochloride'
p603
NsS'troleandomycin'
p604
NsS'mesalazine'
p605
NsS'butirosin'
p606
NsS'paracetamol'
p607
NsS'restryl'
p608
NsS'carcinine'
p609
NsS'abamectin'
p610
NsS'vinpocetine'
p611
NsS'prostaglandin_f2_alpha'
p612
NsS'pyridoxine'
p613
((F1.0
S'pyridoxine_hydrochloride'
p614
tp615
S"Suffix-based-exact-matching ('pyridoxine', 'pyridoxine_hydrochloride') ('pyridoxine', 'pyridoxine_hydrochloride')"
p616
tp617
sS'flavoquine'
p618
NsS'harmalol'
p619
NsS'bezafibrate'
p620
NsS'prestwick_1085'
p621
NsS'prestwick_1082'
p622
NsS'prestwick_1083'
p623
NsS'prestwick_1080'
p624
NsS'clioquinol'
p625
NsS'cholestil'
p626
NsS'monensin'
p627
NsS'flavamed'
p628
NsS'enilconazole'
p629
NsS'suramin'
p630
NsS'3_acetylcoumarin'
p631
NsS'quercetin'
p632
NsS'thioperamide'
p633
NsS'haloapor'
p634
NsS'butoconazole'
p635
((F1.0
S'butoconazole_nitrate'
p636
tp637
S"Suffix-based-exact-matching ('butoconazole', 'butoconazole_nitrate') ('butoconazole', 'butoconazole_nitrate')"
p638
tp639
sS'dehydrocholic_acid__magnesium_salt'
p640
NsS'acocantherin'
p641
NsS'ikarugamycin'
p642
NsS'4h_1_benzopyran_4_one__7_((6_o_(6_deoxy_alpha_l_mannopyranosyl)_beta_d_glucopyranosyl)oxy)_2_3_dihydro_5_hydroxy_2_(3_hydroxy_4_methoxyphenyl)___(s)_'
p643
NsS'quipazine'
p644
NsS'bromopride'
p645
NsS'metacycline'
p646
NsS'benperidol_neuraxpharm'
p647
NsS'ambilhar'
p648
NsS'donalgin'
p649
NsS'betulinic_acid'
p650
NsS'aptin_duriles'
p651
NsS'chloride__hexamethonium'
p652
NsS'sulphorthodimethoxine'
p653
NsS'felbinac'
p654
NsS'gossypol__(_)_isomer'
p655
NsS'meptazinol_hydrochloride'
p656
NsS'ambrobeta'
p657
NsS'picotamide'
p658
NsS'sulpor'
p659
NsS'nitrendipin_heumann'
p660
NsS'surbronc'
p661
NsS'desuric'
p662
NsS'bicuculline'
p663
NsS'phosphate__oleandomycin'
p664
NsS'4_methylumbelliferone'
p665
NsS'dichloride_dihydrate__hexamethonium'
p666
NsS'convallatoxigenin'
p667
NsS'7_hydroxy_4_methyl_coumarin'
p668
NsS'sklerofibrat'
p669
NsS'sulfamerazine'
p670
NsS'calcium_pantothenate'
p671
NsS'monocrotaline_hydrochloride_(13alpha_14alpha)_isomer'
p672
NsS'sulfametoxydiazine'
p673
NsS'todrazoline'
p674
NsS'iodide__gallamine_triethyl'
p675
NsS'difflam'
p676
NsS'ionomycin'
p677
NsS'tribenoside'
p678
NsS'napelline'
p679
NsS'betahistine_dihydrobromide'
p680
NsS'oxybenzone'
p681
NsS'baypress'
p682
NsS'diiodide__hexamethonium'
p683
NsS'psicocen'
p684
NsS'benfotiamine'
p685
NsS'actinospectacin'
p686
NsS'4_5_dehydrogentamicin'
p687
NsS'ambroxol'
p688
NsS'cytospaz'
p689
NsS'ioxaglate__methylglucamine'
p690
NsS'novo_domperidone'
p691
NsS'3_aminobenzamide'
p692
NsS'iobenguane'
p693
((F1.0
S'iobenguane_sulfate_i'
p694
tp695
S"(st) matching: ratio , lcs, (key,drug) (keynorm,drugnorm 1.0 iobenguane ('iobenguane', 'iobenguane_sulfate_i') ('iobenguane', 'iobenguane_sulfate_i')"
p696
tp697
sS'acid__3_caffeoylquinic'
p698
NsS'mecamylamine'
p699
((F1.0
S'mecamylamine_hydrochloride'
p700
tp701
S"Suffix-based-exact-matching ('mecamylamine', 'mecamylamine_hydrochloride') ('mecamylamine', 'mecamylamine_hydrochloride')"
p702
tp703
sS'niflactol'
p704
NsS'vagi_hex'
p705
NsS'acetylpromazine'
p706
NsS'gen_gliclazide'
p707
NsS'ethoxyquin'
p708
NsS'lorglumide'
p709
NsS'methoxamine'
p710
NsS'pregnenolone'
p711
NsS'sulfadoxine'
p712
NsS'ampicillin__phthalidyl'
p713
NsS'diphenylpyraline'
p714
NsS'bayer_2353'
p715
NsS'monocrotaline'
p716
NsS'prestwick_642'
p717
NsS'piperine'
p718
NsS'homatropine'
p719
((F1.0
S'homatropine_methylbromide'
p720
tp721
S"Suffix-based-exact-matching ('homatropine', 'homatropine_methylbromide') ('homatropine', 'homatropine_methylbromide')"
p722
tp723
sS'pramocaine'
p724
NsS'cicloheximide'
p725
NsS'zelmid'
p726
NsS'15(s)_15_methylprostaglandin_e2'
p727
NsS'methoin'
p728
NsS'dimethyloxazolidinedione'
p729
NsS'scoulerine'
p730
NsS'iocetamic_acid'
p731
NsS'genaspor'
p732
NsS'hydrochloride__oxymetazoline'
p733
NsS'thalidomide'
p734
NsS'novalgin'
p735
NsS'silentan_nefopam'
p736
NsS'alpha_isosparteine'
p737
NsS'talusin'
p738
NsS'hydrastinine'
p739
NsS'cerepar_n'
p740
NsS'phenformin'
p741
NsS'raubasine'
p742
NsS'nitrendipincorax'
p743
NsS'fipexide'
p744
NsS'acemetacin'
p745
NsS'gabexate_monomethanesulfonate'
p746
NsS'genisteine_alkaloid'
p747
NsS'butein'
p748
NsS'sulfamethoxypyridazine'
p749
NsS'genistein'
p750
NsS'bromperidol'
p751
NsS'prasterone'
p752
NsS'crystallinic_acid'
p753
NsS'methapyrilene'
p754
NsS'alfaxalone'
p755
NsS'molsi_1a_pharma'
p756
NsS'dexatrim'
p757
NsS'beza_puren'
p758
NsS'3h_pyrido(3_4_b)indole__4_9_dihydro_7_methoxy_1_methyl_'
p759
NsS'efortil'
p760
NsS'normelubrine'
p761
NsS'pivampicillin'
p762
NsS'prestwick_860'
p763
NsS'iodide__hexamethonium'
p764
NsS'lobelanidine'
p765
NsS'prestwick_864'
p766
NsS'hydrochloride__talampicillin'
p767
NsS'disodium_1_hydroxyethylene_diphosphonate'
p768
NsS'lisuride_mesylate'
p769
NsS'trapidil'
p770
NsS'1_(o_allylphenoxy)_3_(isopropylamino)_2_propanol'
p771
NsS'pervincamine'
p772
NsS'isosorbide'
p773
((F1.0
S'isosorbide_dinitrate'
p774
tp775
S"Suffix-based-exact-matching ('isosorbide', 'isosorbide_dinitrate') ('isosorbide', 'isosorbide_dinitrate')"
p776
tp777
sS'morsydomine'
p778
NsS'withaferin_a'
p779
NsS'chloropyramine'
p780
NsS'sparteine__(7r_(7alpha_7abeta_14alpha_14abeta))_isomer'
p781
NsS'para_aminohippuric_acid'
p782
NsS'wortmannin'
p783
NsS'trivastal'
p784
NsS'rauverid'
p785
NsS'dequalinium_diundecenoate'
p786
NsS'rolitetracycline_mononitrate__sesquihydrate'
p787
NsS'practolol'
p788
NsS'methylarecaidin'
p789
NsS'cantharidin'
p790
NsS'seryltrihydroxybenzylhydrazine'
p791
NsS'benserazide'
p792
NsS'novobiocin__monosodium_salt'
p793
NsS'levamisole_hydrochloride'
p794
NsS'sodium_fusidate'
p795
NsS'fluorocurarine'
p796
NsS'tocainide__(+_)_isomer'
p797
NsS'methiothepin_maleate'
p798
NsS'me_ccnu'
p799
NsS'dilazep'
p800
NsS'fusidic_acid'
p801
NsS'spectinomycin_dihydrochloride__pentahydrate'
p802
NsS'masoprocol'
p803
NsS'alfuzosin'
p804
((F1.0
S'alfuzosin_hydrochloride'
p805
tp806
S"Suffix-based-exact-matching ('alfuzosin', 'alfuzosin_hydrochloride') ('alfuzosin', 'alfuzosin_hydrochloride')"
p807
tp808
sS'bergenin'
p809
NsS'levomepromazine'
p810
NsS'benzocaine'
p811
NsS'cholylglycine'
p812
NsS'imipenem'
p813
((F1.0
S'imipenem_and_cilastatin'
p814
tp815
S"(st) matching: ratio , lcs, (key,drug) (keynorm,drugnorm 1.0 imipenem ('imipenem', 'imipenem_and_cilastatin') ('imipenem', 'imipenem_and_cilastatin')"
p816
tp817
sS'disodium_etidronate'
p818
NsS'eticlopride'
p819
NsS'katrum'
p820
NsS'suxibuzone'
p821
NsS'aminoglutethimide'
p822
NsS'azapropazone'
p823
NsS'sertaconazole'
p824
NsS'etidronate__sodium'
p825
NsS'maleate__domperidone'
p826
NsS'lysuride_hydrogen_maleate'
p827
NsS'ethyl_aminobenzoate'
p828
NsS'clofilium_tosylate'
p829
NsS'arachidonyltrifluoromethane'
p830
NsS'triethiodide__gallamine'
p831
NsS'pyridinium__1_((4_amino_2_propyl_5_pyrimidinyl)methyl)_2_methyl___chloride_(1:1)'
p832
NsS'tetrandrine'
p833
NsS'cefsulodin'
p834
NsS'diundecenoate__dequalinium'
p835
NsS'alpha_clopenthixol'
p836
NsS'(+)_isoprenaline'
p837
NsS'midecamycin'
p838
NsS'chlorbutin'
p839
NsS'quinethazone'
p840
NsS'alfadolone'
p841
NsS'carbamide__methylergol'
p842
NsS'prestwick_685'
p843
NsS'acetyl_2_methylcholine_chloride'
p844
NsS'nu_domperidone'
p845
NsS'2_6_dimethylpiperidine'
p846
NsS'ebromin'
p847
NsS'calmidazolium'
p848
NsS'6_dehydro_9_beta_10_alpha_progesterone'
p849
NsS'nitren_acis'
p850
NsS'neostigmine_bromide'
p851
NsS'p_hydroxyphenylorciprenaline'
p852
NsS'lobeline'
p853
NsS'salsolinol'
p854
NsS'niprina'
p855
NsS'benfluorex'
p856
NsS'cyclonamine'
p857
NsS'propoxycaine'
p858
NsS'synthrom'
p859
NsS'sodium_oxolinate'
p860
NsS'bayotensin'
p861
NsS'prestwick_675'
p862
NsS'prestwick_674'
p863
NsS'streptomycin'
p864
((F1.0
S'streptomycin_sulfate'
p865
tp866
S"Suffix-based-exact-matching ('streptomycin', 'streptomycin_sulfate') ('streptomycin', 'streptomycin_sulfate')"
p867
tp868
sS'tocainide_hydrochloride'
p869
NsS'4_5_dianilinophthalimide'
p870
NsS'carbeneoxolone'
p871
NsS'hustenl\xc3\xb6ser__therapin'
p872
NsS'hesperetin_7_rhamnoglucoside'
p873
NsS'adrenam'
p874
NsS'astemizol_alonga'
p875
NsS'ketotifen'
p876
((F1.0
S'ketotifen_fumarate'
p877
tp878
S"Suffix-based-exact-matching ('ketotifen', 'ketotifen_fumarate') ('ketotifen', 'ketotifen_fumarate')"
p879
tp880
sS'sulindac_sulfide'
p881
NsS'lisuride_hydrochloride'
p882
NsS'chlorambucil'
p883
NsS'fisetin'
p884
NsS'dimesylate__quinacrine'
p885
NsS'2_(acetyloxy)_n_n_n_trimethyl_1_propanaminium_chloride'
p886
NsS'aconitine'
p887
NsS'procarbazine_monohydrobromide'
p888
NsS'hexamethylmelamine'
p889
NsS'17_alpha_ethynyltestosterone'
p890
NsS'fendiline_hydrochloride'
p891
NsS'piperlongumine'
p892
NsS'herpecin_l'
p893
NsS'cyclizine_hydrochloride'
p894
NsS'hydrate__levopropoxyphene_2_naphthalenesulfonate'
p895
NsS'alexidine'
p896
NsS'zimelidine_hydrochloride'
p897
NsS'imidamine'
p898
NsS'acid__flufenamic'
p899
NsS'cinnarizine'
p900
NsS'strophanthidin'
p901
NsS'thiamphenicol'
p902
NsS'sparteine_hydrochloride__(7r_(7alpha_7aalpha_14alpha_14abeta))_isomer'
p903
NsS'by_vertin'
p904
NsS'pyralgin'
p905
NsS'indoprofen'
p906
NsS'tineafax'
p907
NsS'verteporfin'
p908
NsS'digoxigenin'
p909
NsS'chloropyrazine'
p910
NsS'oleandocetin'
p911
NsS'prestwick_857'
p912
NsS'zardaverine'
p913
NsS'ursacholic_acid'
p914
NsS'spectam'
p915
NsS'canrenoate__potassium'
p916
NsS'ramifenazone'
p917
NsS'dolo_visano_m'
p918
NsS'valdecoxib'
p919
NsS'nimergoline'
p920
NsS'pulmonal_s'
p921
NsS'carbenoxolone_disodium_salt'
p922
NsS'antipyrine'
p923
NsS'fasudil'
p924
NsS'acid__iopanoic'
p925
NsS'monohydrobromide__procarbazine'
p926
NsS'hnmpa_(am)3'
p927
NsS'heptaminol'
p928
NsS'myosmine'
p929
NsS'demecolcine'
p930
NsS'fusidin'
p931
NsS'claramid'
p932
NsS'amiprilose'
p933
NsS'benzidamine'
p934
NsS'beta_isosparteine'
p935
NsS'atropine_sulfate__3(s)_endo_isomer'
p936
NsS'5_butyl_2_pyridinedicarboxylic_acid'
p937
NsS'rifedot'
p938
NsS'circo_maren'
p939
NsS'prestwick_920'
p940
NsS'xamoterol_hemifumarate'
p941
NsS'ifenprodil'
p942
NsS'soludactone'
p943
NsS'idoxuridine__3h_labeled'
p944
NsS'sitosterol'
p945
NsS'levopropoxyphene_2_naphthalenesulfonate_hydrate'
p946
NsS'spectinomycin'
p947
NsS'aminophenazone'
p948
NsS'prostaglandin_e2alpha'
p949
NsS'prepidil_gel'
p950
NsS'sinapsan'
p951
NsS'benzethonium_chloride'
p952
NsS'lysine__tetracycline_l_methylene'
p953
NsS'cantharidine'
p954
NsS'bayer_2502'
p955
NsS'remoxipride_monohydrochloride_monohydrate'
p956
NsS'gelopol'
p957
NsS'21_hydroxy_4_pregnene_3_20_dione'
p958
NsS'icavex'
p959
NsS'carwin'
p960
NsS'gossypol'
p961
NsS'spiramycine'
p962
NsS'18alpha_carbenoxolone'
p963
NsS'telepathine'
p964
NsS'tetryzoline'
p965
NsS'novo_benzydamine'
p966
NsS'glafenine'
p967
NsS'avatec'
p968
NsS'theobromine'
p969
NsS'novobiocin'
p970
NsS'dihydrochloride__pirenzepine'
p971
NsS'biopropazepan_trimethoxybenzoate'
p972
NsS'doxorubicin'
p973
((F1.0
S'doxorubicin_hydrochloride'
p974
tp975
S"Suffix-based-exact-matching ('doxorubicin', 'doxorubicin_hydrochloride') ('doxorubicin', 'doxorubicin_hydrochloride')"
p976
tp977
sS'loxapine'
p978
((F1.0
S'loxapine_succinate'
p979
tp980
S"Suffix-based-exact-matching ('loxapine', 'loxapine_succinate') ('loxapine', 'loxapine_succinate')"
p981
tp982
sS'nootropil'
p983
NsS'hexamethonium_dibromide_dihydrate'
p984
NsS'neostigmine'
p985
((F1.0
S'neostigmine_methylsulfate'
p986
tp987
S"Suffix-based-exact-matching ('neostigmine', 'neostigmine_methylsulfate') ('neostigmine', 'neostigmine_methylsulfate')"
p988
tp989
sS'ioxaglate_meglumine'
p990
NsS'azlocillin_sodium'
p991
NsS'roxigr\xc3\xbcn'
p992
NsS'meresa'
p993
NsS'viomycins'
p994
NsS'desisulpid'
p995
NsS'melatonin'
p996
NsS'acetylsalicylsalicylic_acid'
p997
NsS'acid__meso_nordihydroguaiaretic'
p998
NsS'vicemycetin'
p999
NsS'benzocaine_methanesulfonate'
p1000
NsS'doxylamine'
p1001
((F1.0
S'doxylamine_succinate'
p1002
tp1003
S"Suffix-based-exact-matching ('doxylamine', 'doxylamine_succinate') ('doxylamine', 'doxylamine_succinate')"
p1004
tp1005
sS'indometacin'
p1006
NsS'metergoline'
p1007
NsS'(+)_chelidonine'
p1008
NsS'veto_centre'
p1009
NsS'cerebroxine'
p1010
NsS'chicago_sky_blue_6b'
p1011
NsS'guanazolo'
p1012
NsS'butyl_hydroxybenzoate'
p1013
NsS'quinpirole'
p1014
NsS'roche__biotine'
p1015
NsS'delsoline'
p1016
NsS'sinthrome'
p1017
NsS'dihydrochloride__flunarizine'
p1018
NsS'n_lysinomethyltetracycline'
p1019
NsS'xamoterol__(s)_isomer'
p1020
NsS'alimemazine'
p1021
NsS'algopyrin'
p1022
NsS'ratio_domperidone'
p1023
NsS'bezafisal'
p1024
NsS'gelfert__biotin'
p1025
NsS'nifurazolidone'
p1026
NsS'guanadrel'
p1027
NsS'prestwick_664'
p1028
NsS'terfedura'
p1029
NsS'piperacetazine'
p1030
NsS'idoxuridine__123i_labeled'
p1031
NsS'skf_525a'
p1032
NsS'cuxabrain'
p1033
NsS'terguride'
p1034
NsS'tuberactinomycin_b'
p1035
NsS'valinomycin'
p1036
NsS'sparteine_monohydroiodide__(7r_(7alpha_7aalpha_14alpha_14abeta))_isomer'
p1037
NsS'isolithocholic_acid'
p1038
NsS'zaprinast'
p1039
NsS'p_aminohippurate'
p1040
((F0.875
S'aminohippurate_sodium'
p1041
tp1042
S"(st) matching: ratio , lcs, (key,drug) (keynorm,drugnorm 0.875 aminohippurate ('p_aminohippurate', 'aminohippurate_sodium') ('p_aminohippurate', 'aminohippurate_sodium')"
p1043
tp1044
sS'monosodium_salt_suramin'
p1045
NsS'jutapress'
p1046
NsS'monohydrochloride__xamoterol'
p1047
NsS'gargon'
p1048
NsS'pivamiser'
p1049
NsS'blebbistatin'
p1050
NsS'mebeverine'
p1051
NsS'tocainide_monohydrobromide__(r)_isomer'
p1052
NsS'mesylate__betahistine'
p1053
NsS'gastro_entericanis_biocanina'
p1054
NsS'remoxipride_monohydrochloride'
p1055
NsS'pyrantel'
p1056
NsS'quinacrine'
p1057
NsS'pivampicillin_monohydrochloride'
p1058
NsS'metrifonate'
p1059
NsS'zomepirac'
p1060
NsS'16_alpha_hydroxy_estradiol'
p1061
NsS'leucenine'
p1062
NsS'spiperone'
p1063
NsS'quinacrine_monoacetate'
p1064
NsS'5_alpha_androstan_3_alpha_ol_17_one'
p1065
NsS'flumetasone'
p1066
NsS'fursultiamin_hydrochloride'
p1067
NsS'vastensium'
p1068
NsS'diaglyk'
p1069
NsS'befibrat'
p1070
NsS'diphosphonate__disodium_1_hydroxyethylene'
p1071
NsS'cinnarizin_siegfried'
p1072
NsS'iopanoic_acid'
p1073
NsS'sulconazole'
p1074
NsS'tioguanine'
p1075
((F0.9
S'thioguanine'
p1076
tp1077
S"(st) matching: ratio , lcs, (key,drug) (keynorm,drugnorm 0.9 ioguanine ('tioguanine', 'thioguanine') ('tioguanine', 'thioguanine')"
p1078
tp1079
sS'dinobroxol'
p1080
NsS'acid__atractylic'
p1081
NsS'tetraverin'
p1082
NsS'biokur'
p1083
NsS'cyproheptadine'
p1084
((F1.0
S'cyproheptadine_hydrochloride'
p1085
tp1086
S"Suffix-based-exact-matching ('cyproheptadine', 'cyproheptadine_hydrochloride') ('cyproheptadine', 'cyproheptadine_hydrochloride')"
p1087
tp1088
sS'tiratricol'
p1089
NsS'arminol'
p1090
NsS'domperidona_gamir'
p1091
NsS'suramin__monosodium_salt'
p1092
NsS'amodiaquine_hydrochloride'
p1093
NsS'glycocholic_acid__sodium_salt'
p1094
NsS'ebselen'
p1095
NsS'epitiostanol'
p1096
NsS'glyade'
p1097
NsS'hydrochloride__lisuride'
p1098
NsS'16alpha_17beta_estriol'
p1099
NsS'metformin'
p1100
((F1.0
S'metformin_hydrochloride'
p1101
tp1102
S"Suffix-based-exact-matching ('metformin', 'metformin_hydrochloride') ('metformin', 'metformin_hydrochloride')"
p1103
tp1104
sS'4_aminophenazone'
p1105
NsS'3__4__5_7_tetrahydroxy_flavone'
p1106
NsS'carteolol'
p1107
((F1.0
S'carteolol_hydrochloride'
p1108
tp1109
S"Suffix-based-exact-matching ('carteolol', 'carteolol_hydrochloride') ('carteolol', 'carteolol_hydrochloride')"
p1110
tp1111
sS'nicergoline'
p1112
NsS'flunarizine_hydrochloride'
p1113
NsS'lullamin'
p1114
NsS'esculoside'
p1115
NsS'betonicine'
p1116
NsS'nipecotic_acid'
p1117
NsS'sulfamonomethoxine'
p1118
NsS'mucotablin'
p1119
NsS'epirizole'
p1120
NsS'apomorphine_chloride'
p1121
NsS'piracebral'
p1122
NsS'paralergin'
p1123
NsS'noscapine_hydrochloride'
p1124
NsS'ceforanide'
p1125
NsS'dihydrobromide__betahistine'
p1126
NsS'breezee'
p1127
NsS'cholanhmb'
p1128
NsS'ursodeoxycholic_acid'
p1129
NsS'noscapine'
p1130
NsS'carbarsone'
p1131
NsS'methotrimeprazine'
p1132
NsS'sydnopharm'
p1133
NsS'tetrahydroalstonine'
p1134
NsS'bitartrate__hexamethonium'
p1135
NsS'parbendazole'
p1136
NsS'p_butoxyphenylacethydroxamic_acid'
p1137
NsS'thioguanosine'
p1138
NsS'cefotiam_hydrochloride'
p1139
NsS'iproniazid'
p1140
NsS'fenformin'
p1141
NsS'fluvastatin'
p1142
((F1.0
S'fluvastatin_sodium'
p1143
tp1144
S"Suffix-based-exact-matching ('fluvastatin', 'fluvastatin_sodium') ('fluvastatin', 'fluvastatin_sodium')"
p1145
tp1146
sS'acid__piperamic'
p1147
NsS'rhamnoside__scillarenin'
p1148
NsS'zimeldine'
p1149
NsS'dicalcium_etidronate'
p1150
NsS'benzbromaron'
p1151
NsS'ginkgolide_a'
p1152
NsS'isoetarine'
p1153
NsS'altretamine'
p1154
NsS'sulphachlorpyridazine'
p1155
NsS'naftopidil'
p1156
NsS'oxolamine'
p1157
NsS'enoxin'
p1158
NsS'pyracetam'
p1159
NsS'arithmin'
p1160
NsS'galusan'
p1161
NsS'hexinawas'
p1162
NsS'kinetin'
p1163
NsS'azaguanine'
p1164
NsS'meclocycline'
p1165
NsS'molsidomin_ratiopharm'
p1166
NsS'kitasamycin_a3'
p1167
NsS'dipivefrine'
p1168
((F0.9090909090909091
S'dipivefrin_hydrochloride'
p1169
tp1170
S"(st) matching: ratio , lcs, (key,drug) (keynorm,drugnorm 0.909090909091 dipivefrin ('dipivefrine', 'dipivefrin_hydrochloride') ('dipivefrine', 'dipivefrin_hydrochloride')"
p1171
tp1172
sS'4_aminoantipyrine'
p1173
NsS'hc_toxin'
p1174
NsS'yohimbine'
p1175
NsS'zimelidin'
p1176
NsS'tocainide_monohydrochloride__(s)_isomer'
p1177
NsS'selectomycin'
p1178
NsS'prostenon'
p1179
NsS'amodiaquine'
p1180
NsS'niclosamide'
p1181
NsS'fenoterol'
p1182
NsS'yohimbine_houd\xc3\xa9'
p1183
NsS'dosulepin'
p1184
NsS'penbutolol_sulfate_(2:1)'
p1185
NsS'atsefen'
p1186
NsS'pms_domperidone'
p1187
NsS'hydrochloride__papaverine'
p1188
NsS'benzocaine_acetate'
p1189
NsS'bay_va_1470'
p1190
NsS'lisuride__(8alpha)_(+_)_isomer'
p1191
NsS'piracetam_rph'
p1192
NsS'domperidone_maleate'
p1193
NsS'alclometasone'
p1194
((F1.0
S'alclometasone_dipropionate'
p1195
tp1196
S"Suffix-based-exact-matching ('alclometasone', 'alclometasone_dipropionate') ('alclometasone', 'alclometasone_dipropionate')"
p1197
tp1198
sS'5_ethyl_3_methyl_5_phenylhydantoin'
p1199
NsS'sulfachloropyridazine'
p1200
NsS'velnacrine'
p1201
NsS'paratect'
p1202
NsS'diamicron'
p1203
NsS'hycanthone'
p1204
NsS'sulfate__penbutolol'
p1205
NsS'terfenadin_al'
p1206
NsS'radewerm'
p1207
NsS'carbenoxolone'
p1208
NsS'merbromin'
p1209
NsS'ketorolac'
p1210
((F1.0
S'ketorolac_tromethamine'
p1211
tp1212
S"(st) matching: ratio , lcs, (key,drug) (keynorm,drugnorm 1.0 ketorolac ('ketorolac', 'ketorolac_tromethamine') ('ketorolac', 'ketorolac_tromethamine')"
p1213
tp1214
sS'metanephrine'
p1215
NsS'sulformethoxine'
p1216
NsS'oxetacaine'
p1217
NsS'pirenperone'
p1218
NsS'betahistine_methanesulfonate'
p1219
NsS'thomasin'
p1220
NsS'trimethobenzamide'
p1221
((F1.0
S'trimethobenzamide_hydrochloride'
p1222
tp1223
S"Suffix-based-exact-matching ('trimethobenzamide', 'trimethobenzamide_hydrochloride') ('trimethobenzamide', 'trimethobenzamide_hydrochloride')"
p1224
tp1225
sS'pge2alpha'
p1226
NsS'dihydronorguaiaretic_acid'
p1227
NsS'propranolol'
p1228
((F1.0
S'propranolol_hydrochloride'
p1229
tp1230
S"Suffix-based-exact-matching ('propranolol', 'propranolol_hydrochloride') ('propranolol', 'propranolol_hydrochloride')"
p1231
tp1232
sS'lanatoside_c'
p1233
NsS'helveticoside'
p1234
NsS'succinylsulfathiazole'
p1235
NsS'hydrochloride_anhydrous__remoxipride'
p1236
NsS'rolitetracycline_nitrate'
p1237
NsS'flagecidin'
p1238
NsS'nicergobeta'
p1239
NsS'sebical'
p1240
NsS'etofylline'
p1241
NsS'monohydrochloride_monohydrate__remoxipride'
p1242
NsS'monohydrochloride__fursultiamin'
p1243
NsS'cinnarizin_ratiopharm'
p1244
NsS'serotonin'
p1245
NsS'famprofazone'
p1246
NsS'lynestrenol'
p1247
NsS'4_octopamine'
p1248
NsS'etanidazole'
p1249
NsS'hydrochloride__cyclizine'
p1250
NsS'atropine_oxide'
p1251
NsS'pyrenzepine'
p1252
NsS'acetazine'
p1253
NsS'heliotrine'
p1254
NsS'harman'
p1255
NsS'prenylamine'
p1256
NsS'monohydrochloride__quinacrine'
p1257
NsS'ferkel_spectam'
p1258
NsS'proxymetacaine'
p1259
NsS'fenspiride'
p1260
NsS'mephentermine_sulfate'
p1261
NsS'kalium_can._ratiopharm'
p1262
NsS'phenindione'
p1263
NsS'iopromide'
p1264
NsS'ethotoin'
p1265
NsS'arachidonic_acid__sodium_salt__(all_z)_isomer'
p1266
NsS'methyl_ccnu'
p1267
NsS'palmatine'
p1268
NsS'lymecycline'
p1269
NsS'syncumar'
p1270
NsS'nifuroxazide'
p1271
NsS'cyclizine'
p1272
NsS'dimethyloxalylglycine'
p1273
NsS'gastrozepin'
p1274
NsS'p\xc3\xa4diamuc'
p1275
NsS'acid__5_butyl_2_pyridinedicarboxylic'
p1276
NsS'phensuximide'
p1277
NsS'ouabain'
p1278
NsS'staurosporine'
p1279
NsS'atractyloside'
p1280
NsS'amdinocillin_pivoxil'
p1281
NsS'mononitrate__rolitetracycline'
p1282
NsS'hexamethonium'
p1283
NsS'trolox_c'
p1284
NsS'mibrox'
p1285
NsS'dequalinium'
p1286
NsS'hydrochloride__propranolol'
p1287
NsS'atebrin'
p1288
NsS'azacyclonol'
p1289
NsS'acetylbenzoyl_aconine'
p1290
NsS'dextrosulfenidol'
p1291
NsS'bayluscide'
p1292
NsS'quinostatin'
p1293
NsS'roxibeta'
p1294
NsS'3_o_hemisuccinate__glycyrrhetinic_acid'
p1295
NsS'racecadotril'
p1296
NsS'capzasin'
p1297
NsS'fursultiamine'
p1298
NsS'exisulind'
p1299
NsS'ordiflazine'
p1300
NsS'cefamandole'
p1301
NsS'ursobilane'
p1302
NsS'prozerin'
p1303
NsS'aciclovir'
p1304
((F0.8888888888888888
S'ganciclovir'
p1305
tp1306
S"(st) matching: ratio , lcs, (key,drug) (keynorm,drugnorm 0.888888888889 ciclovir ('aciclovir', 'ganciclovir') ('aciclovir', 'ganciclovir')"
p1307
tp1308
sS'iodochloroxyquinoline'
p1309
NsS'acid__fusidic'
p1310
NsS'oftan_idu'
p1311
NsS'oxymetazoline'
p1312
NsS'splitomicin'
p1313
NsS'antiphlogistine_rub_a_535_capsaicin'
p1314
NsS'phenylpropanolamine'
p1315
NsS'mtw_molsidomin'
p1316
NsS'digitoxigenin'
p1317
NsS'propoxyphene__(r_(r*_s*))_isomer'
p1318
NsS'vasoxin'
p1319
NsS'natamycin'
p1320
NsS'bephenium_hydroxynaphthoate'
p1321
NsS'glianimon'
p1322
NsS'semustine'
p1323
NsS'nicergolin_von_ct'
p1324
NsS'viomycin'
p1325
NsS'stas_gurgell\xc3\xb6sung_n'
p1326
NsS'maleate__nomifensine'
p1327
NsS'(_)_atenolol'
p1328
NsS'mucofips'
p1329
NsS'roxithro_lich'
p1330
NsS'ketanserin'
p1331
NsS'diertine'
p1332
NsS'prasterone__3_alpha_isomer'
p1333
NsS'alpha_estradiol'
p1334
NsS'nomegestrol'
p1335
NsS'salmosan_t'
p1336
NsS'arachidonic_acid__lithium_salt__(all_z)_isomer'
p1337
NsS'mtw_roxithromycin'
p1338
NsS'4_hydroxyphenazone'
p1339
NsS'bezacur'
p1340
NsS'cardiorythmine'
p1341
NsS'hextril'
p1342
NsS'benzbromarone'
p1343
NsS'kaempferol'
p1344
NsS'ampyrone'
p1345
NsS'thymoxamine'
p1346
NsS'pindione'
p1347
NsS'thiamazole'
p1348
NsS'piracetam'
p1349
NsS'thioproperazine'
p1350
NsS'piribedil'
p1351
NsS'hexestrol'
p1352
NsS'molsihexal'
p1353
NsS'protoveratrine_a'
p1354
NsS'2_deoxy_d_glucose'
p1355
NsS'prestwick_559'
p1356
NsS'proscillaridin_a'
p1357
NsS'astemizole'
p1358
NsS'dihydroergocristine'
p1359
NsS'alpha__prostaglandin_e2'
p1360
NsS'lasalocid'
p1361
NsS'norcyclobenzaprine'
p1362
NsS'corynanthine'
p1363
NsS'gossypol__(+)_isomer'
p1364
NsS'cefotiam'
p1365
NsS'lidoflazine'
p1366
NsS'kawain'
p1367
NsS'siseptin'
p1368
NsS'sulfabenzamide'
p1369
NsS'hydrochloride__dothiepin'
p1370
NsS'ratio_benzydamine'
p1371
NsS'suloctidil_hydrochloride'
p1372
NsS'orlistat'
p1373
NsS'sodium_dehydrocholate'
p1374
NsS'amylocaine'
p1375
NsS'amp__dibutyryl_cyclic'
p1376
NsS'syrosingopine'
p1377
NsS'acrichine'
p1378
NsS'sporiline'
p1379
NsS'ulgescum'
p1380
NsS'scopolamine_n_oxide'
p1381
NsS'morantel'
p1382
NsS's_propranolol'
p1383
NsS'ioversol'
p1384
NsS'tolnaftat_purder_n'
p1385
NsS'triaminic_dm'
p1386
NsS'molsidomine'
p1387
NsS'dioxybenzone'
p1388
NsS'methanesulfonate__benzocaine'
p1389
NsS'cycloserine'
p1390
NsS'nomifensine_maleate_(1:1)'
p1391
NsS'turimycin_a5'
p1392
NsS'cymarigenin'
p1393
NsS'antazoline_hydrochloride'
p1394
NsS'resocyanine'
p1395
NsS'oxalamic_acid'
p1396
NsS'geldanamycin'
p1397
NsS'stylomycin'
p1398
NsS'benzydamine'
p1399
NsS'visammin'
p1400
NsS'isometheptene'
p1401
NsS'epivincamine'
p1402
NsS'stashustenl\xc3\xb6ser'
p1403
NsS'pridinol'
p1404
NsS'physiomycine'
p1405
NsS'embonate__noscapine_hydrogen'
p1406
NsS'propidium_iodide'
p1407
NsS'brinzolamide'
p1408
NsS'acid__oxamidic'
p1409
NsS'monensin_a_sodium_complex'
p1410
NsS'roxithromycin'
p1411
NsS'moxonidine'
p1412
NsS'nitrendipin_atid'
p1413
NsS'bucladesine__barium_(1:1)_salt'
p1414
NsS'dibutyryl_adenosine_3__5__monophosphate'
p1415
NsS'glycyrrhetinic_acid_3_o_hemisuccinate'
p1416
NsS'6_ethoxy_2_2_4_trimethyl_1_2_dihydroquinoline'
p1417
NsS'trioxysalen'
p1418
NsS'hesperidin'
p1419
NsS'ethylphenylephrine'
p1420
NsS'maleate__lisuride'
p1421
NsS'pirenzepine'
p1422
NsS'stanicide'
p1423
NsS'mercurochrome'
p1424
NsS'levopropoxyphene'
p1425
NsS'abbott_46811'
p1426
NsS'trimetazidine_dihydrochloride'
p1427
NsS'triflusal'
p1428
NsS'methylbenzethonium_chloride'
p1429
NsS'salt_etidronate__tetrapotassium'
p1430
NsS'dorzolamide'
p1431
((F1.0
S'dorzolamide_hydrochloride'
p1432
tp1433
S"Suffix-based-exact-matching ('dorzolamide', 'dorzolamide_hydrochloride') ('dorzolamide', 'dorzolamide_hydrochloride')"
p1434
tp1435
sS'phenanthridinone'
p1436
NsS'sodium__cefsulodin'
p1437
NsS'napsylate_hydrate__levopropoxyphene'
p1438
NsS'sulfaquinoxaline'
p1439
NsS'hydrochloride__betahistine'
p1440
NsS'antimycin_a'
p1441
NsS'calcium_fusarate'
p1442
NsS'pyrithyldione'
p1443
NsS'quipazine_maleate'
p1444
NsS'gel__prepidil'
p1445
NsS'norsynephrine'
p1446
NsS'tolfenamic_acid'
p1447
NsS'priscol'
p1448
NsS'monohydrochloride__tiapride'
p1449
NsS'circupon'
p1450
NsS'g_strophanthin'
p1451
NsS'gibberellic_acid'
p1452
NsS'ioxaglic_acid_monosodium_salt'
p1453
NsS'telenzepine'
p1454
NsS'betahistin_ratiopharm'
p1455
NsS'methampyrone'
p1456
NsS'mephentermine'
p1457
NsS'tantum_topico'
p1458
NsS'gastrocure'
p1459
NsS'vitamin_b2'
p1460
NsS'rofecoxib'
p1461
NsS'analergine'
p1462
NsS'sulmazole'
p1463
NsS'esculetin'
p1464
NsS'deferoxamine'
p1465
((F1.0
S'deferoxamine_mesylate'
p1466
tp1467
S"Suffix-based-exact-matching ('deferoxamine', 'deferoxamine_mesylate') ('deferoxamine', 'deferoxamine_mesylate')"
p1468
tp1469
sS'isocarboxazid'
p1470
NsS'acetylsalicylic_acid'
p1471
NsS'cobalt_chloride'
p1472
NsS'vincimax'
p1473
NsS'acepromazine'
p1474
NsS'4_aminohippuric_acid'
p1475
NsS'dl_serine_2_((2_3_4_trihydroxyphenyl)methyl)hydrazide'
p1476
NsS'pheneticillin'
p1477
NsS'amprolium'
p1478
NsS'acetyl_beta_methylcholine'
p1479
NsS'apigenin'
p1480
NsS'phenylindanedione'
p1481
NsS'narcotine'
p1482
NsS'luteolin'
p1483
NsS'aminohippuric_acid'
p1484
NsS'(_)_catechin'
p1485
NsS'etidronate__dicalcium'
p1486
NsS'planipart'
p1487
NsS'phenacetin'
p1488
NsS'nocodazole'
p1489
NsS'profenamine'
p1490
NsS'hydrochloride__rolitetracycline'
p1491
NsS'nitrendepat'
p1492
NsS'ricinine'
p1493
NsS'triethyl_iodide__gallamine'
p1494
NsS'pivamdinocillin'
p1495
NsS'viocin'
p1496
((F1.0
S'viocin_sulfate'
p1497
tp1498
S"Suffix-based-exact-matching ('viocin', 'viocin_sulfate') ('viocin', 'viocin_sulfate')"
p1499
tp1500
sS'cinarizina_inkey'
p1501
NsS'idoxuridine__radical_ion_(1_)'
p1502
NsS'azaperone'
p1503
NsS'corticosterone'
p1504
NsS'hippophaine'
p1505
NsS'3_alpha_hydroxy_5_alpha_androstan_17_one'
p1506
NsS'genestein'
p1507
NsS'gramurin'
p1508
NsS'von_ct__nicergolin'
p1509
NsS'4_aminobenzoic_acid_ethyl_ester'
p1510
NsS'arachidonic_acid__(all_z)_isomer__3h_labeled'
p1511
NsS'no\xc3\xa9_socopharm_hydrochloride'
p1512
NsS'mianserin_hydrochloride'
p1513
NsS'rottlerin'
p1514
NsS'tolazoline'
p1515
NsS'levamisole'
p1516
NsS'celiomycin'
p1517
NsS'16_phenyltetranorprostaglandin_e2'
p1518
NsS'decamethonium_bromide'
p1519
NsS'methylsulfadiazine'
p1520
NsS'tolvon'
p1521
NsS'flunixin'
p1522
NsS'ajmaline_hydrochloride'
p1523
NsS'adrenosterone'
p1524
NsS'melopat'
p1525
NsS'torasemide'
p1526
NsS'lisuride'
p1527
NsS'sulfaguanidine'
p1528
NsS'fludrocortisone'
p1529
((F1.0
S'fludrocortisone_acetate'
p1530
tp1531
S"Suffix-based-exact-matching ('fludrocortisone', 'fludrocortisone_acetate') ('fludrocortisone', 'fludrocortisone_acetate')"
p1532
tp1533
sS'prestwick_967'
p1534
NsS'selexid'
p1535
NsS'thapsigargin'
p1536
NsS'hexamethonium_diperchlorate'
p1537
NsS'azufibrat'
p1538
NsS'mepirizole'
p1539
NsS'stugeron'
p1540
NsS'benzbromaron_ratiopharm'
p1541
NsS'dinoprost'
p1542
NsS'dihydroergocristine_monomesylate'
p1543
NsS'estrofan'
p1544
NsS'1_1_hydroxyethylenediphosphonate'
p1545
NsS'nicerium'
p1546
NsS'bufexamac'
p1547
NsS'mecholine'
p1548
NsS'3_alpha_7_beta_dihydroxy_5_beta_cholan_24_oic_acid'
p1549
NsS'banisterine'
p1550
NsS'tocainide'
p1551
NsS'cortisone'
p1552
((F1.0
S'cortisone_acetate'
p1553
tp1554
S"Suffix-based-exact-matching ('cortisone', 'cortisone_acetate') ('cortisone', 'cortisone_acetate')"
p1555
tp1556
sS'pipemidic_acid'
p1557
NsS'xylazine_phosphate_(1:1)'
p1558
NsS'carlyt\xc3\xa8ne'
p1559
NsS'diacetate__dequalinium'
p1560
NsS'2_deoxy_2_((methylnitrosoamino)carbonyl)amino_d_glucose'
p1561
NsS'fluomycin'
p1562
NsS'hydrogen_embonate__noscapine'
p1563
NsS'hyoscyamine_hydrochloride'
p1564
NsS'colforsin'
p1565
NsS'cisapride'
p1566
NsS'dinoprostone'
p1567
NsS'decaris'
p1568
NsS'prikkelhoest__librochin'
p1569
NsS'acacetin'
p1570
NsS'perhexiline'
p1571
NsS'piromidic_acid'
p1572
NsS'n__o__dibutyryl_camp'
p1573
NsS'arachidonic_acid__zinc_salt__(all_z)_isomer'
p1574
NsS'acid__oxalamic'
p1575
NsS'ajmaline'
p1576
NsS'clorsulon'
p1577
NsS'rauwolscine'
p1578
NsS'remoxipride'
p1579
NsS'antibiotic_799'
p1580
NsS'monensin_monosodium_salt'
p1581
NsS'canadine'
p1582
NsS'nitrendipino_ratiopharm'
p1583
NsS'piribedil_mesylate'
p1584
NsS'dicycloverine'
p1585
NsS'roxidura'
p1586
NsS'betamethasone'
p1587
((F1.0
S'betamethasone_dipropionate'
p1588
tp1589
S"Suffix-based-exact-matching ('betamethasone', 'betamethasone_dipropionate') ('betamethasone', 'betamethasone_dipropionate')"
p1590
tp1591
sS'metoxamine_wellcome'
p1592
NsS'xidiphon'
p1593
NsS'erastin'
p1594
NsS'asiaticoside'
p1595
NsS'clopenthixol'
p1596
NsS'hexigel'
p1597
NsS'quinacrine_monomesylate'
p1598
NsS'hesperetin'
p1599
NsS'methanesulphonate__betahistine'
p1600
NsS'mesylate__gabexate'
p1601
NsS'naphuride'
p1602
NsS'tyloxapol'
p1603
NsS'sulpiride'
p1604
NsS'mendiaxon'
p1605
NsS'disodium_salt_bucladesine'
p1606
NsS'chloride__dequalinium'
p1607
NsS'neo_thyreostat'
p1608
NsS'thiocolchicoside'
p1609
NsS'bucladesine'
p1610
NsS'thiamine'
p1611
((F1.0
S'thiamine_hydrochloride'
p1612
tp1613
S"Suffix-based-exact-matching ('thiamine', 'thiamine_hydrochloride') ('thiamine', 'thiamine_hydrochloride')"
p1614
tp1615
sS'dl_thiorphan'
p1616
NsS'gliquidone'
p1617
NsS'7_aminocephalosporanic_acid'
p1618
NsS'sulphaguanidine'
p1619
NsS'hydrochloride__mianserin'
p1620
NsS'crotamiton'
p1621
NsS'biogastrone'
p1622
NsS'labosept'
p1623
NsS'chloride__amprolium'
p1624
NsS'spiradoline'
p1625
NsS'acupan'
p1626
NsS'tocainide__(s)_isomer'
p1627
NsS'lithocholic_acid'
p1628
NsS'ethisterone'
p1629
NsS'chloroquine'
p1630
((F1.0
S'chloroquine_phosphate'
p1631
tp1632
S"Suffix-based-exact-matching ('chloroquine', 'chloroquine_phosphate') ('chloroquine', 'chloroquine_phosphate')"
p1633
tp1634
sS'hydroxyachillin'
p1635
NsS'pregneninolone'
p1636
NsS'4_(bis(2_chloroethyl)amino)benzenebutanoic_acid'
p1637
NsS'benperidol'
p1638
NsS'(1r_2r)_1_benzyl_3_(dimethylamino)_2_methyl_1_phenylpropyl_propanoate_naphtalene_2_sulfonic_acid'
p1639
NsS'p_286_(contrast_media)'
p1640
NsS'methacholine_chloride'
p1641
NsS'1_2_dihydro_6_ethoxy_2_2_4_trimethylquinoline'
p1642
NsS'maleate__acepromazine'
p1643
NsS'estra_1_3_5(10)_triene_3_16beta_17beta_triol'
p1644
NsS'camptothecin'
p1645
NsS'salt_suramin__monosodium'
p1646
NsS'levopropoxyphene_napsylate_hydrate'
p1647
NsS'tonzonium_bromide'
p1648
NsS'berberine'
p1649
NsS'chlormezanone'
p1650
NsS'prestwick_1103'
p1651
NsS'prestwick_1100'
p1652
NsS'hydrochloride__lymecycline'
p1653
NsS'chinoform'
p1654
NsS'aphrodine_hydrochloride'
p1655
NsS'nitre_puren'
p1656
NsS'biperiden_hydrochloride'
p1657
NsS'diloxanide'
p1658
NsS'meprylcaine'
p1659
NsS'lumicolchicine'
p1660
NsS'apramycin'
p1661
NsS'prostigmine'
p1662
NsS'chrysin'
p1663
NsS'monaspor'
p1664
NsS'acid__canrenoic'
p1665
NsS'metampicillin'
p1666
NsS'heumann__molsidomin'
p1667
NsS'chlorphenesin'
p1668
NsS'phthalylsulfathiazole'
p1669
NsS'nefopam_hydrochloride'
p1670
NsS'pavabid'
p1671
NsS'dimitronal'
p1672
NsS'todralazine'
p1673
NsS'gossypol_dipotassium_salt'
p1674
NsS'gabexate_monomethanesulfonate__14c_labeled_cpd'
p1675
NsS'sodium_para_aminohippurate'
p1676
NsS'prestwick_972'
p1677
NsS'thiostrepton'
p1678
NsS'ipecine'
p1679
NsS'octopamine'
p1680
NsS'noretynodrel'
p1681
NsS'phetanol'
p1682
NsS'rovamycine'
p1683
NsS'drofenine'
p1684
NsS'florfenicol'
p1685
NsS'perhexilene'
p1686
NsS'domperidon_teva'
p1687
NsS'hydrastine_hydrochloride'
p1688
NsS'monomesylate__dihydroergocristine'
p1689
NsS'prospec'
p1690
NsS'abbott48999'
p1691
NsS'clopamide'
p1692
NsS'fali_cor'
p1693
NsS'axonyl'
p1694
NsS'sun_benz'
p1695
NsS'meteneprost'
p1696
NsS'etynodiol'
p1697
NsS'cromoglicic_acid'
p1698
NsS'nordihydroguaiaretic_acid'
p1699
NsS'pluriviron'
p1700
NsS'anapriline'
p1701
NsS'redeptin'
p1702
NsS'phenazopyridine'
p1703
((F1.0
S'phenazopyridine_hydrochloride'
p1704
tp1705
S"Suffix-based-exact-matching ('phenazopyridine', 'phenazopyridine_hydrochloride') ('phenazopyridine', 'phenazopyridine_hydrochloride')"
p1706
tp1707
sS'chlormethazanone'
p1708
NsS'para_aminohippurate__sodium'
p1709
NsS'difril'
p1710
NsS'dehydrocholic_acid__sodium_salt'
p1711
NsS'chlorogenic_acid'
p1712
NsS'scopoletin'
p1713
NsS'tolnaftate'
p1714
NsS'flunarizine'
p1715
NsS'urinorm'
p1716
NsS'proglumide'
p1717
NsS'remoxipride_hydrochloride_anhydrous'
p1718
NsS'helfergin'
p1719
NsS'sodium_ursodeoxycholate'
p1720
NsS'natulan'
p1721
((F0.8571428571428571
S'matulane'
p1722
tp1723
S"(st) matching: ratio , lcs, (key,drug) (keynorm,drugnorm 0.857142857143 atulan ('natulan', 'matulane') ('natulan', 'matulane')"
p1724
tp1725
sS'dimethadione'
p1726
NsS'monomethanesulfonate__gabexate'
p1727
NsS'nitren_1a_pharma'
p1728
NsS'fanasil'
p1729
NsS'depudecin'
p1730
NsS'dehydrocholic_acid'
p1731
NsS'laudanosine'
p1732
NsS'josamycin'
p1733
NsS'thenylpyramine'
p1734
NsS'rickamicin'
p1735
NsS'canavanine'
p1736
NsS'ozagrel'
p1737
NsS'hexylcaine'
p1738
NsS'ciba_32.644_ba'
p1739
NsS'azlocillin'
p1740
NsS'bw_b70c'
p1741
NsS'hydrochloride__fendiline'
p1742
NsS'dizocilpine'
p1743
NsS'methoxamedrin'
p1744
NsS'acenocoumarol'
p1745
NsS'imidurea'
p1746
NsS'ethaverine'
p1747
NsS'phenazone'
p1748
NsS'ellipticine'
p1749
NsS'6_azathymine'
p1750
NsS'mimosine'
p1751
NsS'adenosine_phosphate'
p1752
((F1.0
S'adenosine'
p1753
tp1754
S"Suffix-based-exact-matching ('adenosine_phosphate', 'adenosine') ('adenosine_phosphate', 'adenosine')"
p1755
tp1756
sS'3_3__4__5_7_pentahydroxyflavone'
p1757
NsS'atracurium_besilate'
p1758
NsS'antazoline_phosphate'
p1759
NsS'quinacrine__(r)_isomer'
p1760
NsS'leucaenine'
p1761
NsS'ursofalk'
p1762
NsS'hedspa'
p1763
((F1.0
S'cintichem_technetium_99m_hedspa'
p1764
tp1765
S"(st) matching: ratio , lcs, (key,drug) (keynorm,drugnorm 1.0 hedspa ('hedspa', 'cintichem_technetium_99m_hedspa') ('hedspa', 'cintichem_technetium_99m_hedspa')"
p1766
tp1767
sS'pipenzolate_bromide'
p1768
NsS'methanthelinium_bromide'
p1769
NsS'phenyl_biguanide'
p1770
NsS'hymecromone'
p1771
NsS'pachycarpine_sulfate_(1:1)__pentahydrate__(7s_(7alpha_7aalpha_14alpha_14abeta))_isomer'
p1772
NsS'cerutil'
p1773
NsS'ronidazol'
p1774
NsS'terfenadin_von_ct'
p1775
NsS'flufenamic_acid'
p1776
NsS'11_decorticosterone'
p1777
NsS'orimeten'
p1778
NsS'bezamerck'
p1779
NsS'chlorhexidine'
p1780
((F1.0
S'chlorhexidine_gluconate'
p1781
tp1782
S"Suffix-based-exact-matching ('chlorhexidine', 'chlorhexidine_gluconate') ('chlorhexidine', 'chlorhexidine_gluconate')"
p1783
tp1784
sS'aequamen'
p1785
NsS'tetroquinone'
p1786
NsS'debrisoquine'
p1787
NsS'reducterol'
p1788
NsS'sulfamethazine'
p1789
NsS'streptozocin'
p1790
NsS'l_methionine_sulfoximine'
p1791
NsS'oxantel'
p1792
NsS'fenbendazole'
p1793
NsS'n_acetyl_l_leucine'
p1794
NsS'tiapride_hydrochloride'
p1795
NsS'beta__fluspirilen'
p1796
NsS'f2alpha__prostaglandin'
p1797
NsS'homosalate'
p1798
NsS'proguanil'
p1799
((F1.0
S'proguanil_hydrochloride'
p1800
tp1801
S"Suffix-based-exact-matching ('proguanil', 'proguanil_hydrochloride') ('proguanil', 'proguanil_hydrochloride')"
p1802
tp1803
sS'partusisten'
p1804
NsS'ethyladrianol'
p1805
NsS'sparteine_hydroiodide__(7r_(7alpha_7aalpha_14alpha_14abeta))_isomer'
p1806
NsS'troglitazone'
p1807
NsS'sulfate_anhydrous__sparteine'
p1808
NsS'tiletamine'
p1809
NsS'bromide__neostigmine'
p1810
NsS'biotin_ratiopharm'
p1811
NsS'r_4_amino_3_isoxazolidinone'
p1812
NsS'deoxyursocholic_acid'
p1813
NsS'apomorphine_hydrochloride__anhydrous'
p1814
NsS'colecalciferol'
p1815
NsS'monobenzone'
p1816
NsS'larylin_husten_l\xc3\xb6ser'
p1817
NsS'allergan_211'
p1818
NsS'1_5_isoquinolinediol'
p1819
NsS'exidol'
p1820
NsS'daunorubicin'
p1821
((F1.0
S'daunorubicin_hydrochloride'
p1822
tp1823
S"Suffix-based-exact-matching ('daunorubicin', 'daunorubicin_hydrochloride') ('daunorubicin', 'daunorubicin_hydrochloride')"
p1824
tp1825
sS'gelsemine'
p1826
NsS'hydrocotarnine'
p1827
NsS'9alpha_11beta_pgf2'
p1828
NsS'(5beta)_3_7_12_trioxocholan_24_oic_acid'
p1829
NsS'convolamine'
p1830
NsS'seldane'
p1831
NsS'domidon'
p1832
NsS'biopyrin'
p1833
NsS'methacycline'
p1834
NsS'r_atenolol'
p1835
NsS'ergodavur'
p1836
NsS'minisintrom'
p1837
NsS'proscillaridin'
p1838
NsS'physostigmine'
p1839
NsS'vitexin'
p1840
NsS'eldeline'
p1841
NsS'pheniramine'
p1842
((F1.0
S'pheniramine_maleate'
p1843
tp1844
S"Suffix-based-exact-matching ('pheniramine', 'pheniramine_maleate') ('pheniramine', 'pheniramine_maleate')"
p1845
tp1846
sS'dydrogesterone'
p1847
NsS'proxyphylline'
p1848
NsS'cinchonidine'
p1849
NsS'prestwick_981'
p1850
NsS'prestwick_983'
p1851
NsS'dibromide_dihydrate__hexamethonium'
p1852
NsS'hydrochloride__levamisole'
p1853
NsS'lympholysin'
p1854
NsS'dexibuprofen'
p1855
NsS'gelseminic_acid'
p1856
NsS'alonga__astemizol'
p1857
NsS'ribostamycin'
p1858
NsS'amprolium_chloride'
p1859
NsS'cholofalk'
p1860
NsS'ursolic_acid'
p1861
NsS'ratiopharm__astemizol'
p1862
NsS'rocornal'
p1863
NsS'nifurtimox'
p1864
NsS'solanine'
p1865
NsS'sparteine__(_)_isomer'
p1866
NsS'clemizole'
p1867
NsS'pirenzepine_dihydrochloride'
p1868
NsS'astesen'
p1869
NsS'guanabenz'
p1870
((F1.0
S'guanabenz_acetate'
p1871
tp1872
S"Suffix-based-exact-matching ('guanabenz', 'guanabenz_acetate') ('guanabenz', 'guanabenz_acetate')"
p1873
tp1874
sS'binazin'
p1875
NsS'etilefrine_hydrochloride'
p1876
NsS'tomelukast'
p1877
NsS'fendiline'
p1878
NsS'clomifene'
p1879
NsS'levocabastine'
p1880
NsS'flumequine'
p1881
NsS'nimesulide'
p1882
NsS'ambropp'
p1883
NsS'sisomicin_sulfate'
p1884
NsS'contac_husten_trunk'
p1885
NsS'carbinoxamine'
p1886
((F1.0
S'carbinoxamine_maleate'
p1887
tp1888
S"Suffix-based-exact-matching ('carbinoxamine', 'carbinoxamine_maleate') ('carbinoxamine', 'carbinoxamine_maleate')"
p1889
tp1890
sS'articaine'
p1891
((F1.0
S'articaine_hydrochloride'
p1892
tp1893
S"Suffix-based-exact-matching ('articaine', 'articaine_hydrochloride') ('articaine', 'articaine_hydrochloride')"
p1894
tp1895
sS'(1_hydroxyethylene)diphosphonic_acid__tetrapotassium_salt'
p1896
NsS'monohydrochloride__mianserin'
p1897
NsS'romadin'
p1898
NsS'decholin'
p1899
NsS'pirenzepin_von_ct'
p1900
NsS'betazole'
p1901
NsS'nitrendipin_von_ct'
p1902
NsS'streptonivicin'
p1903
NsS'lactobionic_acid'
p1904
NsS'ursodeoxycholate__sodium'
p1905
NsS'tridihexethyl'
p1906
NsS'nitrendipin_al'
p1907
NsS'spiroperone'
p1908
NsS'medebiotin'
p1909
NsS'sin_10'
p1910
NsS'amphotericin_b'
p1911
((F1.0
S'amphotericin_b'
p1912
tp1913
S"(st) matching: ratio , lcs, (key,drug) (keynorm,drugnorm 1.0 amphotericin_b ('amphotericin_B', 'amphotericin_b') ('amphotericin_b', 'amphotericin_b')"
p1914
tp1915
sS'aceclofenac'
p1916
NsS'triflupromazine'
p1917
NsS'rescinnamine'
p1918
NsS'pararosaniline'
p1919
NsS'furazolidone'
p1920
NsS'meclofenoxate'
p1921
NsS'tensogradal'
p1922
NsS'dl_alpha_tocopherol'
p1923
NsS'doreperol'
p1924
NsS'cinnarizine_l_tartrate_(1:1)'
p1925
NsS'dihydrodiethylstilbestrol'
p1926
NsS'6_furfuryladenine'
p1927
NsS'prestwick_1084'
p1928
NsS'quinacrine_dimesylate'
p1929
NsS'dirithromycin'
p1930
NsS'nicergolin_lindo'
p1931
NsS'isoflupredone'
p1932
NsS'smokeless'
p1933
NsS'arachidonate__sodium'
p1934
NsS'17_hydroxy_3_oxo_17alpha_pregna_4_6_diene_21_carboxylic_acid'
p1935
NsS'vasomotal'
p1936
NsS'polognost'
p1937
NsS'idoxuridine__131i_labeled'
p1938
NsS'quinpirole_hydrochloride'
p1939
NsS'fluspirilene'
p1940
NsS'pempidine'
p1941
NsS'obsidan'
p1942
NsS'quinacrine_dihydrochloride__dihydrate'
p1943
NsS'enoxacin'
p1944
NsS'boldine'
p1945
NsS'xylazine'
p1946
NsS'2_pyrrolidone_n_acetamide'
p1947
NsS'dequalinium_chloride'
p1948
NsS'pms_benzydamine'
p1949
NsS'hydrochloride__aphrodine'
p1950
NsS'131i_labeled_idoxuridine'
p1951
NsS'gabexate_mesylate'
p1952
NsS'dequadin'
p1953
NsS'hexamethonium_bromide'
p1954
NsS'sulpitil'
p1955
NsS'benzamil'
p1956
NsS'tracazolate'
p1957
NsS'galantamine'
p1958
((F1.0
S'galantamine_hydrobromide'
p1959
tp1960
S"Suffix-based-exact-matching ('galantamine', 'galantamine_hydrobromide') ('galantamine', 'galantamine_hydrobromide')"
p1961
tp1962
sS'nifenazone'
p1963
NsS'gallamine'
p1964
NsS'idoxuridine'
p1965
NsS'roxi_paed_1a_pharma'
p1966
NsS'benzathine_benzylpenicillin'
p1967
NsS'2_phenyl_1_3_indandione'
p1968
NsS'5_androsten_3_ol_17_one'
p1969
NsS'trichostatin_a'
p1970
NsS'roxi_q'
p1971
NsS'ambroxin'
p1972
NsS'stas_hustenl\xc3\xb6ser'
p1973
NsS'muco_fips'
p1974
NsS'debrisoquin'
p1975
NsS'p_octopamine'
p1976
NsS'loracarbef'
p1977
NsS'sedoval'
p1978
NsS'tetrapotassium_salt_etidronate'
p1979
NsS'tiaprofenic_acid'
p1980
NsS'benzylpenicillin'
p1981
NsS'(16beta_17beta)_estra_1_3_5(10)_triene_3_16_17_triol'
p1982
NsS'sissomicin'
p1983
NsS'dihydrostreptomycin'
p1984
NsS'tisercin'
p1985
NsS'alprenolol'
p1986
NsS'benzydamine_hydrochloride'
p1987
NsS'prolamine'
p1988
NsS'nadide'
p1989
NsS'cefsulodin_monosodium_salt'
p1990
NsS'rexigen'
p1991
NsS'vertigo_meresa'
p1992
NsS'alsterpaullone'
p1993
NsS'buflomedil'
p1994
NsS'vinburnine'
p1995
NsS'mephenytoin'
p1996
NsS'(s)_3_bromo_n_((1_ethyl_2_pyrrolidinyl)methyl)_2_6_dimethoxybenzamide'
p1997
NsS'entero_septol'
p1998
NsS'piribedil_mono_hydrochloride'
p1999
NsS'nitrendipin_ratiopharm'
p2000
NsS'n(6)_0(2_)_dibutyryl_cyclic_amp'
p2001
NsS'15_delta_prostaglandin_j2'
p2002
NsS'hydrobromide__benzocaine'
p2003
NsS'collu_hextril'
p2004
NsS'skf_525_a'
p2005
NsS'corynanthine_tartrate'
p2006
NsS'bioflutin'
p2007
NsS'imatinib'
p2008
((F1.0
S'imatinib_mesylate'
p2009
tp2010
S"Suffix-based-exact-matching ('imatinib', 'imatinib_mesylate') ('imatinib', 'imatinib_mesylate')"
p2011
tp2012
sS'acebutolol'
p2013
((F1.0
S'acebutolol_hydrochloride'
p2014
tp2015
S"Suffix-based-exact-matching ('acebutolol', 'acebutolol_hydrochloride') ('acebutolol', 'acebutolol_hydrochloride')"
p2016
tp2017
sS'cotinine'
p2018
NsS'cephaeline'
p2019
NsS'hoe_893d'
p2020
NsS'khellin'
p2021
NsS'tyrphostin_ag_825'
p2022
NsS'cardiomax'
p2023
NsS'pirinixic_acid'
p2024
NsS'pharmaxolon'
p2025
NsS'lysergol'
p2026
NsS'meclozine'
p2027
NsS'pyrvinium'
p2028
NsS'dogmatil'
p2029
NsS'compound_83405'
p2030
NsS'arecholin'
p2031
NsS'k_strophanthidin'
p2032
NsS'bisolvon_am'
p2033
NsS'dipyrone'
p2034
NsS'proadifen'
p2035
NsS'carbosan'
p2036
NsS'gliclazide'
p2037
NsS'oraldine'
p2038
NsS'piracetrop'
p2039
NsS'6_bromoindirubin_3__oxime'
p2040
NsS'dehydrocholate'
p2041
NsS'cyclobenzaprine'
p2042
((F1.0
S'cyclobenzaprine_hydrochloride'
p2043
tp2044
S"Suffix-based-exact-matching ('cyclobenzaprine', 'cyclobenzaprine_hydrochloride') ('cyclobenzaprine', 'cyclobenzaprine_hydrochloride')"
p2045
tp2046
sS'niridazole'
p2047
NsS'droxaryl'
p2048
NsS'solaskil'
p2049
NsS'16beta_hydroxy_estradiol'
p2050
NsS'americaine'
p2051
NsS'steri_sol'
p2052
NsS'roxi_tad'
p2053
NsS'bufederm'
p2054
NsS'hismanal'
p2055
NsS'nicoumalone'
p2056
NsS'tetracycline_l_methylene_lysine'
p2057
NsS'beta_escin'
p2058
NsS'prostaglandin_f2'
p2059
NsS'terfenadine'
p2060
NsS'tetramisole'
p2061
NsS'alverine'
p2062
NsS'ony_clear'
p2063
NsS'hydrochloride__etilefrine'
p2064
NsS'halofantrine'
p2065
NsS'harpagoside'
p2066
NsS'propoxycaine_hydrochloride'
p2067
NsS'prestwick_984'
p2068
NsS'fenazoxine'
p2069
NsS'eralzdin_practolol'
p2070
NsS'hydrochloride__piribedil'
p2071
NsS'hexamethonium_monotartrate'
p2072
NsS'6_benzylaminopurine'
p2073
NsS'p\xc3\xa9ridys'
p2074
NsS'parthenolide'
p2075
NsS'sulforthomidine'
p2076
NsS'picrotoxinin'
p2077
NsS'amrinone'
p2078
((F1.0
S'amrinone_lactate'
p2079
tp2080
S"Suffix-based-exact-matching ('amrinone', 'amrinone_lactate') ('amrinone', 'amrinone_lactate')"
p2081
tp2082
sS'methyleneoxytetracycline'
p2083
NsS'anesthesin'
p2084
NsS'isoconazole'
p2085
NsS'biperiden__1s_(1_alpha_2_alpha(r*)_4_alpha)_isomer'
p2086
NsS'ambro_puren'
p2087
NsS'suloctidil'
p2088
NsS'apo_domperidone'
p2089
NsS'ethinylestrenol'
p2090
NsS'cortexone'
p2091
NsS'trimetazidine'
p2092
NsS'stanilo'
p2093
NsS'calycanthine'
p2094
NsS'nomifensine'
p2095
NsS'tetracyclinemethylene_lysine'
p2096
NsS'apomorphin_teclapharm'
p2097
NsS'8_azaguanine'
p2098
NsS'demecarium_bromide'
p2099
NsS'16_16_dimethylprostaglandin_e2'
p2100
NsS'cholan_hmb'
p2101
NsS'foliosidine'
p2102
NsS'3_caffeoylquinic_acid'
p2103
NsS'hexestrol__(r*_s*)_isomer'
p2104
NsS'riboflavin'
p2105
NsS'sesquihydrate__enoxacin'
p2106
NsS'estriol'
p2107
Ns.