(dp0
S'fluspirilene'
p1
NsS'cyclizine'
p2
NsS'gallamine_triethiodide'
p3
NsS'quipazine'
p4
NsS'sulfametoxydiazine'
p5
NsS'picrotoxinin'
p6
NsS'sulfadimethoxine'
p7
NsS'hydrocotarnine'
p8
NsS'etilefrine'
p9
NsS'talampicillin'
p10
NsS'thiostrepton'
p11
NsS'hycanthone'
p12
NsS'lomefloxacin'
p13
NsS'suloctidil'
p14
NsS'imipenem'
p15
((F1.0
S'imipenem_and_cilastatin'
p16
tp17
S"(st) matching: ratio , lcs, (key,drug) (keynorm,drugnorm 1.0 imipenem ('imipenem', 'imipenem_and_cilastatin') ('imipenem', 'imipenem_and_cilastatin')"
p18
tp19
sS'clomifene'
p20
NsS'mephenesin'
p21
NsS'dizocilpine'
p22
NsS'epivincamine'
p23
NsS'econazole'
p24
((F1.0
S'econazole_nitrate'
p25
tp26
S"Suffix-based-exact-matching ('econazole', 'econazole_nitrate') ('econazole', 'econazole_nitrate')"
p27
tp28
sS'prasterone'
p29
NsS'ethisterone'
p30
NsS'hydrastine_hydrochloride'
p31
NsS'prestwick_689'
p32
NsS'phenylpropanolamine'
p33
NsS'n_acetylmuramic_acid'
p34
NsS'riboflavin'
p35
NsS'clorgiline'
p36
NsS'xylometazoline'
p37
NsS'gibberellic_acid'
p38
Ns.