(dp0
S'prestwick_691'
p1
NsS'prestwick_692'
p2
NsS'protoveratrines'
p3
NsS'terfenadin_ratiopharm'
p4
NsS'meptazinol'
p5
NsS'monorden'
p6
NsS'dl_ppmp'
p7
NsS'desoxycorticosterone'
p8
NsS'aptine'
p9
NsS'anabasine'
p10
NsS'dihydrochloride__betazole'
p11
NsS'vincamine'
p12
NsS'10_methoxyharmalan'
p13
NsS'p_aminohippuric_acid'
p14
NsS'5_hydroxytryptamine'
p15
NsS'citiolone'
p16
NsS'mecillinam_pivaloyl_ester'
p17
NsS'cloperastine'
p18
NsS'propoxyphene_hydrochloride__(r*_s*)_(+_)_isomer'
p19
NsS'diperodon'
p20
NsS'procarbazine'
p21
NsS'ambril'
p22
NsS'pivmecillinam'
p23
NsS'extramycin'
p24
NsS'zuclopenthixol'
p25
NsS'hexetidine'
p26
NsS'rolitetracycline'
p27
NsS'ioxaglic_acid'
p28
NsS'eucatropine'
p29
NsS'novo_gliclazide'
p30
NsS'homochlorcyclizine'
p31
NsS'cinnarizin_al'
p32
NsS'lomustine'
p33
NsS'talampicillin_hydrochloride'
p34
NsS'apomorphine_hydrochloride'
p35
NsS'camptothecine'
p36
NsS'acid_3_o_hemisuccinate__glycyrrhetinic'
p37
NsS'acetyl_beta_methacholine_chloride'
p38
NsS'pentoxyverine'
p39
NsS'cinacalcet'
p40
((F1.0
S'cinacalcet_hydrochloride'
p41
tp42
S"Suffix-based-exact-matching ('cinacalcet', 'cinacalcet_hydrochloride') ('cinacalcet', 'cinacalcet_hydrochloride')"
p43
tp44
sS'provokit'
p45
NsS'stachydrine'
p46
NsS'tanespimycin'
p47
NsS'betahistine_hydrochloride'
p48
NsS'sulfadimidine'
p49
NsS'nitrendipin_lindo'
p50
NsS'hydrochloride__isoxsuprine'
p51
NsS'molsidomin_stada'
p52
NsS'xylometazoline'
p53
NsS'syncoumar'
p54
NsS'aptinduriles'
p55
NsS'prestwick_665'
p56
NsS'dequalinium_dichloride'
p57
NsS'sisomicin'
p58
NsS'methetharimide'
p59
NsS'streptozotocin'
p60
NsS'corvaton'
p61
NsS'alpha_ergocryptine'
p62
NsS'atractylic_acid'
p63
NsS'hubermizol'
p64
NsS'quinisocaine'
p65
NsS'rolipram'
p66
NsS'capsidol'
p67
NsS'nitrepuren'
p68
NsS'ciprofibrate'
p69
NsS'chlorpromazine'
p70
((F1.0
S'chlorpromazine_hydrochloride'
p71
tp72
S"Suffix-based-exact-matching ('chlorpromazine', 'chlorpromazine_hydrochloride') ('chlorpromazine', 'chlorpromazine_hydrochloride')"
p73
tp74
sS'cormelian'
p75
NsS'hexestrol__(s_(r*_r*))_isomer'
p76
NsS'biotin'
p77
NsS'arecoline'
p78
NsS'rifampicin'
p79
NsS'pgf2alpha'
p80
NsS'glycocholate_sodium'
p81
NsS'senzit'
p82
NsS'medrysone'
p83
NsS'sodium_phenylbutyrate'
p84
((F1.0
S'sodium_phenylbutyrate'
p85
tp86
S"(st) matching: ratio , lcs, (key,drug) (keynorm,drugnorm 1.0 sodium_phenylbutyrate ('sodium phenylbutyrate', 'sodium_phenylbutyrate') ('sodium_phenylbutyrate', 'sodium_phenylbutyrate')"
p87
tp88
sS'enteroquinol'
p89
NsS'uropipemid'
p90
NsS'meso_nordihydroguaiaretic_acid'
p91
NsS'vertigo_neogama'
p92
NsS'hydrochloride__pivampicillin'
p93
NsS'capsaicin'
p94
NsS'nomifensin'
p95
NsS'capsaicine'
p96
NsS'cyproterone'
p97
NsS'biogastrone'
p98
NsS'tenofivir'
p99
NsS'deptropine'
p100
NsS'furaltadone'
p101
NsS'allantoin'
p102
NsS'fenasal'
p103
NsS'pentetrazol'
p104
NsS'glycocholic_acid'
p105
NsS'bronchopront'
p106
NsS'yohimex'
p107
NsS'epiandrosterone'
p108
NsS'etamsylate'
p109
NsS'cefalotin'
p110
NsS'bemegride'
p111
NsS'monastrol'
p112
NsS'linesterol'
p113
NsS'sparteine_sulfate_(1:1)__(7s_(7alpha_7aalpha_14alpha_14abeta))_isomer'
p114
NsS'naftidrofuryl'
p115
NsS'sibelium'
p116
NsS'meticrane'
p117
NsS'benzalolin'
p118
NsS'scoulerine'
p119
NsS'betazole_dihydrochloride'
p120
NsS'chlorprothixene'
p121
NsS'(+/_)_catechin'
p122
NsS'kerecide'
p123
NsS'pargyline'
p124
NsS'puromycin'
p125
NsS'dyclonine'
p126
NsS'acid__isolithocholic'
p127
NsS'tremorine'
p128
NsS'allergipuran'
p129
NsS'roxarsone'
p130
NsS'prestwick_682'
p131
NsS'prestwick_685'
p132
NsS'prestwick_689'
p133
NsS'dynexan_mhp'
p134
NsS'oxamic_acid'
p135
NsS'gabexate'
p136
NsS'bufexamac_ratiopharm'
p137
NsS'duphaston'
p138
NsS'quipazine_hydrochloride'
p139
NsS'germanin'
p140
NsS'difenidol'
p141
NsS'cetirizine'
p142
((F1.0
S'cetirizine_hydrochloride'
p143
tp144
S"Suffix-based-exact-matching ('cetirizine', 'cetirizine_hydrochloride') ('cetirizine', 'cetirizine_hydrochloride')"
p145
tp146
sS'hydrochloride__biperiden'
p147
NsS'flucloxacillin'
p148
NsS'cyclopenthiazide'
p149
NsS'bucladesine__monosodium_salt'
p150
NsS'suramin_sodium'
p151
NsS'hemicholinium'
p152
NsS'oxybuprocaine'
p153
NsS'desoxycortone'
p154
NsS'harmidine'
p155
NsS'idazoxan'
p156
NsS'naganin'
p157
NsS'sanguinarine'
p158
NsS'pivamiser'
p159
NsS'carbosan'
p160
NsS'diphemanil_metilsulfate'
p161
NsS'hexamethonium_diiodide'
p162
NsS'forskolin'
p163
NsS'extovyl'
p164
NsS'penbutolol'
p165
NsS'(_)_isoprenaline'
p166
NsS'camoquine'
p167
((F0.8888888888888888
S'camoquin_hydrochloride'
p168
tp169
S"(st) matching: ratio , lcs, (key,drug) (keynorm,drugnorm 0.888888888889 camoquin ('camoquine', 'camoquin_hydrochloride') ('camoquine', 'camoquin_hydrochloride')"
p170
tp171
sS'no\xe3\xa9_socopharm_hydrochloride'
p172
NsS'carbimazole'
p173
NsS'xamoterol_monohydrobromide'
p174
NsS'ethylmethylglutarimide'
p175
NsS'hydroquinine'
p176
NsS'oxolinic_acid'
p177
NsS'mesylate__betahistine'
p178
NsS'hydrochloride__procarbazine'
p179
NsS'celastrol'
p180
NsS'hesperidin_2s'
p181
NsS'furazol'
p182
((F0.8571428571428571
S'nitrofurazone'
p183
tp184
S"(st) matching: ratio , lcs, (key,drug) (keynorm,drugnorm 0.857142857143 furazo ('furazol', 'nitrofurazone') ('furazol', 'nitrofurazone')"
p185
tp186
sS'hyoscyamine_sulfate'
p187
NsS'ambrol\xe3\xb6s'
p188
NsS'colistin'
p189
((F0.875
S'colistimethate_sodium'
p190
tp191
S"(st) matching: ratio , lcs, (key,drug) (keynorm,drugnorm 0.875 colisti ('colistin', 'colistimethate_sodium') ('colistin', 'colistimethate_sodium')"
p192
tp193
sS'clebopride'
p194
NsS'1_4_chrysenequinone'
p195
NsS'cinarizine'
p196
NsS'vinorelbine'
p197
((F1.0
S'vinorelbine_tartrate'
p198
tp199
S"(st) matching: ratio , lcs, (key,drug) (keynorm,drugnorm 1.0 vinorelbine ('vinorelbine', 'vinorelbine_tartrate') ('vinorelbine', 'vinorelbine_tartrate')"
p200
tp201
sS'hydroxyethylidene_diphosphonic_acid'
p202
NsS'11_deoxy_16_16_dimethylprostaglandin_e2'
p203
NsS'niflumic_acid'
p204
NsS'fusidate__sodium'
p205
NsS'etidronate'
p206
((F1.0
S'etidronate_disodium'
p207
tp208
S"Suffix-based-exact-matching ('etidronate', 'etidronate_disodium') ('etidronate', 'etidronate_disodium')"
p209
tp210
sS'alvespimycin'
p211
NsS'sulphamethoxypyridazine'
p212
NsS'arachidonic_acid'
p213
NsS'sparteine'
p214
NsS'3_hydroxy_dl_kynurenine'
p215
NsS'4_(((2_amino_3_5_dibromophenyl)methyl)amino)cyclohexanol'
p216
NsS'bretylium_tosilate'
p217
NsS'acid__gelseminic'
p218
NsS'sk&f_525_a'
p219
NsS'betulin'
p220
NsS'broxol'
p221
NsS'modane'
p222
NsS'chlortalidone'
p223
NsS'idixanol'
p224
NsS'dicynene'
p225
NsS'sparteine_sulfate'
p226
NsS'roxi_1a_pharma'
p227
NsS'desglucotransvaaline'
p228
NsS'tachmalin'
p229
NsS'edrophonium_chloride'
p230
((F1.0
S'edrophonium_chloride'
p231
tp232
S"Suffix-based-exact-matching ('edrophonium chloride', 'edrophonium_chloride') ('edrophonium_chloride', 'edrophonium_chloride')"
p233
tp234
sS'malipuran'
p235
NsS'fusaric_acid'
p236
NsS'oxaminiquine'
p237
NsS'latamoxef'
p238
NsS'5_pregnen_3_beta_ol_20_one'
p239
NsS'myricetin'
p240
NsS'fluspirilen_lindo'
p241
NsS'molsi_puren'
p242
NsS'sulfachlorpyridazine'
p243
NsS'4_5_dehydrogentamicin'
p244
NsS'dropropizine'
p245
NsS'neo_tomizol'
p246
NsS'iodopanoic_acid'
p247
NsS'tiletamine_hydrochloride'
p248
((F0.875
S'ketamine_hydrochloride'
p249
tp250
S"(st) matching: ratio , lcs, (key,drug) (keynorm,drugnorm 0.875 etamine_hydrochloride ('tiletamine_hydrochloride', 'ketamine_hydrochloride') ('tiletamine_hydrochloride', 'ketamine_hydrochloride')"
p251
tp252
sS'cycloheximide'
p253
NsS'scillarenin_rhamnoside'
p254
NsS'etacrynic_acid'
p255
((F0.8571428571428571
S'ethacrynic_acid'
p256
tp257
S"(st) matching: ratio , lcs, (key,drug) (keynorm,drugnorm 0.857142857143 acrynic_acid ('etacrynic acid', 'ethacrynic_acid') ('etacrynic_acid', 'ethacrynic_acid')"
p258
tp259
sS'quinacrine_dihyrochloride__(r)_isomer'
p260
NsS'3nitro10'
p261
NsS'lmf_cy_216'
p262
NsS'oxamniquine'
p263
NsS'liserdol'
p264
NsS'diprophylline'
p265
NsS'cinchocaine'
p266
NsS'adiphenine'
p267
NsS'butamben'
p268
NsS'lynestrenol__(9_beta__10_alpha_17_alpha)_isomer'
p269
NsS'rilmenidine'
p270
NsS'mefexamide'
p271
NsS'vorinostat'
p272
NsS'ribrain'
p273
NsS'thiamcol'
p274
NsS'hecogenin'
p275
NsS'solvidont'
p276
NsS'dimethylpiperidine'
p277
NsS'alpha_yohimbine'
p278
NsS'tetraethylenepentamine'
p279
NsS'remoxipride'
p280
NsS'mepacrine'
p281
NsS'papaverine'
p282
NsS'piren_basan'
p283
NsS'alcuronium_chloride'
p284
NsS'123i_labeled_idoxuridine'
p285
NsS'naringenin'
p286
NsS'acetopromazine'
p287
NsS'trioxocholate'
p288
NsS'mono_hydrochloride__piribedil'
p289
NsS'resveratrol'
p290
NsS'sulfaphenylpyrazol'
p291
NsS'naringin'
p292
NsS'corbadrine'
p293
NsS'imipramine'
p294
((F1.0
S'imipramine_pamoate'
p295
tp296
S"Suffix-based-exact-matching ('imipramine', 'imipramine_pamoate') ('imipramine', 'imipramine_pamoate')"
p297
tp298
sS'nitrendidoc'
p299
NsS'balminil'
p300
NsS'tuscalman'
p301
NsS'chlorphenamine'
p302
NsS'n_phenylanthranilic_acid'
p303
NsS'serazide'
p304
NsS'2_aminobenzenesulfonamide'
p305
NsS'flumequine'
p306
NsS'bezamerck'
p307
NsS'novaminsulfone'
p308
NsS'triacetyloleandomycin'
p309
NsS'eulitop'
p310
NsS'hyoscyamine'
p311
NsS'tizertsin'
p312
NsS'metitepine'
p313
NsS'dihydrate__hexamethonium_dichloride'
p314
NsS'etilefrin'
p315
NsS'thiophenicol'
p316
NsS'dinobroxol'
p317
NsS'opalgyne'
p318
NsS'tetroquinone'
p319
NsS'guanethidine'
p320
((F1.0
S'guanethidine_monosulfate'
p321
tp322
S"(st) matching: ratio , lcs, (key,drug) (keynorm,drugnorm 1.0 guanethidine ('guanethidine', 'guanethidine_monosulfate') ('guanethidine', 'guanethidine_monosulfate')"
p323
tp324
sS'5_iodo_2__deoxyuridine'
p325
NsS'n6_methyladenosine'
p326
NsS'lomefloxacin'
p327
NsS'tetracaine'
p328
((F1.0
S'tetracaine_hydrochloride'
p329
tp330
S"Suffix-based-exact-matching ('tetracaine', 'tetracaine_hydrochloride') ('tetracaine', 'tetracaine_hydrochloride')"
p331
tp332
sS'lasolvan'
p333
NsS'n_acetyl_l_aspartic_acid'
p334
NsS'meglumine__ioxaglate'
p335
NsS'rotenone'
p336
NsS'chlorcyclizine'
p337
NsS'mephenesin'
p338
NsS'roxi_tad'
p339
NsS'econazole'
p340
((F1.0
S'econazole_nitrate'
p341
tp342
S"Suffix-based-exact-matching ('econazole', 'econazole_nitrate') ('econazole', 'econazole_nitrate')"
p343
tp344
sS'fursultiamin'
p345
NsS'rotesan'
p346
NsS'mefenetoin'
p347
NsS'novobiocin_calcium'
p348
NsS'guastil'
p349
NsS'etifenin'
p350
NsS'ciclosporin'
p351
NsS'idoxuridine__125i_labeled'
p352
NsS'idazoxan_hydrochloride'
p353
NsS'benzocaine_hydrobromide'
p354
NsS'3_nitropropionic_acid'
p355
NsS'dindevan'
p356
NsS'pentolonium'
p357
NsS'piretanide'
p358
NsS'luteoline'
p359
NsS'ponatinib'
p360
NsS'cyproterone__1alpha_2_alpha_9_beta_10_alpha_isomer'
p361
NsS'irinotecan'
p362
((F1.0
S'irinotecan_hydrochloride'
p363
tp364
S"Suffix-based-exact-matching ('irinotecan', 'irinotecan_hydrochloride') ('irinotecan', 'irinotecan_hydrochloride')"
p365
tp366
sS'sulfafurazole'
p367
NsS'rottlerin'
p368
NsS'lisuride_maleate__(8beta)_isomer'
p369
NsS'methylergol_carbamide'
p370
NsS'avlocardyl'
p371
NsS'etilefrine'
p372
NsS'acetylbenzoylaconine'
p373
NsS'domperidone'
p374
NsS'sulfathiazole'
p375
NsS'yomesan'
p376
NsS'tyrphostin_ag_1478'
p377
NsS'harmine'
p378
NsS'diperchlorate__hexamethonium'
p379
NsS'ethamsylate'
p380
NsS'pizotifen'
p381
NsS'sulfaphenazole'
p382
NsS'conessine'
p383
NsS'cefapirin'
p384
NsS'neoprotoveratrin'
p385
NsS'glaphenine'
p386
NsS'motilium'
p387
NsS'betahistine'
p388
NsS'clorgiline'
p389
NsS'fosfosal'
p390
NsS'caffeic_acid'
p391
NsS'ursolite'
p392
NsS'nadroparin'
p393
NsS'panacur'
p394
NsS'coralyne'
p395
NsS'puromycin_dihydrochloride'
p396
NsS'tiabendazole'
p397
NsS'dexpropranolol'
p398
NsS'naftifine'
p399
((F1.0
S'naftifine_hydrochloride'
p400
tp401
S"Suffix-based-exact-matching ('naftifine', 'naftifine_hydrochloride') ('naftifine', 'naftifine_hydrochloride')"
p402
tp403
sS'betapressin'
p404
NsS'rimexolone'
p405
NsS'biotin_hermes'
p406
NsS'parfenac'
p407
NsS'megestrol'
p408
((F1.0
S'megestrol_acetate'
p409
tp410
S"Suffix-based-exact-matching ('megestrol', 'megestrol_acetate') ('megestrol', 'megestrol_acetate')"
p411
tp412
sS'karakoline'
p413
NsS'beta__fluspirilen'
p414
NsS'1_hydroxyethylidene_1_1_bisphosphonate'
p415
NsS'azelastine'
p416
((F1.0
S'azelastine_hydrochloride'
p417
tp418
S"Suffix-based-exact-matching ('azelastine', 'azelastine_hydrochloride') ('azelastine', 'azelastine_hydrochloride')"
p419
tp420
sS'oleandomycin'
p421
NsS'niclosamide__2_aminoethanol_(1:1)'
p422
NsS'ethanehydroxyphosphate'
p423
NsS'procaine'
p424
((F1.0
S'procaine_hydrochloride'
p425
tp426
S"Suffix-based-exact-matching ('procaine', 'procaine_hydrochloride') ('procaine', 'procaine_hydrochloride')"
p427
tp428
sS'dehydroepiandrosterone'
p429
NsS'hydrochloride__zimeldine'
p430
NsS'zoxazolamine'
p431
NsS'norephedrine'
p432
NsS'apirachol'
p433
NsS'nootrop'
p434
NsS'practolol__eralzdin'
p435
NsS'betaserc'
p436
NsS'cyclic_adenosine_monophosphate'
p437
NsS'acid__deoxyursocholic'
p438
NsS'acid__ursodeoxycholic'
p439
NsS'seneciphylline'
p440
NsS'aminolevulinic_acid'
p441
NsS'd_sparteine'
p442
NsS'fusidate_sodium'
p443
NsS'noramidopyrine_methanesulfonate_sodium'
p444
NsS'triludan'
p445
NsS'pimethixene'
p446
NsS'securinine'
p447
NsS'cyater'
p448
NsS'1_hydroxyethane_1_1_diphosphonate'
p449
NsS'tolazoline_monohydrochloride'
p450
NsS'dothiepin'
p451
NsS'spaglumic_acid'
p452
NsS'benperidolneuraxpharm'
p453
NsS'emetine'
p454
NsS'3_nitro_10'
p455
NsS'pralidoxime'
p456
((F1.0
S'pralidoxime_chloride'
p457
tp458
S"Suffix-based-exact-matching ('pralidoxime', 'pralidoxime_chloride') ('pralidoxime', 'pralidoxime_chloride')"
p459
tp460
sS'domperidon_hexal'
p461
NsS'apomorphine'
p462
NsS'3_acetamidocoumarin'
p463
NsS'amprol'
p464
NsS'ambrohexal'
p465
NsS'gallamine_triethiodide'
p466
NsS'artemisinin'
p467
NsS'hexamethonium_dichloride_dihydrate'
p468
NsS'montelukast'
p469
((F1.0
S'montelukast_sodium'
p470
tp471
S"Suffix-based-exact-matching ('montelukast', 'montelukast_sodium') ('montelukast', 'montelukast_sodium')"
p472
tp473
sS'equilin'
p474
NsS'4_(bis(2_chloroethyl)amino)benzenebutanoic_acid'
p475
NsS'esmacen'
p476
NsS'3_alpha_hydroxy_5_beta_androstan_17_one'
p477
NsS'sulfadimethoxine'
p478
NsS'oligomycin'
p479
NsS'terfenidine'
p480
NsS'enteroseptol'
p481
NsS'methiothepin'
p482
NsS'nitrate__rolitetracycline'
p483
NsS'biperiden'
p484
NsS'atropine_methonitrate'
p485
NsS'cinchonine'
p486
NsS'sulfabenzpyrazine'
p487
NsS'yohimbine_houd\xe3\xa9'
p488
NsS'arecaline'
p489
NsS'metamizole_sodium'
p490
NsS'durabezur'
p491
NsS'capval_tropfen'
p492
NsS'mometasone'
p493
((F1.0
S'mometasone_furoate'
p494
tp495
S"Suffix-based-exact-matching ('mometasone', 'mometasone_furoate') ('mometasone', 'mometasone_furoate')"
p496
tp497
sS'1_(5_isoquinolinylsulfonyl)_2_methylpiperazine'
p498
NsS'isoxsuprine'
p499
NsS'nefopam'
p500
NsS'5_beta_androsterone'
p501
NsS'cefalonium'
p502
NsS'fludroxycortide'
p503
NsS'bambuterol'
p504
NsS'suprofen'
p505
((F0.875
S'junior_strength_ibuprofen'
p506
tp507
S"(st) matching: ratio , lcs, (key,drug) (keynorm,drugnorm 0.875 uprofen ('suprofen', 'junior_strength_ibuprofen') ('suprofen', 'junior_strength_ibuprofen')"
p508
tp509
sS'pyocefal'
p510
NsS'antazoline'
p511
NsS'tinaderm'
p512
NsS'pepstatin'
p513
NsS'dihydrochloride__trimetazidine'
p514
NsS'deacura'
p515
NsS'hydrochloride__pargyline'
p516
NsS'nifluril'
p517
NsS'duradermal'
p518
NsS'moroxydine'
p519
NsS'berocillin'
p520
NsS'mevalolactone'
p521
NsS'syntostigmine'
p522
NsS'2_(1_piperazinyl)quinoline'
p523
NsS'eti_puren'
p524
NsS'tocainide__(s)_isomer'
p525
NsS'clenbuterol'
p526
NsS'adipiodone'
p527
NsS'molsicor'
p528
NsS'santonin'
p529
NsS'bacampicillin'
p530
NsS'antibiotic_799'
p531
NsS'memo_puren'
p532
NsS'dopergine'
p533
NsS'tomatidine'
p534
NsS'nitrendipine'
p535
NsS'mepenzolate_bromide'
p536
NsS'phosphate__antazoline'
p537
NsS'polstigmine'
p538
NsS'vanoxerine'
p539
NsS'urdrim'
p540
NsS'estradiol_congeners'
p541
NsS'terazosin'
p542
((F1.0
S'terazosin_hydrochloride'
p543
tp544
S"Suffix-based-exact-matching ('terazosin', 'terazosin_hydrochloride') ('terazosin', 'terazosin_hydrochloride')"
p545
tp546
sS'diflorasone'
p547
((F1.0
S'diflorasone_diacetate'
p548
tp549
S"Suffix-based-exact-matching ('diflorasone', 'diflorasone_diacetate') ('diflorasone', 'diflorasone_diacetate')"
p550
tp551
sS'2_desoxy_d_glucose'
p552
NsS'isoxicam'
p553
NsS'mebhydrolin'
p554
NsS'piperidolate'
p555
NsS'canrenoic_acid'
p556
NsS'chlorisept'
p557
NsS'retrorsine'
p558
NsS'etiocholanolone'
p559
NsS'cinnarizine__(e)_isomer'
p560
NsS'ringelheimer_pulmonal'
p561
NsS'dequalinium_diacetate'
p562
NsS'harmaline'
p563
NsS'ornidazole'
p564
NsS'altizide'
p565
NsS'butacaine'
p566
NsS'galusan'
p567
NsS'pseudopelletierine'
p568
NsS'hydrochloride__flunarizine'
p569
NsS'prostenon'
p570
NsS'hydrochloride__no\xe3\xa9_socopharm'
p571
NsS'5_chloro_7_iodo_8_quinolinol'
p572
NsS'etidronic_acid'
p573
NsS'pipram'
p574
NsS'propanolol'
p575
NsS'hydrochloride__cefotiam'
p576
NsS'acetophenetidin'
p577
NsS'sparteine__(7s_(7alpha_7aalpha_14alpha_14abeta))_isomer'
p578
NsS'vasartel'
p579
NsS'abbott_48999'
p580
NsS'paralergin'
p581
NsS'arachidonic_acid__cerium_salt__(all_z)_isomer'
p582
NsS'urapidil'
p583
NsS'5_5_dimethyl_2_4_oxazolidinedione'
p584
NsS'skimmianine'
p585
NsS'scriptaid'
p586
NsS'diclofenamide'
p587
NsS'nicergolin_ratiopharm'
p588
NsS'pimafucin'
p589
NsS'deposul'
p590
NsS'chlorprotixen'
p591
NsS'metamizol'
p592
NsS'fenbufen'
p593
NsS'metadrenaline'
p594
NsS'docosahexaenoic_acid_ethyl_ester'
p595
NsS'rolitetracycline_hydrochloride'
p596
((F0.8666666666666667
S'tetracycline_hydrochloride'
p597
tp598
S"(st) matching: ratio , lcs, (key,drug) (keynorm,drugnorm 0.866666666667 tetracycline_hydrochloride ('rolitetracycline_hydrochloride', 'tetracycline_hydrochloride') ('rolitetracycline_hydrochloride', 'tetracycline_hydrochloride')"
p599
tp600
sS'methacholine'
p601
NsS'isopropamide_iodide'
p602
NsS'siquil'
p603
NsS'phenantoin'
p604
NsS'ciloprost'
p605
NsS'gurgell\xc3\xb6sung_ratiopharm'
p606
NsS'etamivan'
p607
NsS'anisomycin'
p608
NsS'pirlindole'
p609
NsS'pridazole'
p610
NsS'xilamide'
p611
NsS'nialamide'
p612
NsS'berotek'
p613
NsS'denatonium_benzoate'
p614
NsS'4_amino_1_5_dimethyl_2_phenyl_3h_pyrazolone'
p615
NsS'3_(2_(4_(4_fluorobenzoyl)piperidinol)ethyl)_2_4(1h_3h)_quinazolinedione'
p616
NsS'sulpyrin'
p617
NsS'iloprost'
p618
NsS'nitrendipin_beta'
p619
NsS'etilefrin_ratiopharm'
p620
NsS'acifugan'
p621
NsS'trimethylcolchicinic_acid'
p622
NsS'molsidomin_heumann'
p623
NsS'lycorine'
p624
NsS'xanthinol'
p625
NsS'yohimbic_acid'
p626
NsS'esculin'
p627
NsS'tennecetin'
p628
NsS'methapyrilene'
p629
NsS'nitrensal'
p630
NsS'androsterone'
p631
NsS'gly_his_lys'
p632
NsS'tubocurarine_chloride'
p633
((F1.0
S'tubocurarine_chloride'
p634
tp635
S"Suffix-based-exact-matching ('tubocurarine chloride', 'tubocurarine_chloride') ('tubocurarine_chloride', 'tubocurarine_chloride')"
p636
tp637
sS'8_methyl_n_vanillyl_6_nonenamide'
p638
NsS'tensatrin'
p639
NsS'atorvastatin'
p640
((F1.0
S'atorvastatin_calcium'
p641
tp642
S"Suffix-based-exact-matching ('atorvastatin', 'atorvastatin_calcium') ('atorvastatin', 'atorvastatin_calcium')"
p643
tp644
sS'talampicillin'
p645
NsS'fenoterol_hydrochloride'
p646
NsS'metampicillin'
p647
NsS'cytisine'
p648
NsS'fluticasone'
p649
((F1.0
S'fluticasone_propionate'
p650
tp651
S"Suffix-based-exact-matching ('fluticasone', 'fluticasone_propionate') ('fluticasone', 'fluticasone_propionate')"
p652
tp653
sS'eglonyl'
p654
NsS'pronetalol'
p655
NsS'spiramycin'
p656
NsS'alpheprol'
p657
NsS'leucenine'
p658
NsS'zeasorb'
p659
NsS'dihydrochloride__emetine'
p660
NsS'iodixanol'
p661
NsS'harmol'
p662
NsS'diethylaminoethyldiphenylpropyl_acetate'
p663
NsS'brinedine'
p664
NsS'salsolidin'
p665
NsS'levcycloserine'
p666
NsS'minaprine'
p667
NsS'solasodine'
p668
NsS'nisoxetine'
p669
NsS'cytochalasin_b'
p670
NsS'biotin_ratiopharm'
p671
NsS'tiapride'
p672
NsS'neogama'
p673
NsS'gabacet'
p674
NsS'mianserin'
p675
NsS'cyclic_amp__dibutyryl'
p676
NsS'stashustenl\xe3\xb6ser'
p677
NsS'troleandomycin'
p678
NsS'mesalazine'
p679
NsS'butirosin'
p680
NsS'paracetamol'
p681
NsS'restryl'
p682
NsS'carcinine'
p683
NsS'abamectin'
p684
NsS'p\xe3\xa4diamuc'
p685
NsS'vinpocetine'
p686
NsS'prostaglandin_f2_alpha'
p687
NsS'pyridoxine'
p688
((F1.0
S'pyridoxine_hydrochloride'
p689
tp690
S"Suffix-based-exact-matching ('pyridoxine', 'pyridoxine_hydrochloride') ('pyridoxine', 'pyridoxine_hydrochloride')"
p691
tp692
sS'flavoquine'
p693
NsS'harmalol'
p694
NsS'bezafibrate'
p695
NsS'prestwick_1085'
p696
NsS'prestwick_1082'
p697
NsS'prestwick_1083'
p698
NsS'prestwick_1080'
p699
NsS'clioquinol'
p700
NsS'cholestil'
p701
NsS'monensin'
p702
NsS'flavamed'
p703
NsS'dibenz(b_f)(1_4)oxazepine_10(11h)_carboxylic_acid__8_chloro___2_acetylhydrazide'
p704
NsS'cefotiam_hydrochloride'
p705
NsS'suramin'
p706
NsS'3_acetylcoumarin'
p707
NsS'quercetin'
p708
NsS'thioperamide'
p709
NsS'haloapor'
p710
NsS'butoconazole'
p711
((F1.0
S'butoconazole_nitrate'
p712
tp713
S"Suffix-based-exact-matching ('butoconazole', 'butoconazole_nitrate') ('butoconazole', 'butoconazole_nitrate')"
p714
tp715
sS'dehydrocholic_acid__magnesium_salt'
p716
NsS'acocantherin'
p717
NsS'ikarugamycin'
p718
NsS'4h_1_benzopyran_4_one__7_((6_o_(6_deoxy_alpha_l_mannopyranosyl)_beta_d_glucopyranosyl)oxy)_2_3_dihydro_5_hydroxy_2_(3_hydroxy_4_methoxyphenyl)___(s)_'
p719
NsS'quipazine'
p720
NsS'ruxolitinib'
p721
NsS'bromopride'
p722
NsS'benperidol_neuraxpharm'
p723
NsS'ambilhar'
p724
NsS'donalgin'
p725
NsS'betulinic_acid'
p726
NsS'aptin_duriles'
p727
NsS'chloride__hexamethonium'
p728
NsS'sulphorthodimethoxine'
p729
NsS'meclofenamic_acid'
p730
NsS'felbinac'
p731
NsS'gossypol__(_)_isomer'
p732
NsS'meptazinol_hydrochloride'
p733
NsS'ambrobeta'
p734
NsS'picotamide'
p735
NsS'sulpor'
p736
NsS'nadroparin_calcium'
p737
NsS'nitrendipin_heumann'
p738
NsS'surbronc'
p739
NsS'desuric'
p740
NsS'bicuculline'
p741
NsS'veratetrin'
p742
NsS'phosphate__oleandomycin'
p743
NsS'4_methylumbelliferone'
p744
NsS'dichloride_dihydrate__hexamethonium'
p745
NsS'convallatoxigenin'
p746
NsS'7_hydroxy_4_methyl_coumarin'
p747
NsS'sklerofibrat'
p748
NsS'sulfamerazine'
p749
NsS'calcium_pantothenate'
p750
NsS'monocrotaline_hydrochloride_(13alpha_14alpha)_isomer'
p751
NsS'sulfametoxydiazine'
p752
NsS'todrazoline'
p753
NsS'iodide__gallamine_triethyl'
p754
NsS'difflam'
p755
NsS'ionomycin'
p756
NsS'tribenoside'
p757
NsS'napelline'
p758
NsS'betahistine_dihydrobromide'
p759
NsS'oxybenzone'
p760
NsS'baypress'
p761
NsS'diiodide__hexamethonium'
p762
NsS'psicocen'
p763
NsS'benfotiamine'
p764
NsS'mefenamic_acid'
p765
((F1.0
S'mefenamic_acid'
p766
tp767
S"(st) matching: ratio , lcs, (key,drug) (keynorm,drugnorm 1.0 mefenamic_acid ('mefenamic acid', 'mefenamic_acid') ('mefenamic_acid', 'mefenamic_acid')"
p768
tp769
sS'actinospectacin'
p770
NsS'reverin'
p771
NsS'ambroxol'
p772
NsS'cytospaz'
p773
NsS'ioxaglate__methylglucamine'
p774
NsS'novo_domperidone'
p775
NsS'3_aminobenzamide'
p776
NsS'clemizole'
p777
NsS'acid__3_caffeoylquinic'
p778
NsS'mecamylamine'
p779
((F1.0
S'mecamylamine_hydrochloride'
p780
tp781
S"Suffix-based-exact-matching ('mecamylamine', 'mecamylamine_hydrochloride') ('mecamylamine', 'mecamylamine_hydrochloride')"
p782
tp783
sS'carlyt\xe3\xa8ne'
p784
NsS'niflactol'
p785
NsS'acid__meso_nordihydroguaiaretic'
p786
NsS'vagi_hex'
p787
NsS'acetylpromazine'
p788
NsS'gen_gliclazide'
p789
NsS'ethoxyquin'
p790
NsS'lorglumide'
p791
NsS'methoxamine'
p792
NsS'pregnenolone'
p793
NsS'sulfadoxine'
p794
NsS'ampicillin__phthalidyl'
p795
NsS'diphenylpyraline'
p796
NsS'bayer_2353'
p797
NsS'sulformethoxine'
p798
NsS'monocrotaline'
p799
NsS'prestwick_642'
p800
NsS'piperine'
p801
NsS'homatropine'
p802
((F1.0
S'homatropine_methylbromide'
p803
tp804
S"Suffix-based-exact-matching ('homatropine', 'homatropine_methylbromide') ('homatropine', 'homatropine_methylbromide')"
p805
tp806
sS'pramocaine'
p807
NsS'cicloheximide'
p808
NsS'zelmid'
p809
NsS'15(s)_15_methylprostaglandin_e2'
p810
NsS'methoin'
p811
NsS'trivastal'
p812
NsS'iocetamic_acid'
p813
NsS'genaspor'
p814
NsS'hydrochloride__oxymetazoline'
p815
NsS'thalidomide'
p816
NsS'novalgin'
p817
NsS'silentan_nefopam'
p818
NsS'alpha_isosparteine'
p819
NsS'talusin'
p820
NsS'hydrastinine'
p821
NsS'cerepar_n'
p822
NsS'phenformin'
p823
NsS'raubasine'
p824
NsS'nitrendipincorax'
p825
NsS'fipexide'
p826
NsS'acemetacin'
p827
NsS'gabexate_monomethanesulfonate'
p828
NsS'genisteine_alkaloid'
p829
NsS'butein'
p830
NsS'sulfamethoxypyridazine'
p831
NsS'genistein'
p832
NsS'bromperidol'
p833
NsS'von_ct__nicergolin'
p834
NsS'crystallinic_acid'
p835
NsS'etofenamate'
p836
NsS'alfaxalone'
p837
NsS'molsi_1a_pharma'
p838
NsS'dexatrim'
p839
NsS'beza_puren'
p840
NsS'3h_pyrido(3_4_b)indole__4_9_dihydro_7_methoxy_1_methyl_'
p841
NsS'efortil'
p842
NsS'normelubrine'
p843
NsS'pivampicillin'
p844
NsS'prestwick_860'
p845
NsS'iodide__hexamethonium'
p846
NsS'lobelanidine'
p847
NsS'prestwick_864'
p848
NsS'hydrochloride__talampicillin'
p849
NsS'disodium_1_hydroxyethylene_diphosphonate'
p850
NsS'lisuride_mesylate'
p851
NsS'trapidil'
p852
NsS'1_(o_allylphenoxy)_3_(isopropylamino)_2_propanol'
p853
NsS'pervincamine'
p854
NsS'isosorbide'
p855
((F1.0
S'isosorbide_mononitrate'
p856
tp857
S"Suffix-based-exact-matching ('isosorbide', 'isosorbide_mononitrate') ('isosorbide', 'isosorbide_mononitrate')"
p858
tp859
sS'morsydomine'
p860
NsS'withaferin_a'
p861
NsS'chloropyramine'
p862
NsS'sparteine__(7r_(7alpha_7abeta_14alpha_14abeta))_isomer'
p863
NsS'para_aminohippuric_acid'
p864
NsS'wortmannin'
p865
NsS'dimethyloxazolidinedione'
p866
NsS'rauverid'
p867
NsS'molsidomin_ratiopharm'
p868
NsS'rolitetracycline_mononitrate__sesquihydrate'
p869
NsS'practolol'
p870
NsS'levamisole_hydrochloride'
p871
NsS'cantharidin'
p872
NsS'seryltrihydroxybenzylhydrazine'
p873
NsS'benserazide'
p874
NsS'novobiocin__monosodium_salt'
p875
NsS'methylarecaidin'
p876
NsS'sodium_fusidate'
p877
NsS'fluorocurarine'
p878
NsS'demecolcine__(+_)_isomer'
p879
NsS'tocainide__(+_)_isomer'
p880
NsS'methiothepin_maleate'
p881
NsS'me_ccnu'
p882
NsS'dilazep'
p883
NsS'fusidic_acid'
p884
NsS'spectinomycin_dihydrochloride__pentahydrate'
p885
NsS'masoprocol'
p886
NsS'alfuzosin'
p887
((F1.0
S'alfuzosin_hydrochloride'
p888
tp889
S"Suffix-based-exact-matching ('alfuzosin', 'alfuzosin_hydrochloride') ('alfuzosin', 'alfuzosin_hydrochloride')"
p890
tp891
sS'bergenin'
p892
NsS'levomepromazine'
p893
NsS'benzocaine'
p894
NsS'cholylglycine'
p895
NsS'imipenem'
p896
((F1.0
S'imipenem_and_cilastatin'
p897
tp898
S"(st) matching: ratio , lcs, (key,drug) (keynorm,drugnorm 1.0 imipenem ('imipenem', 'imipenem_and_cilastatin') ('imipenem', 'imipenem_and_cilastatin')"
p899
tp900
sS'disodium_etidronate'
p901
NsS'eticlopride'
p902
NsS'gurgell\xe3\xb6sung_ratiopharm'
p903
NsS'katrum'
p904
NsS'suxibuzone'
p905
NsS'aminoglutethimide'
p906
NsS'azapropazone'
p907
NsS'sertaconazole'
p908
NsS'guanadrel'
p909
NsS'maleate__domperidone'
p910
NsS'lysuride_hydrogen_maleate'
p911
NsS'ethyl_aminobenzoate'
p912
NsS'clofilium_tosylate'
p913
NsS'arachidonyltrifluoromethane'
p914
NsS'sildenafil'
p915
((F1.0
S'sildenafil_citrate'
p916
tp917
S"Suffix-based-exact-matching ('sildenafil', 'sildenafil_citrate') ('sildenafil', 'sildenafil_citrate')"
p918
tp919
sS'triethiodide__gallamine'
p920
NsS'pyridinium__1_((4_amino_2_propyl_5_pyrimidinyl)methyl)_2_methyl___chloride_(1:1)'
p921
NsS'epitiostanol'
p922
NsS'hydrochloride__lisuride'
p923
NsS'diundecenoate__dequalinium'
p924
NsS'alpha_clopenthixol'
p925
NsS'(+)_isoprenaline'
p926
NsS'midecamycin'
p927
NsS'chlorbutin'
p928
NsS'quinethazone'
p929
NsS'alfadolone'
p930
NsS'carbamide__methylergol'
p931
NsS'tenoxicam'
p932
NsS'acetyl_2_methylcholine_chloride'
p933
NsS'nu_domperidone'
p934
NsS'2_6_dimethylpiperidine'
p935
NsS'mycophenolic_acid'
p936
((F1.0
S'mycophenolic_acid'
p937
tp938
S"(st) matching: ratio , lcs, (key,drug) (keynorm,drugnorm 1.0 mycophenolic_acid ('mycophenolic acid', 'mycophenolic_acid') ('mycophenolic_acid', 'mycophenolic_acid')"
p939
tp940
sS'calmidazolium'
p941
NsS'6_dehydro_9_beta_10_alpha_progesterone'
p942
NsS'nitren_acis'
p943
NsS'neostigmine_bromide'
p944
NsS'p_hydroxyphenylorciprenaline'
p945
NsS'lobeline'
p946
NsS'salsolinol'
p947
NsS'niprina'
p948
NsS'benfluorex'
p949
NsS'2_deoxyglucose'
p950
((F0.8571428571428571
S'fludeoxyglucose_f18'
p951
tp952
S"(st) matching: ratio , lcs, (key,drug) (keynorm,drugnorm 0.857142857143 deoxyglucose ('2_deoxyglucose', 'fludeoxyglucose_f18') ('2_deoxyglucose', 'fludeoxyglucose_f18')"
p953
tp954
sS'cyclonamine'
p955
NsS'propoxycaine'
p956
NsS'synthrom'
p957
NsS'sodium_oxolinate'
p958
NsS'bayotensin'
p959
NsS'prestwick_675'
p960
NsS'prestwick_674'
p961
NsS'streptomycin'
p962
((F1.0
S'streptomycin_sulfate'
p963
tp964
S"Suffix-based-exact-matching ('streptomycin', 'streptomycin_sulfate') ('streptomycin', 'streptomycin_sulfate')"
p965
tp966
sS'tocainide_hydrochloride'
p967
NsS'4_5_dianilinophthalimide'
p968
NsS'carbeneoxolone'
p969
NsS'hesperetin_7_rhamnoglucoside'
p970
NsS'adrenam'
p971
NsS'alpha_estradiol'
p972
NsS'ketotifen'
p973
((F1.0
S'ketotifen_fumarate'
p974
tp975
S"Suffix-based-exact-matching ('ketotifen', 'ketotifen_fumarate') ('ketotifen', 'ketotifen_fumarate')"
p976
tp977
sS'sulindac_sulfide'
p978
NsS'lisuride_hydrochloride'
p979
NsS'chlorambucil'
p980
NsS'fisetin'
p981
NsS'dimesylate__quinacrine'
p982
NsS'2_(acetyloxy)_n_n_n_trimethyl_1_propanaminium_chloride'
p983
NsS'aconitine'
p984
NsS'procarbazine_monohydrobromide'
p985
NsS'hexamethylmelamine'
p986
NsS'17_alpha_ethynyltestosterone'
p987
NsS'deoxyglucose'
p988
((F1.0
S'fludeoxyglucose_f18'
p989
tp990
S"(st) matching: ratio , lcs, (key,drug) (keynorm,drugnorm 1.0 deoxyglucose ('deoxyglucose', 'fludeoxyglucose_f18') ('deoxyglucose', 'fludeoxyglucose_f18')"
p991
tp992
sS'fendiline_hydrochloride'
p993
NsS'piperlongumine'
p994
NsS'herpecin_l'
p995
NsS'cyclizine_hydrochloride'
p996
NsS'levopropoxyphene'
p997
NsS'alexidine'
p998
NsS'zimelidine_hydrochloride'
p999
NsS'imidamine'
p1000
NsS'acid__flufenamic'
p1001
NsS'cinnarizine'
p1002
NsS'strophanthidin'
p1003
NsS'thiamphenicol'
p1004
NsS'sparteine_hydrochloride__(7r_(7alpha_7aalpha_14alpha_14abeta))_isomer'
p1005
NsS'by_vertin'
p1006
NsS'pyralgin'
p1007
NsS'indoprofen'
p1008
NsS'tineafax'
p1009
NsS'verteporfin'
p1010
NsS'digoxigenin'
p1011
NsS'chloropyrazine'
p1012
NsS'oleandocetin'
p1013
NsS'prestwick_857'
p1014
NsS'zardaverine'
p1015
NsS'ursacholic_acid'
p1016
NsS'propantheline_bromide'
p1017
((F1.0
S'propantheline_bromide'
p1018
tp1019
S"(st) matching: ratio , lcs, (key,drug) (keynorm,drugnorm 1.0 propantheline_bromide ('propantheline bromide', 'propantheline_bromide') ('propantheline_bromide', 'propantheline_bromide')"
p1020
tp1021
sS'spectam'
p1022
NsS'canrenoate__potassium'
p1023
NsS'ramifenazone'
p1024
NsS'dolo_visano_m'
p1025
NsS'valdecoxib'
p1026
NsS'nimergoline'
p1027
NsS'pulmonal_s'
p1028
NsS'carbenoxolone_disodium_salt'
p1029
NsS'antipyrine'
p1030
NsS'fasudil'
p1031
NsS'spiroperone'
p1032
NsS'monohydrobromide__procarbazine'
p1033
NsS'hnmpa_(am)3'
p1034
NsS'heptaminol'
p1035
NsS'rauwolscine'
p1036
NsS'demecolcine'
p1037
NsS'fusidin'
p1038
NsS'claramid'
p1039
NsS'xidiphon'
p1040
NsS'benzidamine'
p1041
NsS'beta_isosparteine'
p1042
NsS'atropine_sulfate__3(s)_endo_isomer'
p1043
NsS'5_butyl_2_pyridinedicarboxylic_acid'
p1044
NsS'rifedot'
p1045
NsS'circo_maren'
p1046
NsS'prestwick_920'
p1047
NsS'xamoterol_hemifumarate'
p1048
NsS'ifenprodil'
p1049
NsS'analogues__estrogen'
p1050
NsS'soludactone'
p1051
NsS'idoxuridine__3h_labeled'
p1052
NsS'sitosterol'
p1053
NsS'levopropoxyphene_2_naphthalenesulfonate_hydrate'
p1054
NsS'spectinomycin'
p1055
NsS'aminophenazone'
p1056
NsS'prostaglandin_e2alpha'
p1057
NsS'prepidil_gel'
p1058
NsS'sinapsan'
p1059
NsS'benzethonium_chloride'
p1060
NsS'lysine__tetracycline_l_methylene'
p1061
NsS'cantharidine'
p1062
NsS'bayer_2502'
p1063
NsS'remoxipride_monohydrochloride_monohydrate'
p1064
NsS'gelopol'
p1065
NsS'21_hydroxy_4_pregnene_3_20_dione'
p1066
NsS'icavex'
p1067
NsS'carwin'
p1068
NsS'gossypol'
p1069
NsS'spiramycine'
p1070
NsS'18alpha_carbenoxolone'
p1071
NsS'telepathine'
p1072
NsS'sodum_phenylbutyrate'
p1073
((F0.85
S'sodium_phenylbutyrate'
p1074
tp1075
S"(st) matching: ratio , lcs, (key,drug) (keynorm,drugnorm 0.85 um_phenylbutyrate ('sodum_phenylbutyrate', 'sodium_phenylbutyrate') ('sodum_phenylbutyrate', 'sodium_phenylbutyrate')"
p1076
tp1077
sS'tetryzoline'
p1078
NsS'novo_benzydamine'
p1079
NsS'glafenine'
p1080
NsS'avatec'
p1081
NsS'theobromine'
p1082
NsS'novobiocin'
p1083
NsS'ex_lax'
p1084
NsS'dihydrochloride__pirenzepine'
p1085
NsS'biopropazepan_trimethoxybenzoate'
p1086
NsS'doxorubicin'
p1087
((F1.0
S'doxorubicin_hydrochloride'
p1088
tp1089
S"Suffix-based-exact-matching ('doxorubicin', 'doxorubicin_hydrochloride') ('doxorubicin', 'doxorubicin_hydrochloride')"
p1090
tp1091
sS'loxapine'
p1092
((F1.0
S'loxapine_succinate'
p1093
tp1094
S"Suffix-based-exact-matching ('loxapine', 'loxapine_succinate') ('loxapine', 'loxapine_succinate')"
p1095
tp1096
sS'nootropil'
p1097
NsS'hexamethonium_dibromide_dihydrate'
p1098
NsS'neostigmine'
p1099
((F1.0
S'neostigmine_methylsulfate'
p1100
tp1101
S"Suffix-based-exact-matching ('neostigmine', 'neostigmine_methylsulfate') ('neostigmine', 'neostigmine_methylsulfate')"
p1102
tp1103
sS'ioxaglate_meglumine'
p1104
NsS'azlocillin_sodium'
p1105
NsS'meresa'
p1106
NsS'viomycins'
p1107
NsS'desisulpid'
p1108
NsS'melatonin'
p1109
NsS'acetylsalicylsalicylic_acid'
p1110
NsS'estrogen_analogues'
p1111
NsS'vicemycetin'
p1112
NsS'benzocaine_methanesulfonate'
p1113
NsS'doxylamine'
p1114
((F1.0
S'doxylamine_succinate'
p1115
tp1116
S"Suffix-based-exact-matching ('doxylamine', 'doxylamine_succinate') ('doxylamine', 'doxylamine_succinate')"
p1117
tp1118
sS'indometacin'
p1119
NsS'metergoline'
p1120
NsS'(+)_chelidonine'
p1121
NsS'veto_centre'
p1122
NsS'cerebroxine'
p1123
NsS'chicago_sky_blue_6b'
p1124
NsS'guanazolo'
p1125
NsS'butyl_hydroxybenzoate'
p1126
NsS'quinpirole'
p1127
NsS'roche__biotine'
p1128
NsS'roxigr\xe3\xbcn'
p1129
NsS'delsoline'
p1130
NsS'sinthrome'
p1131
NsS'dihydrochloride__flunarizine'
p1132
NsS'n_lysinomethyltetracycline'
p1133
NsS'xamoterol__(s)_isomer'
p1134
NsS'alimemazine'
p1135
NsS'algopyrin'
p1136
NsS'ratio_domperidone'
p1137
NsS'bezafisal'
p1138
NsS'gelfert__biotin'
p1139
NsS'nifurazolidone'
p1140
NsS'etidronate__sodium'
p1141
NsS'prestwick_664'
p1142
NsS'terfedura'
p1143
NsS'phomin'
p1144
NsS'piperacetazine'
p1145
NsS'idoxuridine__123i_labeled'
p1146
NsS'skf_525a'
p1147
NsS'cuxabrain'
p1148
NsS'terguride'
p1149
NsS'tuberactinomycin_b'
p1150
NsS'valinomycin'
p1151
NsS'sparteine_monohydroiodide__(7r_(7alpha_7aalpha_14alpha_14abeta))_isomer'
p1152
NsS'isolithocholic_acid'
p1153
NsS'zaprinast'
p1154
NsS'larylin_husten_l\xe3\xb6ser'
p1155
NsS'nicergolin_lindo'
p1156
NsS'monosodium_salt_suramin'
p1157
NsS'jutapress'
p1158
NsS'monohydrochloride__xamoterol'
p1159
NsS'gargon'
p1160
NsS'isocorydine'
p1161
NsS'blebbistatin'
p1162
NsS'mebeverine'
p1163
NsS'tocainide_monohydrobromide__(r)_isomer'
p1164
NsS'flupentixol'
p1165
NsS'gastro_entericanis_biocanina'
p1166
NsS'remoxipride_monohydrochloride'
p1167
NsS'pyrantel'
p1168
NsS'quinacrine'
p1169
NsS'ethinyl_estradiol_3_cyclopentyl_ether'
p1170
NsS'pivampicillin_monohydrochloride'
p1171
NsS'metrifonate'
p1172
NsS'zomepirac'
p1173
NsS'16_alpha_hydroxy_estradiol'
p1174
NsS'spiperone'
p1175
NsS'quinacrine_monoacetate'
p1176
NsS'5_alpha_androstan_3_alpha_ol_17_one'
p1177
NsS'flumetasone'
p1178
NsS'fursultiamin_hydrochloride'
p1179
NsS'vastensium'
p1180
NsS'diaglyk'
p1181
NsS'befibrat'
p1182
NsS'diphosphonate__disodium_1_hydroxyethylene'
p1183
NsS'cinnarizin_siegfried'
p1184
NsS'iopanoic_acid'
p1185
NsS'sulconazole'
p1186
NsS'tioguanine'
p1187
((F0.9
S'thioguanine'
p1188
tp1189
S"(st) matching: ratio , lcs, (key,drug) (keynorm,drugnorm 0.9 ioguanine ('tioguanine', 'thioguanine') ('tioguanine', 'thioguanine')"
p1190
tp1191
sS'e2__prostaglandin'
p1192
NsS'acid__atractylic'
p1193
NsS'tetraverin'
p1194
NsS'biokur'
p1195
NsS'cyproheptadine'
p1196
((F1.0
S'cyproheptadine_hydrochloride'
p1197
tp1198
S"Suffix-based-exact-matching ('cyproheptadine', 'cyproheptadine_hydrochloride') ('cyproheptadine', 'cyproheptadine_hydrochloride')"
p1199
tp1200
sS'tiratricol'
p1201
NsS'arminol'
p1202
NsS'domperidona_gamir'
p1203
NsS'suramin__monosodium_salt'
p1204
NsS'amodiaquine_hydrochloride'
p1205
NsS'glycocholic_acid__sodium_salt'
p1206
NsS'ebselen'
p1207
NsS'tetrandrine'
p1208
NsS'glyade'
p1209
NsS'cefsulodin'
p1210
NsS'16alpha_17beta_estriol'
p1211
NsS'metformin'
p1212
((F1.0
S'metformin_hydrochloride'
p1213
tp1214
S"Suffix-based-exact-matching ('metformin', 'metformin_hydrochloride') ('metformin', 'metformin_hydrochloride')"
p1215
tp1216
sS'4_aminophenazone'
p1217
NsS'3__4__5_7_tetrahydroxy_flavone'
p1218
NsS'carteolol'
p1219
((F1.0
S'carteolol_hydrochloride'
p1220
tp1221
S"Suffix-based-exact-matching ('carteolol', 'carteolol_hydrochloride') ('carteolol', 'carteolol_hydrochloride')"
p1222
tp1223
sS'nicergoline'
p1224
NsS'flunarizine_hydrochloride'
p1225
NsS'lullamin'
p1226
NsS'esculoside'
p1227
NsS'betonicine'
p1228
NsS'nipecotic_acid'
p1229
NsS'sulfamonomethoxine'
p1230
NsS'mucotablin'
p1231
NsS'epirizole'
p1232
NsS'apomorphine_chloride'
p1233
NsS'glianimon'
p1234
NsS'cisaken'
p1235
NsS'noscapine_hydrochloride'
p1236
NsS'ceforanide'
p1237
NsS'dihydrobromide__betahistine'
p1238
NsS'breezee'
p1239
NsS'cholanhmb'
p1240
NsS'ursodeoxycholic_acid'
p1241
NsS'noscapine'
p1242
NsS'carbarsone'
p1243
NsS'methotrimeprazine'
p1244
NsS'sydnopharm'
p1245
NsS'tetrahydroalstonine'
p1246
NsS'ocriplasmin'
p1247
NsS'bitartrate__hexamethonium'
p1248
NsS'quinestrol'
p1249
NsS'parbendazole'
p1250
NsS'p_butoxyphenylacethydroxamic_acid'
p1251
NsS'thioguanosine'
p1252
NsS'enilconazole'
p1253
NsS'iproniazid'
p1254
NsS'fenformin'
p1255
NsS'fluvastatin'
p1256
((F1.0
S'fluvastatin_sodium'
p1257
tp1258
S"Suffix-based-exact-matching ('fluvastatin', 'fluvastatin_sodium') ('fluvastatin', 'fluvastatin_sodium')"
p1259
tp1260
sS'acid__piperamic'
p1261
NsS'rhamnoside__scillarenin'
p1262
NsS'6_bromoindirubin_3__oxime'
p1263
NsS'betahistine_methanesulfonate'
p1264
NsS'glycopyrronium_bromide'
p1265
NsS'dicalcium_etidronate'
p1266
NsS'benzbromaron'
p1267
NsS'ginkgolide_a'
p1268
NsS'isoetarine'
p1269
NsS'altretamine'
p1270
NsS'sulphachlorpyridazine'
p1271
NsS'naftopidil'
p1272
NsS'oxolamine'
p1273
NsS'enoxin'
p1274
NsS'pyracetam'
p1275
NsS'arithmin'
p1276
NsS'oxedrine'
p1277
NsS'hexinawas'
p1278
NsS'kinetin'
p1279
NsS'azaguanine'
p1280
NsS'meclocycline'
p1281
NsS'dequalinium_diundecenoate'
p1282
NsS'kitasamycin_a3'
p1283
NsS'sulpitil'
p1284
NsS'4_aminoantipyrine'
p1285
NsS'benzamil'
p1286
NsS'yohimbine'
p1287
NsS'zimelidin'
p1288
NsS'tocainide_monohydrochloride__(s)_isomer'
p1289
NsS'selectomycin'
p1290
NsS'n_acetylmuramic_acid'
p1291
NsS'amodiaquine'
p1292
NsS'niclosamide'
p1293
NsS'fenoterol'
p1294
NsS'dosulepin'
p1295
NsS'penbutolol_sulfate_(2:1)'
p1296
NsS'atsefen'
p1297
NsS'pms_domperidone'
p1298
NsS'hydrochloride__papaverine'
p1299
NsS'benzocaine_acetate'
p1300
NsS'bay_va_1470'
p1301
NsS'egrgocryptine'
p1302
NsS'lisuride__(8alpha)_(+_)_isomer'
p1303
NsS'piracetam_rph'
p1304
NsS'domperidone_maleate'
p1305
NsS'alclometasone'
p1306
((F1.0
S'alclometasone_dipropionate'
p1307
tp1308
S"Suffix-based-exact-matching ('alclometasone', 'alclometasone_dipropionate') ('alclometasone', 'alclometasone_dipropionate')"
p1309
tp1310
sS'5_ethyl_3_methyl_5_phenylhydantoin'
p1311
NsS'sulfachloropyridazine'
p1312
NsS'velnacrine'
p1313
NsS'paratect'
p1314
NsS'diamicron'
p1315
NsS'hycanthone'
p1316
NsS'ospemifene'
p1317
NsS'sulfate__penbutolol'
p1318
NsS'tiapride_monohydrochloride'
p1319
NsS'terfenadin_al'
p1320
NsS'radewerm'
p1321
NsS'carbenoxolone'
p1322
NsS'merbromin'
p1323
NsS'ketorolac'
p1324
((F1.0
S'ketorolac_tromethamine'
p1325
tp1326
S"(st) matching: ratio , lcs, (key,drug) (keynorm,drugnorm 1.0 ketorolac ('ketorolac', 'ketorolac_tromethamine') ('ketorolac', 'ketorolac_tromethamine')"
p1327
tp1328
sS'sodium_ursodeoxycholate'
p1329
NsS'piracebral'
p1330
NsS'oxetacaine'
p1331
NsS'pirenperone'
p1332
NsS'zimeldine'
p1333
NsS'thomasin'
p1334
NsS'trimethobenzamide'
p1335
((F1.0
S'trimethobenzamide_hydrochloride'
p1336
tp1337
S"Suffix-based-exact-matching ('trimethobenzamide', 'trimethobenzamide_hydrochloride') ('trimethobenzamide', 'trimethobenzamide_hydrochloride')"
p1338
tp1339
sS'pge2alpha'
p1340
NsS'dihydronorguaiaretic_acid'
p1341
NsS'isoconazole'
p1342
NsS'propranolol'
p1343
((F1.0
S'propranolol_hydrochloride'
p1344
tp1345
S"Suffix-based-exact-matching ('propranolol', 'propranolol_hydrochloride') ('propranolol', 'propranolol_hydrochloride')"
p1346
tp1347
sS'rabeprazole'
p1348
((F1.0
S'rabeprazole_sodium'
p1349
tp1350
S"Suffix-based-exact-matching ('rabeprazole', 'rabeprazole_sodium') ('rabeprazole', 'rabeprazole_sodium')"
p1351
tp1352
sS'lanatoside_c'
p1353
NsS'helveticoside'
p1354
NsS'succinylsulfathiazole'
p1355
NsS'hydrochloride_anhydrous__remoxipride'
p1356
NsS'rolitetracycline_nitrate'
p1357
NsS'flagecidin'
p1358
NsS'nicergobeta'
p1359
NsS'sebical'
p1360
NsS'etofylline'
p1361
NsS'monohydrochloride_monohydrate__remoxipride'
p1362
NsS'monohydrochloride__fursultiamin'
p1363
NsS'cinnarizin_ratiopharm'
p1364
NsS'serotonin'
p1365
NsS'antimycin_a1'
p1366
NsS'stas_gurgell\xe3\xb6sung_n'
p1367
NsS'famprofazone'
p1368
NsS'regorafenib'
p1369
NsS'lynestrenol'
p1370
NsS'4_octopamine'
p1371
NsS'etanidazole'
p1372
NsS'hydrochloride__cyclizine'
p1373
NsS'atropine_oxide'
p1374
NsS'pyrenzepine'
p1375
NsS'acetazine'
p1376
NsS'heliotrine'
p1377
NsS'harman'
p1378
NsS'prenylamine'
p1379
NsS'monohydrochloride__quinacrine'
p1380
NsS'sulfamonomet_hoxine'
p1381
NsS'ferkel_spectam'
p1382
NsS'proxymetacaine'
p1383
NsS'fenspiride'
p1384
NsS'mephentermine_sulfate'
p1385
NsS'kalium_can._ratiopharm'
p1386
NsS'phenindione'
p1387
NsS'iopromide'
p1388
NsS'ethotoin'
p1389
NsS'myristic'
p1390
NsS'folic_acid'
p1391
((F1.0
S'folic_acid'
p1392
tp1393
S"(st) matching: ratio , lcs, (key,drug) (keynorm,drugnorm 1.0 folic_acid ('folic acid', 'folic_acid') ('folic_acid', 'folic_acid')"
p1394
tp1395
sS'arachidonic_acid__sodium_salt__(all_z)_isomer'
p1396
NsS'methyl_ccnu'
p1397
NsS'palmatine'
p1398
NsS'lymecycline'
p1399
NsS'syncumar'
p1400
NsS'clorsulon'
p1401
NsS'nifuroxazide'
p1402
NsS'cyclizine'
p1403
NsS'dimethyloxalylglycine'
p1404
NsS'gastrozepin'
p1405
NsS'acid__5_butyl_2_pyridinedicarboxylic'
p1406
NsS'phensuximide'
p1407
NsS'ouabain'
p1408
NsS'atractyloside'
p1409
NsS'amdinocillin_pivoxil'
p1410
NsS'mononitrate__rolitetracycline'
p1411
NsS'hexamethonium'
p1412
NsS'trolox_c'
p1413
NsS'hustenl\xe3\xb6ser__therapin'
p1414
NsS'dequalinium'
p1415
NsS'hydrochloride__propranolol'
p1416
NsS'fraxiparin'
p1417
NsS'atebrin'
p1418
NsS'azacyclonol'
p1419
NsS'acetylbenzoyl_aconine'
p1420
NsS'dextrosulfenidol'
p1421
NsS'bayluscide'
p1422
NsS'quinostatin'
p1423
NsS'roxibeta'
p1424
NsS'3_o_hemisuccinate__glycyrrhetinic_acid'
p1425
NsS'racecadotril'
p1426
NsS'capzasin'
p1427
NsS'fursultiamine'
p1428
NsS'exisulind'
p1429
NsS'ordiflazine'
p1430
NsS'cefamandole'
p1431
NsS'metanephrine'
p1432
NsS'prozerin'
p1433
NsS'aciclovir'
p1434
((F0.8888888888888888
S'valganciclovir_hydrochloride'
p1435
tp1436
S"(st) matching: ratio , lcs, (key,drug) (keynorm,drugnorm 0.888888888889 ciclovir ('aciclovir', 'valganciclovir_hydrochloride') ('aciclovir', 'valganciclovir_hydrochloride')"
p1437
tp1438
sS'iodochloroxyquinoline'
p1439
NsS'acid__fusidic'
p1440
NsS'oftan_idu'
p1441
NsS'oxymetazoline'
p1442
NsS'splitomicin'
p1443
NsS'antiphlogistine_rub_a_535_capsaicin'
p1444
NsS'phenylpropanolamine'
p1445
NsS'mtw_molsidomin'
p1446
NsS'digitoxigenin'
p1447
NsS'propoxyphene__(r_(r*_s*))_isomer'
p1448
NsS'vasoxin'
p1449
NsS'natamycin'
p1450
NsS'bephenium_hydroxynaphthoate'
p1451
NsS'semustine'
p1452
NsS'nicergolin_von_ct'
p1453
NsS'viomycin'
p1454
NsS'maleate__nomifensine'
p1455
NsS'copper_sulfate'
p1456
NsS'colcemid'
p1457
NsS'(_)_atenolol'
p1458
NsS'mucofips'
p1459
NsS'roxithro_lich'
p1460
NsS'ketanserin'
p1461
NsS'diertine'
p1462
NsS'(16beta_17beta)_estra_1_3_5(10)_triene_3_16_17_triol'
p1463
NsS'prasterone__3_alpha_isomer'
p1464
NsS'astemizol_alonga'
p1465
NsS'nomegestrol'
p1466
NsS'calcium__nadroparin'
p1467
NsS'salmosan_t'
p1468
NsS'arachidonic_acid__lithium_salt__(all_z)_isomer'
p1469
NsS'mtw_roxithromycin'
p1470
NsS'4_hydroxyphenazone'
p1471
NsS'bezacur'
p1472
NsS'cardiorythmine'
p1473
NsS'hextril'
p1474
NsS'benzbromarone'
p1475
NsS'kaempferol'
p1476
NsS'ampyrone'
p1477
NsS'thymoxamine'
p1478
NsS'pindione'
p1479
NsS'thiamazole'
p1480
NsS'piracetam'
p1481
NsS'thioproperazine'
p1482
NsS'piribedil'
p1483
NsS'hexestrol'
p1484
NsS'molsihexal'
p1485
NsS'protoveratrine_a'
p1486
NsS'2_deoxy_d_glucose'
p1487
NsS'prestwick_559'
p1488
NsS'proscillaridin_a'
p1489
NsS'astemizole'
p1490
NsS'dihydroergocristine'
p1491
NsS'alpha__prostaglandin_e2'
p1492
NsS'lasalocid'
p1493
NsS'norcyclobenzaprine'
p1494
NsS'corynanthine'
p1495
NsS'gossypol__(+)_isomer'
p1496
NsS'cefotiam'
p1497
NsS'lidoflazine'
p1498
NsS'kawain'
p1499
NsS'siseptin'
p1500
NsS'sulfabenzamide'
p1501
NsS'hydrochloride__dothiepin'
p1502
NsS'ratio_benzydamine'
p1503
NsS'suloctidil_hydrochloride'
p1504
NsS'orlistat'
p1505
NsS'sodium_dehydrocholate'
p1506
NsS'cortexone'
p1507
NsS'16_16_dimethyl_pge2'
p1508
NsS'amp__dibutyryl_cyclic'
p1509
NsS'syrosingopine'
p1510
NsS'acrichine'
p1511
NsS'sporiline'
p1512
NsS'ulgescum'
p1513
NsS'scopolamine_n_oxide'
p1514
NsS'morantel'
p1515
NsS's_propranolol'
p1516
NsS'ioversol'
p1517
NsS'tolnaftat_purder_n'
p1518
NsS'triaminic_dm'
p1519
NsS'molsidomine'
p1520
NsS'dioxybenzone'
p1521
NsS'methanesulfonate__benzocaine'
p1522
NsS'cycloserine'
p1523
NsS'nomifensine_maleate_(1:1)'
p1524
NsS'turimycin_a5'
p1525
NsS'cymarigenin'
p1526
NsS'antazoline_hydrochloride'
p1527
NsS'resocyanine'
p1528
NsS'oxalamic_acid'
p1529
NsS'geldanamycin'
p1530
NsS'stylomycin'
p1531
NsS'benzydamine'
p1532
NsS'visammin'
p1533
NsS'isometheptene'
p1534
NsS'epivincamine'
p1535
NsS'pridinol'
p1536
NsS'physiomycine'
p1537
NsS'nicotinic_acid'
p1538
NsS'embonate__noscapine_hydrogen'
p1539
NsS'stas_hustenl\xe3\xb6ser'
p1540
NsS'propidium_iodide'
p1541
NsS'brinzolamide'
p1542
NsS'acid__oxamidic'
p1543
NsS'roxithromycin'
p1544
NsS'moxonidine'
p1545
NsS'nitrendipin_atid'
p1546
NsS'bucladesine__barium_(1:1)_salt'
p1547
NsS'dibutyryl_adenosine_3__5__monophosphate'
p1548
NsS'pentetic_acid'
p1549
NsS'glycyrrhetinic_acid_3_o_hemisuccinate'
p1550
NsS'6_ethoxy_2_2_4_trimethyl_1_2_dihydroquinoline'
p1551
NsS'trioxysalen'
p1552
NsS'hesperidin'
p1553
NsS'ethylphenylephrine'
p1554
NsS'maleate__lisuride'
p1555
NsS'pirenzepine'
p1556
NsS'ipratropium_bromide'
p1557
((F1.0
S'ipratropium_bromide'
p1558
tp1559
S"(st) matching: ratio , lcs, (key,drug) (keynorm,drugnorm 1.0 ipratropium_bromide ('ipratropium bromide', 'ipratropium_bromide') ('ipratropium_bromide', 'ipratropium_bromide')"
p1560
tp1561
sS'stanicide'
p1562
NsS'mercurochrome'
p1563
NsS'azathymine'
p1564
NsS'hydrate__levopropoxyphene_2_naphthalenesulfonate'
p1565
NsS'abbott_46811'
p1566
NsS'trimetazidine_dihydrochloride'
p1567
NsS'triflusal'
p1568
NsS'methylbenzethonium_chloride'
p1569
NsS'salt_etidronate__tetrapotassium'
p1570
NsS'dorzolamide'
p1571
((F1.0
S'dorzolamide_hydrochloride'
p1572
tp1573
S"Suffix-based-exact-matching ('dorzolamide', 'dorzolamide_hydrochloride') ('dorzolamide', 'dorzolamide_hydrochloride')"
p1574
tp1575
sS'phenanthridinone'
p1576
NsS'sodium__cefsulodin'
p1577
NsS'napsylate_hydrate__levopropoxyphene'
p1578
NsS'sulfaquinoxaline'
p1579
NsS'hydrochloride__betahistine'
p1580
NsS'antimycin_a'
p1581
NsS'calcium_fusarate'
p1582
NsS'pyrithyldione'
p1583
NsS'quipazine_maleate'
p1584
NsS'gel__prepidil'
p1585
NsS'norsynephrine'
p1586
NsS'tolfenamic_acid'
p1587
NsS'priscol'
p1588
NsS'monohydrochloride__tiapride'
p1589
NsS'circupon'
p1590
NsS'g_strophanthin'
p1591
NsS'gibberellic_acid'
p1592
NsS'ioxaglic_acid_monosodium_salt'
p1593
NsS'telenzepine'
p1594
NsS'betahistin_ratiopharm'
p1595
NsS'methampyrone'
p1596
NsS'mephentermine'
p1597
NsS'tantum_topico'
p1598
NsS'gastrocure'
p1599
NsS'vitamin_b2'
p1600
NsS'phenolphthalein'
p1601
NsS'3_sulfino_l_alanine'
p1602
NsS'rofecoxib'
p1603
NsS'analergine'
p1604
NsS'sulmazole'
p1605
NsS'esculetin'
p1606
NsS'deferoxamine'
p1607
((F1.0
S'deferoxamine_mesylate'
p1608
tp1609
S"Suffix-based-exact-matching ('deferoxamine', 'deferoxamine_mesylate') ('deferoxamine', 'deferoxamine_mesylate')"
p1610
tp1611
sS'isocarboxazid'
p1612
NsS'acetylsalicylic_acid'
p1613
NsS'cobalt_chloride'
p1614
NsS'vincimax'
p1615
NsS'acepromazine'
p1616
NsS'4_aminohippuric_acid'
p1617
NsS'dl_serine_2_((2_3_4_trihydroxyphenyl)methyl)hydrazide'
p1618
NsS'pheneticillin'
p1619
NsS'amprolium'
p1620
NsS'acetyl_beta_methylcholine'
p1621
NsS'apigenin'
p1622
NsS'phenylindanedione'
p1623
NsS'narcotine'
p1624
NsS'luteolin'
p1625
NsS'aminohippuric_acid'
p1626
NsS'(_)_catechin'
p1627
NsS'etidronate__dicalcium'
p1628
NsS'planipart'
p1629
NsS'phenacetin'
p1630
NsS'nocodazole'
p1631
NsS'profenamine'
p1632
NsS'hydrochloride__rolitetracycline'
p1633
NsS'nitrendepat'
p1634
NsS'monensin_a_sodium_complex'
p1635
NsS'triethyl_iodide__gallamine'
p1636
NsS'pivamdinocillin'
p1637
NsS'viocin'
p1638
((F1.0
S'viocin_sulfate'
p1639
tp1640
S"Suffix-based-exact-matching ('viocin', 'viocin_sulfate') ('viocin', 'viocin_sulfate')"
p1641
tp1642
sS'cinarizina_inkey'
p1643
NsS'idoxuridine__radical_ion_(1_)'
p1644
NsS'azaperone'
p1645
NsS'dizocilpine'
p1646
NsS'corticosterone'
p1647
NsS'hippophaine'
p1648
NsS'3_alpha_hydroxy_5_alpha_androstan_17_one'
p1649
NsS'co_dergocrine_mesilate'
p1650
NsS'alonga__astemizol'
p1651
NsS'genestein'
p1652
NsS'gramurin'
p1653
NsS'prasterone'
p1654
NsS'4_aminobenzoic_acid_ethyl_ester'
p1655
NsS'arachidonic_acid__(all_z)_isomer__3h_labeled'
p1656
NsS'metixene'
p1657
NsS'mianserin_hydrochloride'
p1658
NsS'tolazoline'
p1659
NsS'levamisole'
p1660
NsS'celiomycin'
p1661
NsS'16_phenyltetranorprostaglandin_e2'
p1662
NsS'mibrox'
p1663
NsS'acebutolol'
p1664
((F1.0
S'acebutolol_hydrochloride'
p1665
tp1666
S"Suffix-based-exact-matching ('acebutolol', 'acebutolol_hydrochloride') ('acebutolol', 'acebutolol_hydrochloride')"
p1667
tp1668
sS'tolvon'
p1669
NsS'domperidon'
p1670
NsS'flunixin'
p1671
NsS'ajmaline_hydrochloride'
p1672
NsS'adrenosterone'
p1673
NsS'melopat'
p1674
NsS'torasemide'
p1675
NsS'lisuride'
p1676
NsS'sulfaguanidine'
p1677
NsS'fludrocortisone'
p1678
((F1.0
S'fludrocortisone_acetate'
p1679
tp1680
S"Suffix-based-exact-matching ('fludrocortisone', 'fludrocortisone_acetate') ('fludrocortisone', 'fludrocortisone_acetate')"
p1681
tp1682
sS'prestwick_967'
p1683
NsS'selexid'
p1684
NsS'thapsigargin'
p1685
NsS'hexamethonium_diperchlorate'
p1686
NsS'azufibrat'
p1687
NsS'mepirizole'
p1688
NsS'stugeron'
p1689
NsS'proadifen_hydrochloride'
p1690
NsS'(1r_2r)_1_benzyl_3_(dimethylamino)_2_methyl_1_phenylpropyl_propanoate_naphtalene_2_sulfonic_acid'
p1691
NsS'dinoprost'
p1692
NsS'dihydroergocristine_monomesylate'
p1693
NsS'estrofan'
p1694
NsS'1_1_hydroxyethylenediphosphonate'
p1695
NsS'nicerium'
p1696
NsS'bufexamac'
p1697
NsS'mecholine'
p1698
NsS'3_alpha_7_beta_dihydroxy_5_beta_cholan_24_oic_acid'
p1699
NsS'banisterine'
p1700
NsS'tocainide'
p1701
NsS'cortisone'
p1702
((F1.0
S'cortisone_acetate'
p1703
tp1704
S"Suffix-based-exact-matching ('cortisone', 'cortisone_acetate') ('cortisone', 'cortisone_acetate')"
p1705
tp1706
sS'pipemidic_acid'
p1707
NsS'nalidixic_acid'
p1708
((F1.0
S'nalidixic_acid'
p1709
tp1710
S"(st) matching: ratio , lcs, (key,drug) (keynorm,drugnorm 1.0 nalidixic_acid ('nalidixic acid', 'nalidixic_acid') ('nalidixic_acid', 'nalidixic_acid')"
p1711
tp1712
sS'auranofin'
p1713
NsS'xylazine_phosphate_(1:1)'
p1714
NsS'diacetate__dequalinium'
p1715
NsS'2_deoxy_2_((methylnitrosoamino)carbonyl)amino_d_glucose'
p1716
NsS'fluomycin'
p1717
NsS'hydrogen_embonate__noscapine'
p1718
NsS'hyoscyamine_hydrochloride'
p1719
NsS'colforsin'
p1720
NsS'cisapride'
p1721
NsS'dinoprostone'
p1722
NsS'decaris'
p1723
NsS'prikkelhoest__librochin'
p1724
NsS'acacetin'
p1725
NsS'perhexiline'
p1726
NsS'piromidic_acid'
p1727
NsS'n__o__dibutyryl_camp'
p1728
NsS'arachidonic_acid__zinc_salt__(all_z)_isomer'
p1729
NsS'acid__oxalamic'
p1730
NsS'ajmaline'
p1731
NsS'dimethylfumarate'
p1732
NsS'pomalidomide'
p1733
NsS'myosmine'
p1734
NsS'staurosporine'
p1735
NsS'calcium_folinate'
p1736
NsS'ursobilane'
p1737
NsS'monensin_monosodium_salt'
p1738
NsS'canadine'
p1739
NsS'nitrendipino_ratiopharm'
p1740
NsS'piribedil_mesylate'
p1741
NsS'dicycloverine'
p1742
NsS'roxidura'
p1743
NsS'betamethasone'
p1744
((F1.0
S'betamethasone_dipropionate'
p1745
tp1746
S"Suffix-based-exact-matching ('betamethasone', 'betamethasone_dipropionate') ('betamethasone', 'betamethasone_dipropionate')"
p1747
tp1748
sS'metoxamine_wellcome'
p1749
NsS'amiprilose'
p1750
NsS'erastin'
p1751
NsS'estra_1_3_5(10)_triene_3_16beta_17beta_triol'
p1752
NsS'hexigel'
p1753
NsS'quinacrine_monomesylate'
p1754
NsS'hesperetin'
p1755
NsS'methanesulphonate__betahistine'
p1756
NsS'mesylate__gabexate'
p1757
NsS'naphuride'
p1758
NsS'tyloxapol'
p1759
NsS'sulpiride'
p1760
NsS'mendiaxon'
p1761
NsS'disodium_salt_bucladesine'
p1762
NsS'chloride__dequalinium'
p1763
NsS'neo_thyreostat'
p1764
NsS'thiocolchicoside'
p1765
NsS'bucladesine'
p1766
NsS'thiamine'
p1767
((F1.0
S'thiamine_hydrochloride'
p1768
tp1769
S"Suffix-based-exact-matching ('thiamine', 'thiamine_hydrochloride') ('thiamine', 'thiamine_hydrochloride')"
p1770
tp1771
sS'dl_thiorphan'
p1772
NsS'gliquidone'
p1773
NsS'7_aminocephalosporanic_acid'
p1774
NsS'sulphaguanidine'
p1775
NsS'hydrochloride__mianserin'
p1776
NsS'crotamiton'
p1777
NsS'labosept'
p1778
NsS'chloride__amprolium'
p1779
NsS'spiradoline'
p1780
NsS'acupan'
p1781
NsS'ricinine'
p1782
NsS'lithocholic_acid'
p1783
NsS'tranexamic_acid'
p1784
((F1.0
S'tranexamic_acid'
p1785
tp1786
S"(st) matching: ratio , lcs, (key,drug) (keynorm,drugnorm 1.0 tranexamic_acid ('tranexamic acid', 'tranexamic_acid') ('tranexamic_acid', 'tranexamic_acid')"
p1787
tp1788
sS'ethisterone'
p1789
NsS'chloroquine'
p1790
((F1.0
S'chloroquine_phosphate'
p1791
tp1792
S"(st) matching: ratio , lcs, (key,drug) (keynorm,drugnorm 1.0 chloroquine ('chloroquine', 'chloroquine_phosphate') ('chloroquine', 'chloroquine_phosphate')"
p1793
tp1794
sS'hydroxyachillin'
p1795
NsS'pregneninolone'
p1796
NsS'benperidol'
p1797
NsS'benzbromaron_ratiopharm'
p1798
NsS'syn\xe3\xa9dil'
p1799
NsS'p_286_(contrast_media)'
p1800
NsS'methacholine_chloride'
p1801
NsS'1_2_dihydro_6_ethoxy_2_2_4_trimethylquinoline'
p1802
NsS'maleate__acepromazine'
p1803
NsS'clopenthixol'
p1804
NsS'camptothecin'
p1805
NsS'salt_suramin__monosodium'
p1806
NsS'levopropoxyphene_napsylate_hydrate'
p1807
NsS'tonzonium_bromide'
p1808
NsS'berberine'
p1809
NsS'chlormezanone'
p1810
NsS'prestwick_1103'
p1811
NsS'prestwick_1100'
p1812
NsS'hydrochloride__lymecycline'
p1813
NsS'chinoform'
p1814
NsS'aphrodine_hydrochloride'
p1815
NsS'nitre_puren'
p1816
NsS'biperiden_hydrochloride'
p1817
NsS'phetanol'
p1818
NsS'meprylcaine'
p1819
NsS'lumicolchicine'
p1820
NsS'aminocaproi_acid'
p1821
NsS'apramycin'
p1822
NsS'prostigmine'
p1823
NsS'chrysin'
p1824
NsS'monaspor'
p1825
NsS'acid__canrenoic'
p1826
NsS'ronidazole'
p1827
NsS'antazoline_phosphate'
p1828
NsS'leucaenine'
p1829
NsS'phthalylsulfathiazole'
p1830
NsS'nefopam_hydrochloride'
p1831
NsS'pavabid'
p1832
NsS'dimitronal'
p1833
NsS'todralazine'
p1834
NsS'gossypol_dipotassium_salt'
p1835
NsS'gabexate_monomethanesulfonate__14c_labeled_cpd'
p1836
NsS'sodium_para_aminohippurate'
p1837
NsS'prestwick_972'
p1838
NsS'thiostrepton'
p1839
NsS'ipecine'
p1840
NsS'octopamine'
p1841
NsS'noretynodrel'
p1842
NsS'diloxanide'
p1843
NsS'rovamycine'
p1844
NsS'scotine'
p1845
((F0.8571428571428571
S'nicotine_polacrilex'
p1846
tp1847
S"(st) matching: ratio , lcs, (key,drug) (keynorm,drugnorm 0.857142857143 cotine ('scotine', 'nicotine_polacrilex') ('scotine', 'nicotine_polacrilex')"
p1848
tp1849
sS'drofenine'
p1850
NsS'florfenicol'
p1851
NsS'perhexilene'
p1852
NsS'domperidon_teva'
p1853
NsS'hydrastine_hydrochloride'
p1854
NsS'monomesylate__dihydroergocristine'
p1855
NsS'prospec'
p1856
NsS'abbott48999'
p1857
NsS'clopamide'
p1858
NsS'fali_cor'
p1859
NsS'axonyl'
p1860
NsS'sun_benz'
p1861
NsS'meteneprost'
p1862
NsS'etynodiol'
p1863
NsS'corynanthine_tartrate'
p1864
NsS'nordihydroguaiaretic_acid'
p1865
NsS'pluriviron'
p1866
NsS'anapriline'
p1867
NsS'dogmatil'
p1868
NsS'phenazopyridine'
p1869
((F1.0
S'phenazopyridine_hydrochloride'
p1870
tp1871
S"Suffix-based-exact-matching ('phenazopyridine', 'phenazopyridine_hydrochloride') ('phenazopyridine', 'phenazopyridine_hydrochloride')"
p1872
tp1873
sS'chlormethazanone'
p1874
NsS'para_aminohippurate__sodium'
p1875
NsS'difril'
p1876
NsS'dehydrocholic_acid__sodium_salt'
p1877
NsS'chlorogenic_acid'
p1878
NsS'scopoletin'
p1879
NsS'tolnaftate'
p1880
NsS'flunarizine'
p1881
NsS'urinorm'
p1882
NsS'proglumide'
p1883
NsS'remoxipride_hydrochloride_anhydrous'
p1884
NsS'helfergin'
p1885
NsS'fumarate__xamoterol'
p1886
NsS'natulan'
p1887
((F0.8571428571428571
S'matulane'
p1888
tp1889
S"(st) matching: ratio , lcs, (key,drug) (keynorm,drugnorm 0.857142857143 atulan ('natulan', 'matulane') ('natulan', 'matulane')"
p1890
tp1891
sS'dimethadione'
p1892
NsS'monomethanesulfonate__gabexate'
p1893
NsS'nitren_1a_pharma'
p1894
NsS'fanasil'
p1895
NsS'depudecin'
p1896
NsS'dehydrocholic_acid'
p1897
NsS'laudanosine'
p1898
NsS'josamycin'
p1899
NsS'thenylpyramine'
p1900
NsS'rickamicin'
p1901
NsS'canavanine'
p1902
NsS'ozagrel'
p1903
NsS'ridauran'
p1904
((F0.875
S'ridaura'
p1905
tp1906
S"(st) matching: ratio , lcs, (key,drug) (keynorm,drugnorm 0.875 ridaura ('ridauran', 'ridaura') ('ridauran', 'ridaura')"
p1907
tp1908
sS'hexylcaine'
p1909
NsS'ciba_32.644_ba'
p1910
NsS'azlocillin'
p1911
NsS'bw_b70c'
p1912
NsS'hydrochloride__fendiline'
p1913
NsS'tolfonate'
p1914
NsS'methoxamedrin'
p1915
NsS'acenocoumarol'
p1916
NsS'imidurea'
p1917
NsS'ethaverine'
p1918
NsS'phenazone'
p1919
NsS'ellipticine'
p1920
NsS'6_azathymine'
p1921
NsS'mimosine'
p1922
NsS'adenosine_phosphate'
p1923
NsS'3_3__4__5_7_pentahydroxyflavone'
p1924
NsS'interferon_beta_1b'
p1925
NsS'interferon_beta_1a'
p1926
NsS'atracurium_besilate'
p1927
NsS'heumann__molsidomin'
p1928
NsS'quinacrine__(r)_isomer'
p1929
NsS'chlorphenesin'
p1930
NsS'ursofalk'
p1931
NsS'hedspa'
p1932
((F1.0
S'cintichem_technetium_99m_hedspa'
p1933
tp1934
S"(st) matching: ratio , lcs, (key,drug) (keynorm,drugnorm 1.0 hedspa ('hedspa', 'cintichem_technetium_99m_hedspa') ('hedspa', 'cintichem_technetium_99m_hedspa')"
p1935
tp1936
sS'pipenzolate_bromide'
p1937
NsS'methanthelinium_bromide'
p1938
NsS'phenyl_biguanide'
p1939
NsS'hymecromone'
p1940
NsS'pachycarpine_sulfate_(1:1)__pentahydrate__(7s_(7alpha_7aalpha_14alpha_14abeta))_isomer'
p1941
NsS'cerutil'
p1942
NsS'ronidazol'
p1943
NsS'terfenadin_von_ct'
p1944
NsS'flufenamic_acid'
p1945
NsS'11_decorticosterone'
p1946
NsS'orimeten'
p1947
NsS'moxisylyte'
p1948
NsS'chlorhexidine'
p1949
((F1.0
S'chlorhexidine_gluconate'
p1950
tp1951
S"Suffix-based-exact-matching ('chlorhexidine', 'chlorhexidine_gluconate') ('chlorhexidine', 'chlorhexidine_gluconate')"
p1952
tp1953
sS'aequamen'
p1954
NsS'vasylox'
p1955
NsS'debrisoquine'
p1956
NsS'reducterol'
p1957
NsS'sulfamethazine'
p1958
NsS'streptozocin'
p1959
NsS'l_methionine_sulfoximine'
p1960
NsS'oxantel'
p1961
NsS'fenbendazole'
p1962
NsS'n_acetyl_l_leucine'
p1963
NsS'tiapride_hydrochloride'
p1964
NsS'dexpanthenol'
p1965
NsS'f2alpha__prostaglandin'
p1966
NsS'homosalate'
p1967
NsS'proguanil'
p1968
((F1.0
S'proguanil_hydrochloride'
p1969
tp1970
S"Suffix-based-exact-matching ('proguanil', 'proguanil_hydrochloride') ('proguanil', 'proguanil_hydrochloride')"
p1971
tp1972
sS'partusisten'
p1973
NsS'ethyladrianol'
p1974
NsS'sparteine_hydroiodide__(7r_(7alpha_7aalpha_14alpha_14abeta))_isomer'
p1975
NsS'troglitazone'
p1976
NsS'sulfate_anhydrous__sparteine'
p1977
NsS'tiletamine'
p1978
NsS'bromide__neostigmine'
p1979
NsS'sodium_azlocillin'
p1980
NsS'r_4_amino_3_isoxazolidinone'
p1981
NsS'deoxyursocholic_acid'
p1982
NsS'apomorphine_hydrochloride__anhydrous'
p1983
NsS'colecalciferol'
p1984
NsS'monobenzone'
p1985
NsS'allergan_211'
p1986
NsS'1_5_isoquinolinediol'
p1987
NsS'exidol'
p1988
NsS'daunorubicin'
p1989
((F1.0
S'daunorubicin_hydrochloride'
p1990
tp1991
S"Suffix-based-exact-matching ('daunorubicin', 'daunorubicin_hydrochloride') ('daunorubicin', 'daunorubicin_hydrochloride')"
p1992
tp1993
sS'gelsemine'
p1994
NsS'hydrocotarnine'
p1995
NsS'9alpha_11beta_pgf2'
p1996
NsS'(5beta)_3_7_12_trioxocholan_24_oic_acid'
p1997
NsS'convolamine'
p1998
NsS'ascorbic_acid'
p1999
((F1.0
S'ascorbic_acid'
p2000
tp2001
S"(st) matching: ratio , lcs, (key,drug) (keynorm,drugnorm 1.0 ascorbic_acid ('ascorbic acid', 'ascorbic_acid') ('ascorbic_acid', 'ascorbic_acid')"
p2002
tp2003
sS'seldane'
p2004
NsS'domidon'
p2005
NsS'biopyrin'
p2006
NsS'methacycline'
p2007
NsS'r_atenolol'
p2008
NsS'ergodavur'
p2009
NsS'minisintrom'
p2010
NsS'proscillaridin'
p2011
NsS'physostigmine'
p2012
NsS'vitexin'
p2013
NsS'eldeline'
p2014
NsS'pheniramine'
p2015
((F1.0
S'pheniramine_maleate'
p2016
tp2017
S"Suffix-based-exact-matching ('pheniramine', 'pheniramine_maleate') ('pheniramine', 'pheniramine_maleate')"
p2018
tp2019
sS'dydrogesterone'
p2020
NsS'proxyphylline'
p2021
NsS'halofantrine'
p2022
NsS'prestwick_981'
p2023
NsS'prestwick_983'
p2024
NsS'gallamine_triethochloride'
p2025
NsS'dibromide_dihydrate__hexamethonium'
p2026
NsS'hydrochloride__levamisole'
p2027
NsS'aminocaproic_acid'
p2028
((F1.0
S'aminocaproic_acid'
p2029
tp2030
S"(st) matching: ratio , lcs, (key,drug) (keynorm,drugnorm 1.0 aminocaproic_acid ('aminocaproic acid', 'aminocaproic_acid') ('aminocaproic_acid', 'aminocaproic_acid')"
p2031
tp2032
sS'lympholysin'
p2033
NsS'dexibuprofen'
p2034
NsS'gelseminic_acid'
p2035
NsS'metacycline'
p2036
NsS'ribostamycin'
p2037
NsS'amprolium_chloride'
p2038
NsS'cholofalk'
p2039
NsS'ursolic_acid'
p2040
NsS'ratiopharm__astemizol'
p2041
NsS'rocornal'
p2042
NsS'nifurtimox'
p2043
NsS'solanine'
p2044
NsS'sparteine__(_)_isomer'
p2045
NsS'iobenguane'
p2046
((F1.0
S'iobenguane_sulfate_i'
p2047
tp2048
S"(st) matching: ratio , lcs, (key,drug) (keynorm,drugnorm 1.0 iobenguane ('iobenguane', 'iobenguane_sulfate_i') ('iobenguane', 'iobenguane_sulfate_i')"
p2049
tp2050
sS'pirenzepine_dihydrochloride'
p2051
NsS'astesen'
p2052
NsS'guanabenz'
p2053
((F1.0
S'guanabenz_acetate'
p2054
tp2055
S"Suffix-based-exact-matching ('guanabenz', 'guanabenz_acetate') ('guanabenz', 'guanabenz_acetate')"
p2056
tp2057
sS'binazin'
p2058
NsS'etilefrine_hydrochloride'
p2059
NsS'tomelukast'
p2060
NsS'fendiline'
p2061
NsS'clomifene'
p2062
NsS'levocabastine'
p2063
NsS'nimesulide'
p2064
NsS'ambropp'
p2065
NsS'sisomicin_sulfate'
p2066
NsS'contac_husten_trunk'
p2067
NsS'carbinoxamine'
p2068
((F1.0
S'carbinoxamine_maleate'
p2069
tp2070
S"Suffix-based-exact-matching ('carbinoxamine', 'carbinoxamine_maleate') ('carbinoxamine', 'carbinoxamine_maleate')"
p2071
tp2072
sS'articaine'
p2073
((F1.0
S'articaine_hydrochloride'
p2074
tp2075
S"Suffix-based-exact-matching ('articaine', 'articaine_hydrochloride') ('articaine', 'articaine_hydrochloride')"
p2076
tp2077
sS'(1_hydroxyethylene)diphosphonic_acid__tetrapotassium_salt'
p2078
NsS'pempidine'
p2079
NsS'monohydrochloride__mianserin'
p2080
NsS'romadin'
p2081
NsS'gefitinib'
p2082
NsS'decholin'
p2083
NsS'conjugated_estrogens'
p2084
((F1.0
S'synthetic_conjugated_estrogens_a'
p2085
tp2086
S"(st) matching: ratio , lcs, (key,drug) (keynorm,drugnorm 1.0 conjugated_estrogens ('conjugated_estrogens', 'synthetic_conjugated_estrogens_a') ('conjugated_estrogens', 'synthetic_conjugated_estrogens_a')"
p2087
tp2088
sS'betazole'
p2089
NsS'nitrendipin_von_ct'
p2090
NsS'streptonivicin'
p2091
NsS'lactobionic_acid'
p2092
NsS'sulforthomidine'
p2093
NsS'tridihexethyl'
p2094
NsS'nitrendipin_al'
p2095
NsS'acid__iopanoic'
p2096
NsS'medebiotin'
p2097
NsS'sin_10'
p2098
NsS'amphotericin_b'
p2099
((F1.0
S'amphotericin_b'
p2100
tp2101
S"(st) matching: ratio , lcs, (key,drug) (keynorm,drugnorm 1.0 amphotericin_b ('amphotericin b', 'amphotericin_b') ('amphotericin_b', 'amphotericin_b')"
p2102
tp2103
sS'aceclofenac'
p2104
NsS'triflupromazine'
p2105
NsS'rescinnamine'
p2106
NsS'pararosaniline'
p2107
NsS'furazolidone'
p2108
NsS'meclofenoxate'
p2109
NsS'tensogradal'
p2110
NsS'dl_alpha_tocopherol'
p2111
NsS'doreperol'
p2112
NsS'cinnarizine_l_tartrate_(1:1)'
p2113
NsS'dihydrodiethylstilbestrol'
p2114
NsS'6_furfuryladenine'
p2115
NsS'prestwick_1084'
p2116
NsS'quinacrine_dimesylate'
p2117
NsS'dirithromycin'
p2118
NsS'p_aminohippurate'
p2119
((F0.875
S'aminohippurate_sodium'
p2120
tp2121
S"(st) matching: ratio , lcs, (key,drug) (keynorm,drugnorm 0.875 aminohippurate ('p_aminohippurate', 'aminohippurate_sodium') ('p_aminohippurate', 'aminohippurate_sodium')"
p2122
tp2123
sS'isoflupredone'
p2124
NsS'smokeless'
p2125
NsS'arachidonate__sodium'
p2126
NsS'tropine'
p2127
((F1.0
S'homatropine_methylbromide'
p2128
tp2129
S"(st) matching: ratio , lcs, (key,drug) (keynorm,drugnorm 1.0 tropine ('tropine', 'homatropine_methylbromide') ('tropine', 'homatropine_methylbromide')"
p2130
tp2131
sS'vasomotal'
p2132
NsS'polognost'
p2133
NsS'idoxuridine__131i_labeled'
p2134
NsS'quinpirole_hydrochloride'
p2135
NsS'fluspirilene'
p2136
NsS'asiaticoside'
p2137
NsS'obsidan'
p2138
NsS'quinacrine_dihydrochloride__dihydrate'
p2139
NsS'enoxacin'
p2140
NsS'boldine'
p2141
NsS'xylazine'
p2142
NsS'2_pyrrolidone_n_acetamide'
p2143
NsS'dequalinium_chloride'
p2144
NsS'p\xe3\xa9ridys'
p2145
NsS'pms_benzydamine'
p2146
NsS'hydrochloride__aphrodine'
p2147
NsS'131i_labeled_idoxuridine'
p2148
NsS'gabexate_mesylate'
p2149
NsS'dequadin'
p2150
NsS'hexamethonium_bromide'
p2151
NsS'dipivefrine'
p2152
((F0.9090909090909091
S'dipivefrin_hydrochloride'
p2153
tp2154
S"(st) matching: ratio , lcs, (key,drug) (keynorm,drugnorm 0.909090909091 dipivefrin ('dipivefrine', 'dipivefrin_hydrochloride') ('dipivefrine', 'dipivefrin_hydrochloride')"
p2155
tp2156
sS'hc_toxin'
p2157
NsS'tracazolate'
p2158
NsS'synthetic_estrogens'
p2159
NsS'galantamine'
p2160
((F1.0
S'galantamine_hydrobromide'
p2161
tp2162
S"(st) matching: ratio , lcs, (key,drug) (keynorm,drugnorm 1.0 galantamine ('galantamine', 'galantamine_hydrobromide') ('galantamine', 'galantamine_hydrobromide')"
p2163
tp2164
sS'nifenazone'
p2165
NsS'dichloride__dequalinium'
p2166
NsS'gallamine'
p2167
NsS'idoxuridine'
p2168
NsS'roxi_paed_1a_pharma'
p2169
NsS'benzathine_benzylpenicillin'
p2170
NsS'2_phenyl_1_3_indandione'
p2171
NsS'5_androsten_3_ol_17_one'
p2172
NsS'trichostatin_a'
p2173
NsS'camphor'
p2174
NsS'roxi_q'
p2175
NsS'nintedanib'
p2176
NsS'ambroxin'
p2177
NsS'muco_fips'
p2178
NsS'debrisoquin'
p2179
NsS'p_octopamine'
p2180
NsS'loracarbef'
p2181
NsS'sedoval'
p2182
NsS'tetrapotassium_salt_etidronate'
p2183
NsS'tiaprofenic_acid'
p2184
NsS'benzylpenicillin'
p2185
NsS'pirenzepin_von_ct'
p2186
NsS'chenodeoxycholic_acid'
p2187
NsS'sissomicin'
p2188
NsS'dihydrostreptomycin'
p2189
NsS'tisercin'
p2190
NsS'alprenolol'
p2191
NsS'clidinium_bromide'
p2192
((F1.0
S'clidinium_bromide'
p2193
tp2194
S"(st) matching: ratio , lcs, (key,drug) (keynorm,drugnorm 1.0 clidinium_bromide ('clidinium bromide', 'clidinium_bromide') ('clidinium_bromide', 'clidinium_bromide')"
p2195
tp2196
sS'benzydamine_hydrochloride'
p2197
NsS'prolamine'
p2198
NsS'nadide'
p2199
NsS'cefsulodin_monosodium_salt'
p2200
NsS'rexigen'
p2201
NsS'vertigo_meresa'
p2202
NsS'alsterpaullone'
p2203
NsS'buflomedil'
p2204
NsS'vinburnine'
p2205
NsS'mephenytoin'
p2206
NsS'(s)_3_bromo_n_((1_ethyl_2_pyrrolidinyl)methyl)_2_6_dimethoxybenzamide'
p2207
NsS'entero_septol'
p2208
NsS'piribedil_mono_hydrochloride'
p2209
NsS'nitrendipin_ratiopharm'
p2210
NsS'n(6)_0(2_)_dibutyryl_cyclic_amp'
p2211
NsS'15_delta_prostaglandin_j2'
p2212
NsS'hydrobromide__benzocaine'
p2213
NsS'decamethonium_bromide'
p2214
NsS'collu_hextril'
p2215
NsS'skf_525_a'
p2216
NsS'cromoglicic_acid'
p2217
NsS'bioflutin'
p2218
NsS'imatinib'
p2219
((F1.0
S'imatinib_mesylate'
p2220
tp2221
S"Suffix-based-exact-matching ('imatinib', 'imatinib_mesylate') ('imatinib', 'imatinib_mesylate')"
p2222
tp2223
sS'methylsulfadiazine'
p2224
NsS'cotinine'
p2225
NsS'cephaeline'
p2226
NsS'hoe_893d'
p2227
NsS'khellin'
p2228
NsS'tyrphostin_ag_825'
p2229
NsS'cardiomax'
p2230
NsS'pirinixic_acid'
p2231
NsS'pharmaxolon'
p2232
NsS'lysergol'
p2233
NsS'meclozine'
p2234
NsS'pyrvinium'
p2235
NsS'redeptin'
p2236
NsS'tandutinib'
p2237
NsS'compound_83405'
p2238
NsS'arecholin'
p2239
NsS'k_strophanthidin'
p2240
NsS'bisolvon_am'
p2241
NsS'1_(5_isoquinolinesulfonyl)_2_methylpiperazine'
p2242
NsS'dipyrone'
p2243
NsS'proadifen'
p2244
NsS'ebromin'
p2245
NsS'gliclazide'
p2246
NsS'oraldine'
p2247
NsS'piracetrop'
p2248
NsS'pancuronium_bromide'
p2249
((F1.0
S'pancuronium_bromide'
p2250
tp2251
S"(st) matching: ratio , lcs, (key,drug) (keynorm,drugnorm 1.0 pancuronium_bromide ('pancuronium bromide', 'pancuronium_bromide') ('pancuronium_bromide', 'pancuronium_bromide')"
p2252
tp2253
sS'dehydrocholate'
p2254
NsS'cyclobenzaprine'
p2255
((F1.0
S'cyclobenzaprine_hydrochloride'
p2256
tp2257
S"Suffix-based-exact-matching ('cyclobenzaprine', 'cyclobenzaprine_hydrochloride') ('cyclobenzaprine', 'cyclobenzaprine_hydrochloride')"
p2258
tp2259
sS'niridazole'
p2260
NsS'droxaryl'
p2261
NsS'solaskil'
p2262
NsS'16beta_hydroxy_estradiol'
p2263
NsS'americaine'
p2264
NsS'steri_sol'
p2265
NsS'xamoterol'
p2266
NsS'bufederm'
p2267
NsS'hismanal'
p2268
NsS'rifaximin'
p2269
NsS'nicoumalone'
p2270
NsS'tetracycline_l_methylene_lysine'
p2271
NsS'beta_escin'
p2272
NsS'prostaglandin_f2'
p2273
NsS'terfenadine'
p2274
NsS'sequinavir'
p2275
NsS'tetramisole'
p2276
NsS'alverine'
p2277
NsS'ony_clear'
p2278
NsS'hydrochloride__etilefrine'
p2279
NsS'cinchonidine'
p2280
NsS'harpagoside'
p2281
NsS'propoxycaine_hydrochloride'
p2282
NsS'prestwick_984'
p2283
NsS'fenazoxine'
p2284
NsS'eralzdin_practolol'
p2285
NsS'hydrochloride__piribedil'
p2286
NsS'hexamethonium_monotartrate'
p2287
NsS'6_benzylaminopurine'
p2288
NsS'p\xc3\xa9ridys'
p2289
NsS'parthenolide'
p2290
NsS'ursodeoxycholate__sodium'
p2291
NsS'picrotoxinin'
p2292
NsS'amrinone'
p2293
((F1.0
S'amrinone_lactate'
p2294
tp2295
S"Suffix-based-exact-matching ('amrinone', 'amrinone_lactate') ('amrinone', 'amrinone_lactate')"
p2296
tp2297
sS'methyleneoxytetracycline'
p2298
NsS'anesthesin'
p2299
NsS'17_hydroxy_3_oxo_17alpha_pregna_4_6_diene_21_carboxylic_acid'
p2300
NsS'biperiden__1s_(1_alpha_2_alpha(r*)_4_alpha)_isomer'
p2301
NsS'ambro_puren'
p2302
NsS'vitamin_h'
p2303
((F0.8888888888888888
S'vitamin_k1'
p2304
tp2305
S"(st) matching: ratio , lcs, (key,drug) (keynorm,drugnorm 0.888888888889 vitamin_ ('vitamin_h', 'vitamin_k1') ('vitamin_h', 'vitamin_k1')"
p2306
tp2307
sS'suloctidil'
p2308
NsS'apo_domperidone'
p2309
NsS'ethinylestrenol'
p2310
NsS'vitamin_f'
p2311
((F0.8888888888888888
S'vitamin_k1'
p2312
tp2313
S"(st) matching: ratio , lcs, (key,drug) (keynorm,drugnorm 0.888888888889 vitamin_ ('vitamin_f', 'vitamin_k1') ('vitamin_f', 'vitamin_k1')"
p2314
tp2315
sS'amylocaine'
p2316
NsS'rompun'
p2317
NsS'trimetazidine'
p2318
NsS'stanilo'
p2319
NsS'laxatone'
p2320
NsS'calycanthine'
p2321
NsS'nomifensine'
p2322
NsS'valproic_acid'
p2323
((F1.0
S'valproic_acid'
p2324
tp2325
S"(st) matching: ratio , lcs, (key,drug) (keynorm,drugnorm 1.0 valproic_acid ('valproic acid', 'valproic_acid') ('valproic_acid', 'valproic_acid')"
p2326
tp2327
sS'levothyroxine_sodium'
p2328
((F1.0
S'levothyroxine_sodium'
p2329
tp2330
S"Suffix-based-exact-matching ('levothyroxine sodium', 'levothyroxine_sodium') ('levothyroxine_sodium', 'levothyroxine_sodium')"
p2331
tp2332
sS'tetracyclinemethylene_lysine'
p2333
NsS'apomorphin_teclapharm'
p2334
NsS'8_azaguanine'
p2335
NsS'demecarium_bromide'
p2336
NsS'16_16_dimethylprostaglandin_e2'
p2337
NsS'cholan_hmb'
p2338
NsS'cobicistat'
p2339
NsS'foliosidine'
p2340
NsS'3_caffeoylquinic_acid'
p2341
NsS'hexestrol__(r*_s*)_isomer'
p2342
NsS'riboflavin'
p2343
NsS'camphor__(1r)_isomer'
p2344
NsS'sesquihydrate__enoxacin'
p2345
NsS'estriol'
p2346
Ns.