(dp0
S'nitrazepam'
p1
NsS'bezafisal'
p2
NsS'acid__pyrogallic'
p3
NsS'beta_estradiol'
p4
NsS'terfenadin_ratiopharm'
p5
NsS'bromobenzene'
p6
NsS'b_cell_stimulatory_factor_2'
p7
NsS'terazosin'
p8
((F1.0
S'terazosin_hydrochloride'
p9
tp10
S"Suffix-based-exact-matching ('terazosin', 'terazosin_hydrochloride') ('terazosin', 'terazosin_hydrochloride')"
p11
tp12
sS'benzothiazyl_disulfide'
p13
NsS'cerivastatin'
p14
NsS'20_methylcholanthrene'
p15
NsS'cinnarizin_al'
p16
NsS'valdecoxib'
p17
NsS'terfedura'
p18
NsS'phenothiazine'
p19
NsS'phalloidin'
p20
NsS'benzyl_acetate'
p21
NsS'paraquat_dichloride'
p22
NsS'ethylene_aldehyde'
p23
NsS'nitrendipin_atid'
p24
NsS'cinnarizine__(e)_isomer'
p25
NsS'moclobemid_1a_pharma'
p26
NsS'pantoprazole'
p27
((F1.0
S'pantoprazole_sodium'
p28
tp29
S"Suffix-based-exact-matching ('pantoprazole', 'pantoprazole_sodium') ('pantoprazole', 'pantoprazole_sodium')"
p30
tp31
sS'tocainide'
p32
NsS'dichlorvos'
p33
NsS'ipriflavone'
p34
NsS'lacidipine'
p35
NsS'cortisone'
p36
((F1.0
S'cortisone_acetate'
p37
tp38
S"Suffix-based-exact-matching ('cortisone', 'cortisone_acetate') ('cortisone', 'cortisone_acetate')"
p39
tp40
sS'moclonorm'
p41
NsS'chain__insulin_b'
p42
NsS'genrx_moclobemide'
p43
NsS'novotox'
p44
NsS'fanasil'
p45
NsS'cholecalciferol'
p46
NsS'auranofin'
p47
NsS'dimethylsulfonate'
p48
NsS'sparteine_monohydroiodide__(7r_(7alpha_7aalpha_14alpha_14abeta))_isomer'
p49
NsS'nn_dimethylformamide'
p50
NsS'deprenorm'
p51
NsS'isolithocholic_acid'
p52
NsS'terry_white_chemists_moclobemide'
p53
NsS'nn__diphenyl_p_phenylenediamine'
p54
NsS'2_deoxy_2_((methylnitrosoamino)carbonyl)amino_d_glucose'
p55
NsS'hydrochloride__flunarizine'
p56
NsS'moclobemid_ratiopharm'
p57
NsS'ethylestrenol'
p58
NsS's(_)_carbidopa'
p59
NsS'hydrogen_embonate__noscapine'
p60
NsS'aurolate'
p61
NsS'fluoren_2_ylacetamide'
p62
NsS'differentiation_inducing_protein__myeloid'
p63
NsS'targocid'
p64
NsS'nicotinamide'
p65
NsS'moclobemide'
p66
NsS'sparteine__(7s_(7alpha_7aalpha_14alpha_14abeta))_isomer'
p67
NsS'tocainide_monohydrobromide__(r)_isomer'
p68
NsS'bc__bromhexin'
p69
NsS'cisapride'
p70
NsS'mesylate__betahistine'
p71
NsS'decaris'
p72
NsS'd_limonene'
p73
NsS'sodium_orthovanadate'
p74
NsS'6_azauridine'
p75
NsS'prikkelhoest__librochin'
p76
NsS'thimerosal'
p77
NsS'diphenidol'
p78
NsS'crystal_violet'
p79
NsS'alpha_naphthoflavone'
p80
NsS'azasetron'
p81
NsS'24_diaminophenol'
p82
NsS'urethan'
p83
NsS'novo_gliclazide'
p84
NsS'lomustine'
p85
NsS'ferulic_acid'
p86
NsS'zomepirac'
p87
NsS'16_alpha_hydroxy_estradiol'
p88
NsS'staurosporine'
p89
NsS'enzactin'
p90
NsS'b3__vitamin'
p91
NsS'monogold_(1+)_disodium_thiomalate'
p92
NsS'methyl_violet'
p93
NsS'selenite__monosodium'
p94
NsS'hydroxymetholone'
p95
NsS'deposul'
p96
NsS'camptothecine'
p97
NsS'levosulpiride'
p98
NsS'antiphlogistine_rub_a_535_capsaicin'
p99
NsS'quinapril'
p100
((F1.0
S'quinapril_hydrochloride'
p101
tp102
S"Suffix-based-exact-matching ('quinapril', 'quinapril_hydrochloride') ('quinapril', 'quinapril_hydrochloride')"
p103
tp104
sS'vastensium'
p105
NsS'diaglyk'
p106
NsS'33_4_5_tetrachlorosalicylanilide'
p107
NsS'befibrat'
p108
NsS'cinnarizin_siegfried'
p109
NsS'sulconazole'
p110
NsS'betamethasone'
p111
((F1.0
S'betamethasone_dipropionate'
p112
tp113
S"Suffix-based-exact-matching ('betamethasone', 'betamethasone_dipropionate') ('betamethasone', 'betamethasone_dipropionate')"
p114
tp115
sS'ethinylestradiol'
p116
NsS'tauredon'
p117
NsS'beta_naphthoflavone'
p118
NsS'ortho_hydroxybenzoic_acid'
p119
NsS'cyproheptadine'
p120
((F1.0
S'cyproheptadine_hydrochloride'
p121
tp122
S"Suffix-based-exact-matching ('cyproheptadine', 'cyproheptadine_hydrochloride') ('cyproheptadine', 'cyproheptadine_hydrochloride')"
p123
tp124
sS'idarubicin'
p125
((F1.0
S'idarubicin_hydrochloride'
p126
tp127
S"Suffix-based-exact-matching ('idarubicin', 'idarubicin_hydrochloride') ('idarubicin', 'idarubicin_hydrochloride')"
p128
tp129
sS'moclobemid_puren'
p130
NsS'insulin'
p131
NsS'methanesulphonate__betahistine'
p132
NsS'cetraxate'
p133
NsS'phenacemide'
p134
NsS'sisomicin'
p135
NsS'2_fluorenylacetamide'
p136
NsS'bisphenol_a'
p137
NsS'sporidesmin_a'
p138
NsS'myrtecaine'
p139
NsS'sulpiride'
p140
NsS'aurothiomalate'
p141
NsS'perhexilene'
p142
NsS'streptozotocin'
p143
NsS'methanesulfonate__benzocaine'
p144
NsS'neo_thyreostat'
p145
NsS'nafenopin'
p146
NsS'neo_tomizol'
p147
NsS'vitamin_b3'
p148
NsS'xilamide'
p149
NsS'hydrochloride__mianserin'
p150
NsS'glyade'
p151
NsS'tgf_beta_1_human_recombinant'
p152
NsS'crotamiton'
p153
NsS'sulpyrin'
p154
NsS'choline_chloride'
p155
NsS'lead_(ii)_acetate'
p156
NsS'propylene_glycol_sodium_salt'
p157
NsS'coumarin'
p158
NsS'capsaicine'
p159
NsS'tocainide__(s)_isomer'
p160
NsS'lithocholic_acid'
p161
NsS'capsidol'
p162
NsS'anadrol'
p163
((F1.0
S'anadrol_50'
p164
tp165
S"(st) matching: ratio , lcs, (key,drug) (keynorm,drugnorm 1.0 anadrol ('anadrol', 'anadrol_50') ('anadrol', 'anadrol_50')"
p166
tp167
sS'cachectin_tumor_necrosis_factor'
p168
NsS'phenylbarbital'
p169
NsS'nitrepuren'
p170
NsS'ethisterone'
p171
NsS'chloroquine'
p172
((F1.0
S'chloroquine_phosphate'
p173
tp174
S"(st) matching: ratio , lcs, (key,drug) (keynorm,drugnorm 1.0 chloroquine ('chloroquine', 'chloroquine_phosphate') ('chloroquine', 'chloroquine_phosphate')"
p175
tp176
sS'chlorpromazine'
p177
((F1.0
S'chlorpromazine_hydrochloride'
p178
tp179
S"Suffix-based-exact-matching ('chlorpromazine', 'chlorpromazine_hydrochloride') ('chlorpromazine', 'chlorpromazine_hydrochloride')"
p180
tp181
sS'pregneninolone'
p182
NsS'salicylic_acid'
p183
NsS'lullamin'
p184
NsS'cadmium_chloride'
p185
NsS'penciclovir'
p186
NsS'syn\xe3\xa9dil'
p187
NsS'2_nitroanisole'
p188
NsS'insulin__regular'
p189
NsS'catechol'
p190
NsS'interferon_beta_2'
p191
NsS'piracebral'
p192
NsS'cadmium_dichloride'
p193
NsS'cisaken'
p194
NsS'noscapine_hydrochloride'
p195
NsS'valeric_acid'
p196
NsS'ampiroxicam'
p197
NsS'cuxabrain'
p198
NsS'3_methylcholanthrene'
p199
NsS'dihydrobromide__betahistine'
p200
NsS'estra_1_3_5(10)_triene_3_16beta_17beta_triol'
p201
NsS'nitrensal'
p202
NsS'vertigo_neogama'
p203
NsS'regular_insulin'
p204
NsS'capsaicin'
p205
NsS'camptothecin'
p206
NsS'noscapine'
p207
NsS'chlormadinone_acetate'
p208
NsS'aldosterone__(11_beta_17_alpha)_isomer'
p209
NsS'mosapride'
p210
NsS'8_methyl_n_vanillyl_6_nonenamide'
p211
NsS'quetiapine'
p212
((F1.0
S'quetiapine_fumarate'
p213
tp214
S"Suffix-based-exact-matching ('quetiapine', 'quetiapine_fumarate') ('quetiapine', 'quetiapine_fumarate')"
p215
tp216
sS'atorvastatin'
p217
((F1.0
S'atorvastatin_calcium'
p218
tp219
S"Suffix-based-exact-matching ('atorvastatin', 'atorvastatin_calcium') ('atorvastatin', 'atorvastatin_calcium')"
p220
tp221
sS'ubenimex'
p222
NsS'16alpha_17beta_estriol'
p223
NsS'3_aminopropylene'
p224
NsS'geraniol'
p225
NsS'n1_(2__tetrahydrofuryl)_5_fluorouracil'
p226
NsS'warfarin'
p227
((F1.0
S'warfarin_sodium'
p228
tp229
S"Suffix-based-exact-matching ('warfarin', 'warfarin_sodium') ('warfarin', 'warfarin_sodium')"
p230
tp231
sS'1_2_3_trihydroxybenzene'
p232
NsS'nitre_puren'
p233
NsS'mesylate__methyl'
p234
NsS'trichloroacetate__rubidium'
p235
NsS'aflatoxin_b1__(6ar_cis)_isomer__3h_labeled'
p236
NsS'iproniazid'
p237
NsS'eglonyl'
p238
NsS'prostigmine'
p239
NsS'bromyl'
p240
NsS'fluvastatin'
p241
((F1.0
S'fluvastatin_sodium'
p242
tp243
S"Suffix-based-exact-matching ('fluvastatin', 'fluvastatin_sodium') ('fluvastatin', 'fluvastatin_sodium')"
p244
tp245
sS'bis(2_ethylhexyl)phthalate'
p246
NsS'nitrobenzene'
p247
NsS'p_aminosalicylic_acid__calcium_(2:1)_salt'
p248
NsS'betahistine_methanesulfonate'
p249
NsS'marimastat'
p250
NsS'123_trichloropropane'
p251
NsS'sparteine_sulfate_(1:1)__(7s_(7alpha_7aalpha_14alpha_14abeta))_isomer'
p252
NsS'dihydrochloride__emetine'
p253
NsS'tetrachloride__carbon'
p254
NsS'carbon_tetrachloride'
p255
NsS'gardenal'
p256
NsS'tosufloxacin'
p257
NsS'sibelium'
p258
NsS'khinozol'
p259
NsS'altretamine'
p260
NsS'bromodichloromethane'
p261
NsS'p_aminosalicylic_acid_monolithium_salt'
p262
NsS'pavabid'
p263
NsS'dimitronal'
p264
NsS'triacetin'
p265
NsS'jutapress'
p266
NsS'mercuric_perchloride'
p267
NsS'mucohexine'
p268
NsS'sodium_azlocillin'
p269
NsS'enoxin'
p270
NsS'pyracetam'
p271
NsS'tiapride'
p272
NsS'temafloxacin'
p273
NsS'methyl_methanesulfonate'
p274
NsS'neogama'
p275
NsS'gabacet'
p276
NsS'mianserin'
p277
NsS'l_buthionine_sulfoximine'
p278
NsS'hexinawas'
p279
NsS'alcohol__ethyl'
p280
NsS'piracetrop'
p281
NsS'levamisole'
p282
NsS'restryl'
p283
NsS'4_chloroaniline'
p284
NsS'abamectin'
p285
NsS'ipecine'
p286
NsS'chlorpyrifos'
p287
NsS'sodium_selenate'
p288
NsS'chloride__mercuric'
p289
NsS'(+)_pulegone'
p290
NsS'tocainide_monohydrochloride__(s)_isomer'
p291
NsS'5_6_benzoflavone'
p292
NsS'nitrazepam_neuraxpharm'
p293
NsS'acid__isolithocholic'
p294
NsS'bezafibrate'
p295
NsS'cholic_acid'
p296
NsS'roxarsone'
p297
NsS'allyl_aldehyde'
p298
NsS'clofibric_acid'
p299
NsS'dexfenfluramine_hydrochloride'
p300
NsS'doxifluridine'
p301
NsS'ethylene_glycol'
p302
((F1.0
S'polyethylene_glycol'
p303
tp304
S"(st) matching: ratio , lcs, (key,drug) (keynorm,drugnorm 1.0 ethylene_glycol ('ethylene_glycol', 'polyethylene_glycol') ('ethylene_glycol', 'polyethylene_glycol')"
p305
tp306
sS'4_nitrotoluene'
p307
NsS'acetone'
p308
((F0.8571428571428571
S'nystatin_and_triamcinolone_acetonide'
p309
tp310
S"(st) matching: ratio , lcs, (key,drug) (keynorm,drugnorm 0.857142857143 aceton ('acetone', 'nystatin_and_triamcinolone_acetonide') ('acetone', 'nystatin_and_triamcinolone_acetonide')"
p311
tp312
sS'axonyl'
p313
NsS'hydrochloride__papaverine'
p314
NsS'44__methylenedianiline'
p315
NsS'microcystin_lr'
p316
NsS'diethanolamine'
p317
NsS'benzocaine_acetate'
p318
NsS'selenite_pentahydrate__sodium'
p319
NsS'flubendazole'
p320
NsS'dursban'
p321
NsS'dogmatil'
p322
NsS'iodide__gallamine_triethyl'
p323
NsS'piracetam_rph'
p324
NsS'trichloracetique__acide'
p325
NsS'procarbazine'
p326
NsS'4_chloro_2_nitroaniline'
p327
NsS'acocantherin'
p328
NsS'tumor_necrosis_factor_alpha'
p329
NsS'von_ct__bromhexin'
p330
NsS'ebastine'
p331
NsS'allyl_alcohol'
p332
NsS'8_oxyquinoline'
p333
NsS'flunarizine'
p334
NsS'diamicron'
p335
NsS'acetylaminofluorene'
p336
NsS'proglumide'
p337
NsS'methyl_salicylate'
p338
NsS'galantamine'
p339
((F1.0
S'galantamine_hydrobromide'
p340
tp341
S"(st) matching: ratio , lcs, (key,drug) (keynorm,drugnorm 1.0 galantamine ('galantamine', 'galantamine_hydrobromide') ('galantamine', 'galantamine_hydrobromide')"
p342
tp343
sS'1_(2_tetrahydrofuryl)_5_fluorouracil'
p344
NsS'novo_moclobemide'
p345
NsS'digitoxin'
p346
NsS'aurorex'
p347
NsS'algopyrin'
p348
NsS'isoprenaline'
p349
NsS'natulan'
p350
((F0.8571428571428571
S'matulane'
p351
tp352
S"(st) matching: ratio , lcs, (key,drug) (keynorm,drugnorm 0.857142857143 atulan ('natulan', 'matulane') ('natulan', 'matulane')"
p353
tp354
sS'sulphorthodimethoxine'
p355
NsS'sparfloxacin'
p356
NsS'nitren_1a_pharma'
p357
NsS'bithionol'
p358
NsS'azaribine'
p359
NsS'aldehyde__allyl'
p360
NsS'terfenadin_al'
p361
NsS'oxymetholone__(17_beta)_isomer'
p362
NsS'esmolol'
p363
((F1.0
S'esmolol_hydrochloride'
p364
tp365
S"Suffix-based-exact-matching ('esmolol', 'esmolol_hydrochloride') ('esmolol', 'esmolol_hydrochloride')"
p366
tp367
sS'nitren_acis'
p368
NsS'3_acetamidophenol'
p369
NsS'aflatoxin_b1__(6ar_cis)_isomer__14c_labeled'
p370
NsS'candesartan'
p371
((F1.0
S'candesartan_cilexetil'
p372
tp373
S"(st) matching: ratio , lcs, (key,drug) (keynorm,drugnorm 1.0 candesartan ('candesartan', 'candesartan_cilexetil') ('candesartan', 'candesartan_cilexetil')"
p374
tp375
sS'rifapentine'
p376
NsS'sulpor'
p377
NsS'terbinafine'
p378
((F1.0
S'terbinafine_hydrochloride'
p379
tp380
S"Suffix-based-exact-matching ('terbinafine', 'terbinafine_hydrochloride') ('terbinafine', 'terbinafine_hydrochloride')"
p381
tp382
sS'tumor_necrosis_factor_ligand_superfamily_member_2'
p383
NsS'bromhexine'
p384
NsS'extovyl'
p385
NsS'thenylpyramine'
p386
NsS'rickamicin'
p387
NsS'dipyrone'
p388
NsS'ketorolac'
p389
((F1.0
S'ketorolac_tromethamine'
p390
tp391
S"(st) matching: ratio , lcs, (key,drug) (keynorm,drugnorm 1.0 ketorolac ('ketorolac', 'ketorolac_tromethamine') ('ketorolac', 'ketorolac_tromethamine')"
p392
tp393
sS'nitrendipin_heumann'
p394
NsS'dimethylnitrosamine'
p395
NsS'selacryn'
p396
NsS'sulformethoxine'
p397
NsS'racemic_adrenaline'
p398
NsS'selenous_acid_disodium_salt'
p399
NsS'ridauran'
p400
((F0.875
S'ridaura'
p401
tp402
S"(st) matching: ratio , lcs, (key,drug) (keynorm,drugnorm 0.875 ridaura ('ridauran', 'ridaura') ('ridauran', 'ridaura')"
p403
tp404
sS'd_galactosamine'
p405
NsS'nimetazepam'
p406
NsS'benzocaine_methanesulfonate'
p407
NsS'tumor_necrosis_factor'
p408
NsS'carbimazole'
p409
NsS'pyridine'
p410
((F1.0
S'phenazopyridine_hydrochloride'
p411
tp412
S"(st) matching: ratio , lcs, (key,drug) (keynorm,drugnorm 1.0 pyridine ('pyridine', 'phenazopyridine_hydrochloride') ('pyridine', 'phenazopyridine_hydrochloride')"
p413
tp414
sS'propan_1_2_diol'
p415
NsS'ethyl_alcohol'
p416
NsS'azlocillin'
p417
NsS'gallamine'
p418
NsS'dormo_puren'
p419
NsS'sklerofibrat'
p420
NsS'dur_elix'
p421
NsS'monocrotaline_hydrochloride_(13alpha_14alpha)_isomer'
p422
NsS'3_pyridinecarboxamide'
p423
NsS'ifn_beta_2'
p424
NsS'hydrochloride__procarbazine'
p425
NsS'glycidol'
p426
NsS'imadorm'
p427
NsS'cinarizine'
p428
NsS'propranolol'
p429
((F1.0
S'propranolol_hydrochloride'
p430
tp431
S"Suffix-based-exact-matching ('propranolol', 'propranolol_hydrochloride') ('propranolol', 'propranolol_hydrochloride')"
p432
tp433
sS'tiapride_monohydrochloride'
p434
NsS'flubron'
p435
NsS'rabeprazole'
p436
((F1.0
S'rabeprazole_sodium'
p437
tp438
S"Suffix-based-exact-matching ('rabeprazole', 'rabeprazole_sodium') ('rabeprazole', 'rabeprazole_sodium')"
p439
tp440
sS'colistin'
p441
((F0.875
S'colistimethate_sodium'
p442
tp443
S"(st) matching: ratio , lcs, (key,drug) (keynorm,drugnorm 0.875 colisti ('colistin', 'colistimethate_sodium') ('colistin', 'colistimethate_sodium')"
p444
tp445
sS'5_fluoro_2__deoxyuridine'
p446
NsS'chloride__hexamethylpararosaniline'
p447
NsS'phenazone'
p448
NsS'bromfenac'
p449
((F1.0
S'bromfenac_sodium'
p450
tp451
S"Suffix-based-exact-matching ('bromfenac', 'bromfenac_sodium') ('bromfenac', 'bromfenac_sodium')"
p452
tp453
sS'vinorelbine'
p454
((F1.0
S'vinorelbine_tartrate'
p455
tp456
S"(st) matching: ratio , lcs, (key,drug) (keynorm,drugnorm 1.0 vinorelbine ('vinorelbine', 'vinorelbine_tartrate') ('vinorelbine', 'vinorelbine_tartrate')"
p457
tp458
sS'pyrogallol'
p459
NsS'niprina'
p460
NsS'betahistine_dihydrobromide'
p461
NsS'(alpha_bromoisovaleryl)urea'
p462
NsS'etidronate'
p463
((F1.0
S'etidronate_disodium'
p464
tp465
S"Suffix-based-exact-matching ('etidronate', 'etidronate_disodium') ('etidronate', 'etidronate_disodium')"
p466
tp467
sS'psicocen'
p468
NsS'triethyl_iodide__gallamine'
p469
NsS'vigencial'
p470
NsS'oxiconazole'
p471
((F1.0
S'oxiconazole_nitrate'
p472
tp473
S"Suffix-based-exact-matching ('oxiconazole', 'oxiconazole_nitrate') ('oxiconazole', 'oxiconazole_nitrate')"
p474
tp475
sS'uftoral'
p476
NsS'ethyloestrenol'
p477
NsS'antimycin_a1'
p478
NsS'4_aminosalicylic_acid'
p479
NsS'cyproterone_acetate'
p480
NsS'tnf_alpha'
p481
NsS'perhexiline'
p482
NsS'nitrazepam_al'
p483
NsS'terfenadin_von_ct'
p484
NsS'orimeten'
p485
NsS'bezamerck'
p486
NsS'amineptine'
p487
NsS'aequamen'
p488
NsS'gen_gliclazide'
p489
NsS'sparteine_sulfate'
p490
NsS'reducterol'
p491
NsS'roxi_1a_pharma'
p492
NsS'phenobarbital'
p493
NsS'extramycin'
p494
NsS'streptozocin'
p495
NsS'nafenoic_acid'
p496
NsS'racepinephrine_hydrochloride'
p497
NsS'sulfadoxine'
p498
NsS'dexfenfluramine'
p499
NsS'fenbendazole'
p500
NsS'apo_moclobemide'
p501
NsS'tiapride_hydrochloride'
p502
NsS'(r)_bicalutamide'
p503
NsS'thiomalatoaurate__sodium'
p504
NsS'angiotensin_ii_human'
p505
NsS'tranilast'
p506
NsS'monocrotaline'
p507
NsS'bromhexin_berlin_chemie'
p508
NsS'amitraz'
p509
NsS'thiacetamid'
p510
NsS'niacinamide'
p511
NsS'acetophenetidin'
p512
NsS'cicloheximide'
p513
NsS'cinnarizin_ratiopharm'
p514
NsS'methylcholanthrene'
p515
NsS'sparteine_hydroiodide__(7r_(7alpha_7aalpha_14alpha_14abeta))_isomer'
p516
NsS'troglitazone'
p517
NsS'rhoxal_nitrazepam'
p518
NsS'shikimols'
p519
NsS'cycloheximide'
p520
NsS'syn\xc3\xa9dil'
p521
NsS'sulfate_anhydrous__sparteine'
p522
NsS'bromide__neostigmine'
p523
NsS'bromoisovalerylurea'
p524
NsS'cyclosporin_a'
p525
NsS'streptomycin'
p526
((F1.0
S'streptomycin_sulfate'
p527
tp528
S"Suffix-based-exact-matching ('streptomycin', 'streptomycin_sulfate') ('streptomycin', 'streptomycin_sulfate')"
p529
tp530
sS'siseptin'
p531
NsS'3nitro10'
p532
NsS'thalidomide'
p533
NsS'novalgin'
p534
NsS'azu__moclobemid'
p535
NsS'alpha_isosparteine'
p536
NsS'sodium_aurothiomalate'
p537
NsS'propylene_glycol'
p538
NsS'aflatoxin_b1'
p539
NsS'5_fluoro_1_(tetrahydro_2_furanyl)_2_4_pyrimidinedione'
p540
NsS'acetylbenzoyl_aconine'
p541
NsS'moclobemide__genrx'
p542
NsS'dextrosulfenidol'
p543
NsS'b_cell_differentiation_factor_2'
p544
NsS'interleukin_6'
p545
NsS'daunorubicin'
p546
((F1.0
S'daunorubicin_hydrochloride'
p547
tp548
S"Suffix-based-exact-matching ('daunorubicin', 'daunorubicin_hydrochloride') ('daunorubicin', 'daunorubicin_hydrochloride')"
p549
tp550
sS'nitrendipincorax'
p551
NsS'roxibeta'
p552
NsS'sparteine'
p553
NsS'para_aminosalicylic_acid'
p554
NsS'capzasin'
p555
NsS'piclamilast'
p556
NsS'acemetacin'
p557
NsS'trielina'
p558
NsS'seldane'
p559
NsS'genisteine_alkaloid'
p560
NsS'bromhexin_von_ct'
p561
NsS'biopyrin'
p562
NsS'dichlofos'
p563
NsS'nitrendidoc'
p564
NsS'ribrain'
p565
NsS'genistein'
p566
NsS'glycol__propylene'
p567
NsS'thiamcol'
p568
NsS'artemether'
p569
NsS'isoeugenol'
p570
NsS'prozerin'
p571
NsS'methapyrilene'
p572
NsS'trovafloxacin'
p573
NsS'thioacetamide'
p574
NsS'clopidogrel'
p575
((F1.0
S'clopidogrel_bisulfate'
p576
tp577
S"(st) matching: ratio , lcs, (key,drug) (keynorm,drugnorm 1.0 clopidogrel ('clopidogrel', 'clopidogrel_bisulfate') ('clopidogrel', 'clopidogrel_bisulfate')"
p578
tp579
sS'b_cell_differentiation_factor'
p580
NsS'beza_puren'
p581
NsS'phenemal'
p582
NsS'myocrisin'
p583
NsS'benazepril'
p584
((F1.0
S'benazepril_hydrochloride'
p585
tp586
S"Suffix-based-exact-matching ('benazepril', 'benazepril_hydrochloride') ('benazepril', 'benazepril_hydrochloride')"
p587
tp588
sS'eucalyptol'
p589
NsS'oxymetazoline'
p590
NsS'acid__2_hydroxybenzoic'
p591
NsS'd_tubocurarine_chloride'
p592
((F0.9130434782608695
S'tubocurarine_chloride'
p593
tp594
S"(st) matching: ratio , lcs, (key,drug) (keynorm,drugnorm 0.913043478261 tubocurarine_chloride ('d_tubocurarine_chloride', 'tubocurarine_chloride') ('d_tubocurarine_chloride', 'tubocurarine_chloride')"
p595
tp596
sS'papaverine'
p597
NsS'gallamine_triethochloride'
p598
NsS'normelubrine'
p599
NsS'hydrochloride__levamisole'
p600
NsS'tegafur'
p601
NsS'kristallviolett_l\xe3\xb6sung'
p602
NsS'dexibuprofen'
p603
NsS'eperisone'
p604
NsS'vincristine'
p605
((F1.0
S'vincristine_sulfate'
p606
tp607
S"Suffix-based-exact-matching ('vincristine', 'vincristine_sulfate') ('vincristine', 'vincristine_sulfate')"
p608
tp609
sS'adrenaline__racemic_mixture'
p610
NsS'carbamate__ethyl'
p611
NsS'salicylamide'
p612
NsS'cyclandelate'
p613
NsS'gold_sodium_thiomalate'
p614
NsS'durabezur'
p615
NsS'hepatocyte_stimulating_factor'
p616
NsS'digitoxin_b\xc3\xbcrger'
p617
NsS'idebenone'
p618
NsS'roxithro_lich'
p619
NsS'hexachloro_13_butadiene'
p620
NsS'sparteine__(_)_isomer'
p621
NsS'alfacalcidol'
p622
NsS'papulex'
p623
NsS'quinosol'
p624
NsS'(3_beta_5z_7e)_9_10_secocholesta_5_7_10(19)_trien_3_ol'
p625
NsS'racepinephrine'
p626
NsS'sparteine__(7r_(7alpha_7abeta_14alpha_14abeta))_isomer'
p627
NsS'17_methyltestosterone'
p628
((F0.8571428571428571
S'methyltestosterone'
p629
tp630
S"(st) matching: ratio , lcs, (key,drug) (keynorm,drugnorm 0.857142857143 methyltestosterone ('17_methyltestosterone', 'methyltestosterone') ('17_methyltestosterone', 'methyltestosterone')"
p631
tp632
sS'beta_2__interferon'
p633
NsS'digitonin'
p634
NsS'dimethyl_methylphosphonate'
p635
NsS'mianserin_hydrochloride'
p636
NsS'propylene_glycol__(r)_isomer'
p637
NsS'chem_mart_moclobemide'
p638
NsS'ceramide_c2'
p639
NsS'balminil'
p640
NsS'tuscalman'
p641
NsS'nimesulide'
p642
NsS'nitrendipino_ratiopharm'
p643
NsS'mtw_roxithromycin'
p644
NsS'trichloroethane'
p645
NsS'florafur'
p646
NsS'levamisole_hydrochloride'
p647
NsS'bezacur'
p648
NsS'sulfate__oxyquinoline'
p649
NsS'sisomicin_sulfate'
p650
NsS'novaminsulfone'
p651
NsS'mercury_dichloride'
p652
NsS'benoxaprofen'
p653
NsS'venlafaxine'
p654
((F1.0
S'venlafaxine_hydrochloride'
p655
tp656
S"Suffix-based-exact-matching ('venlafaxine', 'venlafaxine_hydrochloride') ('venlafaxine', 'venlafaxine_hydrochloride')"
p657
tp658
sS'tocainide__(+_)_isomer'
p659
NsS'methylmethane_sulfonate'
p660
NsS'eulitop'
p661
NsS'digimed'
p662
NsS'manerix'
p663
NsS'acrylic_aldehyde'
p664
NsS'chlormadinone_acetate__(9_beta_10_alpha)_isomer'
p665
NsS'gentian_violet'
p666
NsS'monohydrochloride__mianserin'
p667
NsS'diethylnitrosamine'
p668
NsS'mogadon'
p669
NsS'teichomycin'
p670
NsS'o_hydroxybenzoic_acid'
p671
NsS'gentiaanviolet_fna'
p672
NsS'thiophenicol'
p673
NsS'balsalazide'
p674
((F1.0
S'balsalazide_disodium'
p675
tp676
S"Suffix-based-exact-matching ('balsalazide', 'balsalazide_disodium') ('balsalazide', 'balsalazide_disodium')"
p677
tp678
sS'ethanol'
p679
NsS'neostigmine'
p680
((F1.0
S'neostigmine_methylsulfate'
p681
tp682
S"Suffix-based-exact-matching ('neostigmine', 'neostigmine_methylsulfate') ('neostigmine', 'neostigmine_methylsulfate')"
p683
tp684
sS'allylamine'
p685
NsS'2_propenal'
p686
NsS'8_hydroxyquinoline'
p687
NsS'guanethidine'
p688
((F1.0
S'guanethidine_monosulfate'
p689
tp690
S"(st) matching: ratio , lcs, (key,drug) (keynorm,drugnorm 1.0 guanethidine ('guanethidine', 'guanethidine_monosulfate') ('guanethidine', 'guanethidine_monosulfate')"
p691
tp692
sS'benzocaine'
p693
NsS'lomefloxacin'
p694
NsS'tetracaine'
p695
((F1.0
S'tetracaine_hydrochloride'
p696
tp697
S"Suffix-based-exact-matching ('tetracaine', 'tetracaine_hydrochloride') ('tetracaine', 'tetracaine_hydrochloride')"
p698
tp699
sS'rolipram'
p700
NsS'ibufenac'
p701
NsS'cobalt_(ii)_chloride'
p702
NsS'roxi_tad'
p703
NsS'digophton'
p704
NsS'aceclofenac'
p705
NsS'katrum'
p706
NsS'prinomastat'
p707
NsS'aminoglutethimide'
p708
NsS'nitrendipin_lindo'
p709
NsS'guastil'
p710
NsS'methyl_mesilate'
p711
NsS'8_hydroxyquinoline_sulfate'
p712
NsS'digitoxin_philo'
p713
NsS'acrolein'
p714
NsS'potassium_benzoate'
p715
NsS'chloroxylenol'
p716
NsS'2378_tetrachlorodibenzo_p_dioxin'
p717
NsS'cinnarizine_l_tartrate_(1:1)'
p718
NsS'triacetyl_glycerol'
p719
NsS'benzocaine_hydrobromide'
p720
NsS'epinephrine__racemic'
p721
NsS'phomin'
p722
NsS'meresa'
p723
NsS'aflatoxin_b'
p724
NsS'troxipide'
p725
NsS'hexachloroethane'
p726
NsS'44__diethylaminoethoxyhexestrol'
p727
NsS'ethyl_aminobenzoate'
p728
NsS'tropisetron'
p729
NsS'econazole'
p730
((F1.0
S'econazole_nitrate'
p731
tp732
S"Suffix-based-exact-matching ('econazole', 'econazole_nitrate') ('econazole', 'econazole_nitrate')"
p733
tp734
sS'sildenafil'
p735
((F1.0
S'sildenafil_citrate'
p736
tp737
S"(st) matching: ratio , lcs, (key,drug) (keynorm,drugnorm 1.0 sildenafil ('sildenafil', 'sildenafil_citrate') ('sildenafil', 'sildenafil_citrate')"
p738
tp739
sS'irinotecan'
p740
((F1.0
S'irinotecan_hydrochloride'
p741
tp742
S"Suffix-based-exact-matching ('irinotecan', 'irinotecan_hydrochloride') ('irinotecan', 'irinotecan_hydrochloride')"
p743
tp744
sS'numoclobemide'
p745
NsS'vasomotal'
p746
NsS'p_chlorophenoxyisobutyric_acid'
p747
NsS'betahistine_hydrochloride'
p748
NsS'1_2_propanediol'
p749
NsS'triethiodide__gallamine'
p750
NsS'bromhexine__famel'
p751
NsS'kristallviolett_l\xc3\xb6sung'
p752
NsS'tenidap'
p753
NsS'cytochalasin_b'
p754
NsS'gold_thiomalate__sodium'
p755
NsS'neoeunomin'
p756
NsS'beta_estradiol_3_benzoate'
p757
NsS'enoxacin'
p758
NsS'procarbazine_monohydrobromide'
p759
NsS'cyproterone_acetate__(17_alpha)_isomer'
p760
NsS'sodium_arsenite'
p761
NsS'sodium_biselenite'
p762
NsS'2_pyrrolidone_n_acetamide'
p763
NsS'phalloidine'
p764
NsS'hexamethylmelamine'
p765
NsS'acetylbenzoylaconine'
p766
NsS'chlorbutin'
p767
NsS'trichloroethylene'
p768
NsS'4_nitrobenzoic_acid'
p769
NsS'sulfathiazole'
p770
NsS'sulpitil'
p771
NsS'adrenaline_hydrochloride__racemic_mixture'
p772
NsS'thiomersal'
p773
NsS'manganese_(ii)_chloride'
p774
NsS'mevastatin'
p775
NsS'embonate__noscapine_hydrogen'
p776
NsS'mercuric_chloride'
p777
NsS'4_nonylphenol'
p778
NsS'arminol'
p779
NsS'closantel'
p780
NsS'amprenavir'
p781
NsS'roxithromycin'
p782
NsS'chloroform'
p783
NsS'moxonidine'
p784
NsS'neostigmine_bromide'
p785
NsS'2_beta_d_ribofuranosyl_1_2_4_triazine_3_5(2h_4h)_dione'
p786
NsS'sulfaphenazole'
p787
NsS'6_mercaptopurine'
p788
NsS'moclix'
p789
NsS'oxymetholone'
p790
NsS'moclobemide__chem_mart'
p791
NsS'4_allyl_1_2_methylenedioxybenzene'
p792
NsS'betahistine'
p793
NsS'dexchlorpheniramine'
p794
((F1.0
S'dexchlorpheniramine_maleate'
p795
tp796
S"Suffix-based-exact-matching ('dexchlorpheniramine', 'dexchlorpheniramine_maleate') ('dexchlorpheniramine', 'dexchlorpheniramine_maleate')"
p797
tp798
sS'oxfendazole'
p799
NsS'perchloride__mercuric'
p800
NsS'piracetam'
p801
NsS'roxi_paed_1a_pharma'
p802
NsS'bayotensin'
p803
NsS'insulin_a_chain'
p804
NsS'panacur'
p805
NsS'4_methylpyrazole'
p806
NsS'roxi_q'
p807
NsS'hydroquinone'
p808
NsS'tocainide_hydrochloride'
p809
NsS'monosodium_selenite'
p810
NsS'phosphoric_acid_2_2_dichloroethenyl_dimethyl_ester'
p811
NsS'suxamethonium_chloride'
p812
NsS'nitrosodimethylamine__ndma'
p813
NsS'2_acetylaminofluorene'
p814
NsS'sedoval'
p815
NsS'chlorobenzene'
p816
NsS'(16beta_17beta)_estra_1_3_5(10)_triene_3_16_17_triol'
p817
NsS'zirconium(iv)_chloride'
p818
NsS'2_(4_chlorophenoxy)_2_methylpropionic_acid'
p819
NsS'sissomicin'
p820
NsS'bioquin'
p821
NsS'growth_factor__plasmacytoma'
p822
NsS'chlorambucil'
p823
NsS'hydrochloride__betahistine'
p824
NsS'antimycin_a'
p825
NsS'valacyclovir'
p826
((F1.0
S'valacyclovir_hydrochloride'
p827
tp828
S"Suffix-based-exact-matching ('valacyclovir', 'valacyclovir_hydrochloride') ('valacyclovir', 'valacyclovir_hydrochloride')"
p829
tp830
sS'11_dichloroethene'
p831
NsS'soluble_insulin'
p832
NsS'ftorafur'
p833
NsS'chloride__cadmium'
p834
NsS'sodium_thiomalate__gold'
p835
NsS'rubidium_trichloroacetate'
p836
NsS'aconitine'
p837
NsS'sodium_selenite'
p838
NsS'epalrestat'
p839
NsS'vertigo_meresa'
p840
NsS'procaine'
p841
((F1.0
S'procaine_hydrochloride'
p842
tp843
S"Suffix-based-exact-matching ('procaine', 'procaine_hydrochloride') ('procaine', 'procaine_hydrochloride')"
p844
tp845
sS'bromhexine_hydrochloride'
p846
NsS'17_alpha_ethynyltestosterone'
p847
NsS'bromhexin'
p848
NsS'buflomedil'
p849
NsS'absolute_alcohol'
p850
NsS'nootrop'
p851
NsS'acid__trichloroacetic'
p852
NsS'betaserc'
p853
NsS'azauridine'
p854
NsS'pamisyl'
p855
NsS'2_amino_4_nitrophenol'
p856
NsS'metamizol'
p857
NsS'nitrendipin_von_ct'
p858
NsS'monohydrochloride__tiapride'
p859
NsS'cinnarizine'
p860
NsS'teicoplanin'
p861
NsS'nitrendipin_ratiopharm'
p862
NsS'digitoxin_b\xe3\xbcrger'
p863
NsS'thiamphenicol'
p864
NsS'diisopropyl_fluorophosphate'
p865
NsS'sparteine_hydrochloride__(7r_(7alpha_7aalpha_14alpha_14abeta))_isomer'
p866
NsS'by_vertin'
p867
NsS'pyralgin'
p868
NsS'betahistin_ratiopharm'
p869
NsS'trans_platinum(ii)diammine_dichloride'
p870
NsS'doxofylline'
p871
NsS'l_phenylephrine'
p872
((F0.8666666666666667
S'phenylephrine_hydrochloride'
p873
tp874
S"(st) matching: ratio , lcs, (key,drug) (keynorm,drugnorm 0.866666666667 phenylephrine ('l_phenylephrine', 'phenylephrine_hydrochloride') ('l_phenylephrine', 'phenylephrine_hydrochloride')"
p875
tp876
sS'methylparaben'
p877
NsS'hydrobromide__benzocaine'
p878
NsS'butenafine'
p879
((F1.0
S'butenafine_hydrochloride'
p880
tp881
S"Suffix-based-exact-matching ('butenafine', 'butenafine_hydrochloride') ('butenafine', 'butenafine_hydrochloride')"
p882
tp883
sS'luminal'
p884
NsS'famel_bromhexine'
p885
NsS'methampyrone'
p886
NsS'vitamin_d3'
p887
((F0.9
S'vitamin_d'
p888
tp889
S"(st) matching: ratio , lcs, (key,drug) (keynorm,drugnorm 0.9 vitamin_d ('vitamin_d3', 'vitamin_d') ('vitamin_d3', 'vitamin_d')"
p890
tp891
sS'interleukin_1_beta'
p892
NsS'acid__o_hydroxybenzoic'
p893
NsS'hydrazine'
p894
NsS'acid__tienilic'
p895
NsS'imatinib'
p896
((F1.0
S'imatinib_mesylate'
p897
tp898
S"Suffix-based-exact-matching ('imatinib', 'imatinib_mesylate') ('imatinib', 'imatinib_mesylate')"
p899
tp900
sS'noramidopyrine_methanesulfonate_sodium'
p901
NsS'triludan'
p902
NsS'hexachlorophene'
p903
NsS'cyater'
p904
NsS'rofecoxib'
p905
NsS'nitrendipin_al'
p906
NsS'pirinixic_acid'
p907
NsS'oxyquinoline_sulfate'
p908
NsS'enrofloxacin'
p909
NsS'serenade'
p910
NsS'mercurothiolate'
p911
NsS'antipyrine'
p912
NsS'radedorm'
p913
NsS'aminosalicylic_acid'
p914
NsS'monohydrobromide__procarbazine'
p915
NsS'bromisovalum'
p916
NsS'dimethyl_dichlorovinyl_phosphate'
p917
NsS'sulfaphenylpyrazol'
p918
NsS'ouabain'
p919
NsS'hexachlorophane'
p920
NsS'claramid'
p921
NsS'bromhexin_ratiopharm'
p922
NsS'n_2_fluorenylacetamide'
p923
NsS'acid__benzoic'
p924
NsS'lipopolysaccharide_e._coli_o55:b5'
p925
NsS'trichloride__ethinyl'
p926
NsS'digitaline_nativelle'
p927
NsS'beta_isosparteine'
p928
NsS'emetine'
p929
NsS'jenapharm__nicotins\xc3\xa4ureamid'
p930
NsS'3_nitro_10'
p931
NsS'n_nitrosodiethylamine'
p932
NsS'nitrodiazepam'
p933
NsS'lead(iv)_acetate'
p934
NsS'cachectin'
p935
NsS'ticrynafen'
p936
NsS'benzoic_acid'
p937
NsS'dichloride__mercury'
p938
NsS'narcotine'
p939
NsS'gliclazide'
p940
NsS'cadmium_acetate'
p941
NsS'jenapharm__nicotins\xe3\xa4ureamid'
p942
NsS'anisindione'
p943
NsS'pramoxine'
p944
((F1.0
S'pramoxine_hydrochloride'
p945
tp946
S"Suffix-based-exact-matching ('pramoxine', 'pramoxine_hydrochloride') ('pramoxine', 'pramoxine_hydrochloride')"
p947
tp948
sS'sodium__phenobarbital'
p949
NsS'gallamine_triethiodide'
p950
NsS'artemisinin'
p951
NsS'bromovalerylurea'
p952
NsS'p_aminosalicylic_acid'
p953
NsS'd_sparteine'
p954
NsS'33_5_triiodo_l_thyronine'
p955
NsS'alodorm'
p956
NsS'2_hydroxybenzoic_acid'
p957
NsS'aldosterone'
p958
NsS'sinapsan'
p959
NsS'4_(bis(2_chloroethyl)amino)benzenebutanoic_acid'
p960
NsS'benzethonium_chloride'
p961
NsS'phenacetin'
p962
NsS'micronefrin'
p963
NsS'solaskil'
p964
NsS'16beta_hydroxy_estradiol'
p965
NsS'americaine'
p966
NsS'miocrin'
p967
NsS'roxidura'
p968
NsS'flunarizine_hydrochloride'
p969
NsS'sulfadimethoxine'
p970
NsS'nitrendepat'
p971
NsS'terfenidine'
p972
NsS'insulin__soluble'
p973
NsS'darolan'
p974
NsS'digitin'
p975
NsS'1_naphthyl_isothiocyanate'
p976
NsS'differentiation_factor__b_cell'
p977
NsS'cinarizina_inkey'
p978
NsS'pachycarpine_sulfate_(1:1)__pentahydrate__(7s_(7alpha_7aalpha_14alpha_14abeta))_isomer'
p979
NsS'cetylpyridinium_bromide'
p980
NsS'sublimate__corrosive'
p981
NsS'lympholysin'
p982
NsS'terfenadine'
p983
NsS'hydrochloride__bromhexine'
p984
NsS'alendronic_acid'
p985
NsS'acraldehyde'
p986
NsS'p_aminosalicylic_acid_monopotassium_salt'
p987
NsS'rotesan'
p988
NsS'violet__gentian'
p989
NsS'14_dichlorobenzene'
p990
NsS'genestein'
p991
NsS'oxyquinoline'
p992
NsS'phenylhydrazine'
p993
NsS'awd__digitoxin'
p994
NsS'4_aminobenzoic_acid_ethyl_ester'
p995
NsS'nitrendipin_beta'
p996
NsS'trichloroacetic_acid'
p997
NsS'loxoprofen'
p998
NsS'cyclopropane_carboxylic_acid'
p999
NsS'coramedan'
p1000
NsS'alumino_4_aminosalicylic_acid'
p1001
NsS'hydrochloride__oxymetazoline'
p1002
NsS'biselenite__sodium'
p1003
NsS'metamizole_sodium'
p1004
NsS'doxorubicin'
p1005
((F1.0
S'doxorubicin_hydrochloride'
p1006
tp1007
S"Suffix-based-exact-matching ('doxorubicin', 'doxorubicin_hydrochloride') ('doxorubicin', 'doxorubicin_hydrochloride')"
p1008
tp1009
sS'phenobarbital__monosodium_salt'
p1010
NsS'capval_tropfen'
p1011
NsS'nootropil'
p1012
NsS'safrols'
p1013
NsS'stannous_fluoride'
p1014
NsS'racemic_mixture_adrenaline'
p1015
NsS'sulforthomidine'
p1016
NsS'ferrocene'
p1017
NsS'dibromochloromethane'
p1018
NsS'moclobeta'
p1019
NsS'bromhexin_bc'
p1020
NsS'azlocillin_sodium'
p1021
NsS'roxigr\xc3\xbcn'
p1022
NsS'safrole'
p1023
NsS'tienilic_acid'
p1024
NsS'harringtonine'
p1025
NsS'anesthesin'
p1026
NsS'tolvon'
p1027
NsS'cyproterone_acetate__(1_alpha_2_alpha)_isomer'
p1028
NsS'desisulpid'
p1029
NsS'melatonin'
p1030
NsS'azufibrat'
p1031
NsS'methyl_methylenesulfonate'
p1032
NsS'pms_moclobemide'
p1033
NsS'urethane'
p1034
NsS'cerepar_n'
p1035
NsS'differentiation_factor_2__b_cell'
p1036
NsS'zopiclone'
p1037
((F1.0
S'eszopiclone'
p1038
tp1039
S"(st) matching: ratio , lcs, (key,drug) (keynorm,drugnorm 1.0 zopiclone ('zopiclone', 'eszopiclone') ('zopiclone', 'eszopiclone')"
p1040
tp1041
sS'neo_eunomin'
p1042
NsS'melopat'
p1043
NsS'vicemycetin'
p1044
NsS'gold_thiomalic_acid'
p1045
NsS'myeloid_differentiation_inducing_protein'
p1046
NsS'n_nitrosodimethylamine'
p1047
NsS'carmofur'
p1048
NsS'3_chloroaniline'
p1049
NsS'p_aminosalicylic_acid_monosodium_salt'
p1050
NsS'syntostigmine'
p1051
NsS'tensogradal'
p1052
NsS'quentan'
p1053
NsS'4_octylphenol'
p1054
NsS'6_methoxy_2_naphthylacetic_acid'
p1055
NsS'gadopentetate_dimeglumine'
p1056
NsS'nu_moclobemide'
p1057
NsS'stugeron'
p1058
NsS'memo_puren'
p1059
NsS'cobalt(ii)_acetylacetonate'
p1060
NsS'cholecalciferols'
p1061
NsS'roxigr\xe3\xbcn'
p1062
NsS'nitrendipine'
p1063
NsS'hustentabs_ratiopharm'
p1064
NsS'g_strophanthin'
p1065
NsS'4_5_dehydrogentamicin'
p1066
NsS'dihydrochloride__flunarizine'
p1067
NsS'sodium_ethylmercurithiosalicylate'
p1068
NsS'polstigmine'
p1069
NsS'sesquihydrate__enoxacin'
p1070
NsS'estriol'
p1071
NsS'baypress'
p1072
Ns.