(dp0
S'methylphenylisoxazolyl_penicillin'
p1
NsS'telmisartan'
p2
NsS'tamoxifen'
p3
NsS'3_7_dimethyl_9_(2_6_6_trimethyl_1_cyclohexen_1_yl)_2_4_6_8_nonatetraen_1_ol__(all_e)_isomer'
p4
NsS'stromectol'
p5
NsS'lubiprostone'
p6
NsS'beta_(aminomethyl)_4_chlorobenzenepropanoic_acid'
p7
NsS'trastuzumab'
p8
NsS'niacin'
p9
NsS'3_alpha_7_beta_dihydroxy_5_beta_cholan_24_oic_acid'
p10
NsS'bleomycins'
p11
NsS'vesanoid'
p12
NsS'adrucil'
p13
NsS'gelidina'
p14
NsS'ethinyl_estradiol'
p15
NsS'pregn_4_ene_3_20_dione__17_(acetyloxy)_6_methyl___(6alpha)_'
p16
NsS'phisohex'
p17
NsS'deferrioxamine_b'
p18
NsS'tamoxifen_citrate'
p19
NsS'normalip'
p20
NsS'fluoxetine'
p21
NsS'cholecalciferol'
p22
NsS'galzin'
p23
NsS'd3__1_25_dihydroxyvitamin'
p24
NsS'estradiol'
p25
NsS'stada__fenofibrat'
p26
NsS'gen_fenofibrate'
p27
NsS'2_propylpentanoic_acid'
p28
NsS'algotropyl'
p29
NsS'ribodoxo'
p30
NsS'niacin_ammonium_salt'
p31
NsS'cbdca'
p32
NsS'k_4024'
p33
NsS'cp_62993'
p34
NsS'diclophenac'
p35
NsS'desoxynorephedrin'
p36
NsS'cyclosporine'
p37
NsS'i_2190a'
p38
NsS'progesterone'
p39
NsS'magnesium_ascorbate'
p40
NsS'nsc_241240'
p41
NsS'propanolol'
p42
NsS'ciprofloxacin_hydrochloride_anhydrous'
p43
NsS'cb_1348'
p44
NsS'alitretinoin'
p45
NsS'absolute_alcohol'
p46
NsS'acetamidophenol'
p47
NsS'vilona'
p48
NsS'niacin_cobalt_(2+)_salt'
p49
NsS'novaldex'
p50
NsS'amoxicilline'
p51
NsS'ici_35868'
p52
NsS'sevoflurane'
p53
NsS'teturam'
p54
NsS'csa_neoral'
p55
NsS'bmy28689'
p56
NsS'cytoxan'
p57
NsS'debat__f\xe3\xa9nofibrate'
p58
NsS'f\xe3\xa9nofibrate_debat'
p59
NsS'ribamide'
p60
NsS'nsc_141540'
p61
NsS'ursobilane'
p62
NsS'urso'
p63
NsS'decostriol'
p64
NsS'metadate'
p65
NsS'gen_baclofen'
p66
NsS'sdz202_250'
p67
NsS'adrimedac'
p68
NsS'duramorph'
p69
NsS'fluocinolone_acetonide'
p70
NsS'5_fu_lederle'
p71
NsS'tampovagan'
p72
NsS'gefitinib'
p73
NsS'lipidil'
p74
NsS'ethanol'
p75
NsS'cgp2175'
p76
NsS'triclosan'
p77
NsS'hydramycin'
p78
NsS'noroxin'
p79
NsS'bis(diethylthiocarbamoyl)_disulfide'
p80
NsS'anacin_3'
p81
NsS'sulfate__amphetamine'
p82
NsS'ethinyl_estradiol__(8_alpha_9_beta_13_alpha_14_beta)_isomer'
p83
NsS'doxorubicina_funk'
p84
NsS'baclospas'
p85
NsS'nicotine_tartrate'
p86
NsS'ivermectin'
p87
NsS'mithramycin'
p88
NsS'irgasan_dp300'
p89
NsS'ritalin_sr'
p90
NsS'desferrioxamine_b'
p91
NsS'cis_diamminedichloroplatinum'
p92
NsS'thiamine'
p93
NsS'antabus'
p94
NsS'5_fu_medac'
p95
NsS'niacin_potassium_salt'
p96
NsS'niacin_tartrate'
p97
NsS'permethrin__(1s_cis)_isomer'
p98
NsS'arsenic_trioxide'
p99
NsS'testopel'
p100
NsS'nsc_125973'
p101
NsS'sdz_202_250'
p102
NsS'apap'
p103
NsS's_3151'
p104
NsS'sapoderm'
p105
NsS'mk0366'
p106
NsS'obsidan'
p107
NsS'phenamine'
p108
NsS'5_fluorouracil'
p109
NsS'azu__fenofibrat'
p110
NsS'permethrin__(1r_cis)_isomer'
p111
NsS'calcitriol_kyramed'
p112
NsS'ro_43780'
p113
NsS'isoflurane'
p114
NsS'everolimus'
p115
NsS'brl_2333'
p116
NsS'ranolazine'
p117
NsS'lopressor'
p118
NsS'tricor'
p119
NsS'estradiol__(17_alpha)_isomer'
p120
NsS'permethrin'
p121
NsS'quetiapine'
p122
NsS'periostat'
p123
NsS'metoprolol'
p124
NsS'decitabine'
p125
NsS'mifegyne'
p126
NsS'retin_a'
p127
NsS'mannitol'
p128
NsS'ursodeoxycholic_acid'
p129
NsS'farmiblastina'
p130
NsS'2_propanol'
p131
NsS'titanium_dioxide'
p132
NsS'jm_8'
p133
NsS'sustanon'
p134
NsS'mk_933'
p135
NsS'cosmegen_lyovac'
p136
NsS'doxorubicin_nc'
p137
NsS'isopropylnoradrenaline'
p138
NsS'fulvestrant'
p139
NsS'permethrin__(trans)_isomer'
p140
NsS'sodium_salt__tretinoin'
p141
NsS'am_715'
p142
NsS'carbosin'
p143
NsS'estradiol__(8_alpha_17_beta)_isomer'
p144
NsS'b_518'
p145
((F0.8
S'ald_518'
p146
tp147
S"(st) matching: ratio , lcs, (key,drug) (keynorm,drugnorm 0.8 _518 ('b_518', 'ald_518') ('b_518', 'ald_518')"
p148
tp149
sS'sulfate__bleomycin'
p150
NsS'lilly_110140'
p151
NsS'tretinoin_sodium_salt'
p152
NsS'ferrous_ascorbate'
p153
NsS'dh_581'
p154
NsS'adriablastine'
p155
NsS'isoproterenol_hydrochloride'
p156
NsS'calcitriol'
p157
NsS'morphine'
p158
NsS'awd__baclofen'
p159
NsS'sandimmun_neoral'
p160
NsS'zitazonium'
p161
NsS'morphine_sulfate'
p162
NsS'levo_amphetamine'
p163
NsS'sorafenib'
p164
NsS'lyovac_cosmegen'
p165
NsS'letrozole'
p166
NsS'ici_46_474'
p167
NsS'niacin_zinc_salt'
p168
NsS'alcohol__rubbing'
p169
NsS'acid__all_trans_retinoic'
p170
NsS'salt__tretinoin_sodium'
p171
NsS'alcohol__ethyl'
p172
NsS'vupral'
p173
NsS'lithium_nicotinate'
p174
NsS'ozidia'
p175
NsS'procytox'
p176
NsS'desferioximine'
p177
NsS'(l)_mannitol'
p178
NsS'flucinar'
p179
NsS'ascorbate__sodium'
p180
NsS'leponex'
p181
NsS'thiamine_mononitrate'
p182
NsS'cis_permethrin'
p183
NsS'1_25_dihydroxy_20_epi_vitamin_d3'
p184
NsS'farmistin'
p185
NsS'doxycycline_monohydrate'
p186
NsS'amfetamine'
p187
NsS'lympholysin'
p188
NsS'levoamphetamine'
p189
NsS'cyclophosphamide'
p190
NsS'betaloc'
p191
NsS'2_6_bis(1_methylethyl)phenol'
p192
NsS'pyrazinamide'
p193
NsS'atrofen'
p194
NsS'ezetimibe'
p195
NsS'aneurin'
p196
NsS'cyclosporine_a'
p197
NsS'zinc_acetate'
p198
NsS'desferroxamine'
p199
NsS'nicocap'
p200
NsS'glupitel'
p201
NsS'norfloxacin'
p202
NsS'paclitaxel'
p203
NsS'concerta'
p204
NsS'dipropyl_acetate'
p205
NsS'procetofen__antara_micronized'
p206
NsS'cellcristin'
p207
NsS'anapriline'
p208
NsS'(m_phenoxybenzyl)_cis_trans_3_(2_2_dichlorovinyl)_2_2_dimethylcyclopropanecarboxylate'
p209
NsS'nicotine'
p210
NsS'azithromycin_monohydrate'
p211
NsS'niacin_magnesium_salt'
p212
NsS'bortezomib'
p213
NsS'ethinyl_estradiol__(8_alpha)_isomer'
p214
NsS'irgasan_dp_300'
p215
NsS'ethinylestradiol_jenapharm'
p216
NsS'progynova'
p217
NsS'methotrexate'
p218
((F1.0
S'methotrexate_subcutaneous_auto_injection'
p219
tp220
S"(st) matching: ratio , lcs, (key,drug) (keynorm,drugnorm 1.0 methotrexate ('methotrexate', 'methotrexate_subcutaneous_auto_injection') ('methotrexate', 'methotrexate_subcutaneous_auto_injection')"
p221
tp222
sS'estradiol__sodium_salt'
p223
NsS'ribavirin'
p224
NsS'miostat'
p225
NsS'nsc241240'
p226
NsS'sodium_ursodeoxycholate'
p227
NsS'sandimmun'
p228
NsS'estradiol__(+_)_isomer'
p229
NsS'2_naphthacenecarboxamide__4_(dimethylamino)_1_4_4a_5_5a_6_11_12a_octahydro_3_5_10_12_12a_pentahydroxy_6_methyl_1_11_dioxo___(4s_(4alpha_4aalpha_5alpha_5aalpha_6alpha_12aalpha))_'
p230
NsS'nico400'
p231
NsS'beloc_duriles'
p232
NsS'eposin'
p233
NsS'ro_4_3780'
p234
NsS'nsc_3088'
p235
NsS'agostilben'
p236
NsS'medroxyprogesterone_17_acetate'
p237
NsS'retinoic_acid'
p238
NsS'candesartan'
p239
NsS'novodrin'
p240
NsS'lofibra'
p241
NsS'bleomycin_a2'
p242
NsS'alpha_6_deoxyoxytetracycline'
p243
NsS'colchicine'
p244
NsS'derma_smooth_fs'
p245
NsS'capreomycin_sulfate'
p246
NsS'lorelco'
p247
NsS'renatriol'
p248
NsS'monohydrate__azithromycin'
p249
NsS'p_hydroxyacetanilide'
p250
NsS'1_alpha__25_dihydroxy_20_epi_vitamin_d3'
p251
NsS'fenofibrat_hexal'
p252
NsS'aquafol'
p253
NsS'isadrin'
p254
NsS'oxandrolone'
p255
NsS'dopar'
p256
NsS'ba34647'
p257
NsS'neocarbo'
p258
NsS'zinc_acetate_dihydrate'
p259
NsS'ethyl_alcohol'
p260
NsS'bu_3839t'
p261
NsS'mesylate__deferoxamine'
p262
NsS'colchicine__(r)_isomer'
p263
NsS'6_alpha_methyl_17alpha_hydroxyprogesterone_acetate'
p264
NsS'sunitinib'
p265
NsS'eqvalan'
p266
NsS'temozolomide'
p267
NsS'propranolol'
p268
NsS'ru38486'
p269
NsS'ciba34_647ba'
p270
NsS'ciprofloxacin'
p271
NsS'heparinic_acid'
p272
NsS'methanesulfonate__deferoxamine'
p273
NsS'isopropyl_noradrenaline'
p274
NsS'cyclopropanecarboxylic_acid__3_(2_2_dichloroethenyl)_2_2_dimethyl___(3_phenoxyphenyl)methyl_ester'
p275
NsS'jellisoft'
p276
NsS'certolizumab_pegol'
p277
NsS'csaneoral'
p278
NsS'zinc_sulfate'
p279
NsS'mc1288'
p280
NsS'amoxicillin_anhydrous'
p281
NsS'bleomycin'
p282
NsS'melizide'
p283
NsS'morphine_sulfate_(2:1)__anhydrous'
p284
NsS'cb1348'
p285
NsS'urokit_doxo_cell'
p286
NsS'ursofalk'
p287
NsS'vitamin_b_1'
p288
NsS'acid__trans_retinoic'
p289
NsS'lf_178'
p290
NsS'zk98296'
p291
NsS'lipidil_ter'
p292
NsS'bellon__bl\xe3\xa9omycine'
p293
NsS'penamox'
p294
NsS'fluortriamcinolone_acetonide'
p295
NsS'levopa'
p296
NsS'baclof\xe3\xa8neirex'
p297
NsS'deferoxamine_mesilate'
p298
NsS'sc11585'
p299
NsS'apo_baclofen'
p300
NsS'azithromycin'
p301
NsS'nrdc143'
p302
NsS'disoprivan'
p303
NsS'eto_gry'
p304
NsS'mtw_fenofibrat'
p305
NsS'sodium_salt__niacin'
p306
NsS'mif\xe3\xa9gyne'
p307
NsS'oestradiol'
p308
NsS'carbachol'
p309
NsS'tylenol'
p310
NsS'cis_diamminedichloroplatinum(ii)'
p311
NsS'niacin_lithium_salt__hemihydrate'
p312
NsS'(3_beta_5z_7e)_9_10_secocholesta_5_7_10(19)_trien_3_ol'
p313
NsS'niacin_hydrochloride'
p314
NsS'cytophosphane'
p315
NsS'sulfate__zinc'
p316
NsS'platidiam'
p317
NsS'amoxicillin_trihydrate'
p318
NsS'haemato_fu'
p319
NsS'clozapine'
p320
NsS'nu_fenofibrate'
p321
NsS'7_epi_taxol'
p322
NsS'bleomycin_b2'
p323
NsS'acetaminophen'
p324
NsS'13_cis_retinoic_acid'
p325
NsS'metoprolol_tartrate'
p326
NsS'co_fluocin'
p327
NsS'methylphenidate'
p328
NsS'doxycycline_calcium'
p329
NsS'vibra_tabs'
p330
NsS'troglitazone'
p331
NsS'disulfiram'
p332
NsS'ay_22989'
p333
NsS'cis_dichlorodiammineplatinum(ii)'
p334
NsS'doxorubicine_baxter'
p335
NsS'olanzapine'
p336
NsS'etoposide__(5s)_isomer'
p337
NsS'estradiol_17_beta'
p338
NsS'deoxyursocholic_acid'
p339
NsS'hydrochloride__propranolol'
p340
NsS'ethynyl_estradiol'
p341
NsS'zincteral'
p342
NsS'vincasar'
p343
NsS'cetuximab'
p344
NsS'demethyl_epipodophyllotoxin_ethylidine_glucoside'
p345
NsS'bleo_cell'
p346
NsS'tobramycin'
p347
NsS'pcp_gaba'
p348
NsS'enzalutamide'
p349
NsS'ascorbic_acid'
p350
NsS'fluorouracil_gry'
p351
NsS'vemurafenib'
p352
NsS'doryx'
p353
NsS'ascorbate__ferrous'
p354
NsS'capex'
p355
NsS'vorinostat'
p356
NsS'all_trans_retinoic_acid'
p357
NsS'alpha_heparin'
p358
NsS'1_25_dihydroxycholecalciferol'
p359
NsS'zithromax'
p360
NsS'diclofenac_potassium'
p361
NsS'menadione'
p362
NsS'heparin__sodium'
p363
NsS'hydrochloride_anhydrous__ciprofloxacin'
p364
NsS'trovafloxacin'
p365
NsS'bay_09867'
p366
NsS'onkoposid'
p367
NsS'ethinyl_oestradiol_effik'
p368
NsS'h_93_26'
p369
NsS'gemcitabine'
p370
NsS'feloran'
p371
NsS'5_hu_hexal'
p372
NsS'3_hydroxy_l_tyrosine'
p373
NsS'fenofibrat_fph'
p374
NsS'anavar'
p375
NsS'metoprolol_cr_xl'
p376
NsS'estradiol_valerate'
p377
NsS'lopirin'
p378
NsS'minidiab'
p379
NsS'sodium_heparin'
p380
NsS'diethylstilbestrol'
p381
NsS'hydrochloride__niacin'
p382
NsS'histerone'
p383
NsS'vincristine'
p384
NsS'brulamycin'
p385
NsS'genbaclofen'
p386
NsS'bocatriol'
p387
NsS'progynon_c'
p388
NsS'hydrocortisone__(11_alpha)_isomer'
p389
NsS'lipantil'
p390
NsS'ici47699'
p391
NsS'acid__ascorbic'
p392
NsS'cholofalk'
p393
NsS'procetofen'
p394
NsS'ercar'
p395
NsS'zk_98296'
p396
NsS'l_dopa'
p397
NsS'isuprel'
p398
NsS'adriamycin'
p399
NsS'fluorouracil'
p400
NsS'fluorouracile_dakota'
p401
NsS'taxol__bris'
p402
NsS'tersaseptic'
p403
NsS'fresofol'
p404
NsS'calcitriol_nefro'
p405
NsS'glipizide'
p406
NsS'progynon_depot'
p407
NsS'datril'
p408
NsS'etoposide__alpha_d_glucopyranosyl_isomer'
p409
NsS'sq_14_534'
p410
NsS'doxo_cell'
p411
NsS'beta_all_trans_retinoic_acid'
p412
NsS'cyclophosphamide_monohydrate'
p413
NsS'acetonide__fluortriamcinolone'
p414
NsS'azythromycin'
p415
NsS'synamol'
p416
NsS'carboplatin'
p417
NsS'vincristin_medac'
p418
NsS'toraseptol'
p419
NsS'noradrenaline__isopropyl'
p420
NsS'pemetrexed'
p421
NsS'meractinomycin'
p422
NsS'retinol'
p423
NsS'betaloc_astra'
p424
NsS'b518'
p425
NsS'amoxicillin'
p426
NsS'androgel'
p427
NsS'ay_22_989'
p428
NsS'ici_47699'
p429
NsS'apo_feno_micro'
p430
NsS'tosylate__niacin'
p431
NsS'fluorouracil_potassium_salt'
p432
NsS'microfollin_forte'
p433
NsS'biphenabid'
p434
NsS'osmofundin'
p435
NsS'8_isotestosterone'
p436
NsS'curretab'
p437
NsS'doxycycline'
p438
NsS'magnesium_di_l_ascorbate'
p439
NsS'aluminum_salt__niacin'
p440
NsS'rosiglitazone'
p441
NsS'microshield_t'
p442
NsS'myocet'
p443
NsS'magnesium_valproate'
p444
NsS'17_beta_oestradiol'
p445
NsS'fluoruracil'
p446
NsS'oxacillin__sodium'
p447
NsS'ici46_474'
p448
NsS'deferoxamine_methanesulfonate'
p449
NsS'propofol_lipuro'
p450
NsS'icn1229'
p451
NsS'l_ascorbic_acid'
p452
NsS'2_4_4__trichloro_2__hydroxydiphenyl_ether'
p453
NsS'divalproex'
p454
NsS'levetiracetam'
p455
NsS'pioglitazone'
p456
NsS'dactinomycin'
p457
NsS'novo_fenofibrate'
p458
NsS'nicotinate__lithium'
p459
NsS'carbacholine'
p460
NsS'lebic'
p461
NsS'amoxicillin_monosodium_salt'
p462
NsS'doxorubicin_hexal'
p463
NsS'blenoxane'
p464
NsS'ici_46474'
p465
NsS'methylprednisolone'
p466
((F1.0
S'methylprednisolone_acetate'
p467
tp468
S"(st) matching: ratio , lcs, (key,drug) (keynorm,drugnorm 1.0 methylprednisolone ('methylprednisolone', 'methylprednisolone_acetate') ('methylprednisolone', 'methylprednisolone_acetate')"
p469
tp470
sS'nebicin'
p471
NsS'etopos'
p472
NsS'ribovirin'
p473
NsS'silkis'
p474
NsS'vincrisul'
p475
NsS'magnorbin'
p476
NsS'voltaren'
p477
NsS'irinotecan'
p478
NsS'estradiol__(9_beta_17_beta)_isomer'
p479
NsS'pms_baclofen'
p480
NsS'hydrochloride__isoproterenol'
p481
NsS'isopto_carbachol'
p482
NsS'amphetamine_sulfate'
p483
NsS'acephen'
p484
NsS'clamoxyl_g.a.'
p485
NsS'tobracin'
p486
NsS'cya_nof'
p487
NsS'biocisplatinum'
p488
NsS'onkocristin'
p489
NsS'avlocardyl'
p490
NsS'fluoxetine_hydrochloride'
p491
NsS'captopril'
p492
NsS'isotretinoin'
p493
NsS'chlorbutin'
p494
NsS'diclofenac__sodium'
p495
NsS'delestrogen'
p496
NsS'polymyxin_b_sulfate'
p497
NsS'progesterone__(13_alpha_17_alpha)_(+_)_isomer'
p498
NsS'sirolimus'
p499
NsS'clamoxyl'
p500
NsS'nicotinic_acid'
p501
NsS'cortifair'
p502
NsS'capreomycin'
p503
NsS'4_(1_hydroxy_2_((1_methylethyl)amino)ethyl)_1_2_benzenediol'
p504
NsS'doxycycline_monohydrochloride__6_epimer'
p505
NsS'synalar_hp'
p506
NsS'pms_fenofibrate_micro'
p507
NsS'platino'
p508
NsS'rapamune'
p509
NsS'fluodermo'
p510
NsS'tretinoin'
p511
NsS'disulfide__tetraethylthiuram'
p512
NsS'cgp_2175'
p513
NsS'propofol_abbott'
p514
NsS'glidiazinamide'
p515
NsS'isotretinoin_zinc_salt__13_cis_isomer'
p516
NsS'lf178'
p517
NsS'azadose'
p518
NsS'ursolite'
p519
NsS'fmc_33297'
p520
NsS'hydroquinone'
p521
NsS'panadol'
p522
NsS'nsc3088'
p523
NsS'bl\xe3\xa9omycine_bellon'
p524
NsS'vitamin_a'
p525
NsS'cisplatin'
p526
NsS'v\xe3\xa9p\xe3\xa9side_sandoz'
p527
NsS'dexpropranolol'
p528
NsS'tetraethylthioperoxydicarbonic_diamide__((h2n)c(s))2s2'
p529
NsS'obracin'
p530
NsS'mk933'
p531
NsS'dichlorodiammineplatinum'
p532
NsS'sq14_534'
p533
NsS'trimox'
p534
NsS'teva__etoposide'
p535
NsS'mk_0366'
p536
NsS'nu_baclo'
p537
NsS'andropatch'
p538
NsS'chlorambucil'
p539
NsS'nsc125973'
p540
NsS'veramix'
p541
NsS'medroxyprogesterone_17_acetate__(6_alpha_17_alpha)_isomer'
p542
NsS'bay09867'
p543
NsS'nico_400'
p544
NsS'amoxycillin'
p545
NsS'monohydrate__ciprofloxacin_monohydrochloride'
p546
NsS'cliniclean'
p547
NsS'rexigen'
p548
NsS'prednisolone'
p549
((F1.0
S'methylprednisolone_acetate'
p550
tp551
S"(st) matching: ratio , lcs, (key,drug) (keynorm,drugnorm 1.0 prednisolone ('prednisolone', 'methylprednisolone_acetate') ('prednisolone', 'methylprednisolone_acetate')"
p552
tp553
sS'3_phenoxybenzyl_cis_trans_(1rs)_3_(2_2_dichlorovinyl)_2_2_dimethylcyclopropanecarboxylate'
p554
NsS'ribocarbo'
p555
NsS'morphia'
p556
NsS'etoposide'
p557
NsS'vibramycin'
p558
NsS'lilly110140'
p559
NsS'anzatax'
p560
NsS'actinomycin_d'
p561
NsS'novapirina'
p562
NsS'orthophen'
p563
NsS'r_38486'
p564
NsS'probucol'
p565
NsS'vepesid'
p566
NsS'adriblastine'
p567
NsS'trans_permethrin'
p568
NsS'acid__deoxyursocholic'
p569
NsS'nittifor'
p570
NsS'carbastat'
p571
NsS'ay_20694'
p572
NsS'valproate_calcium'
p573
NsS'lior\xe3\xa9sal'
p574
NsS'vitamin_d3'
p575
NsS'mc_1288'
p576
NsS'estradiol__ethynyl'
p577
NsS'hydrocortisone'
p578
NsS'stilbene_estrogen'
p579
NsS'diclofenac'
p580
NsS'acid__ursodeoxycholic'
p581
NsS'oncovine'
p582
NsS'sdz_202250'
p583
NsS'ursacholic_acid'
p584
NsS'5_fluorouracil_biosyn'
p585
NsS'soltriol'
p586
NsS'propofol'
p587
NsS'virazide'
p588
NsS'heumann__fenofibrat'
p589
NsS'n_(4_hydroxyphenyl)acetanilide'
p590
NsS'fenofibrat_ratiopharm'
p591
NsS'toprol'
p592
NsS'gestapuran'
p593
NsS'permethrin__(cis)_isomer'
p594
NsS'deferoxamine'
p595
NsS'cyclophosphamide__(s)_isomer'
p596
NsS'doxycycline_phosphate_(1:1)'
p597
NsS'sc_11585'
p598
NsS'vinzam'
p599
NsS'ici35868'
p600
NsS'estradiol__(16_alpha_17_alpha)_isomer'
p601
NsS'penicillin__methylphenylisoxazolyl'
p602
NsS'clofen'
p603
NsS'mifepristone'
p604
NsS'oxacillin__monosodium_salt__anhydrous'
p605
NsS'panavir'
p606
NsS'valproate'
p607
NsS'(s)_1_(3_mercapto_2_methyl_1_oxopropyl)_l_proline'
p608
NsS'heparin'
p609
NsS'3_pyridinecarboxylic_acid'
p610
NsS'1_alpha_25_dihydroxycholecalciferol'
p611
NsS'testosterone'
p612
NsS'sodium_oxacillin'
p613
NsS'fenofibrate'
p614
NsS'convulsofin'
p615
NsS'fenofibrat_azu'
p616
NsS'icn_1229'
p617
NsS'doxycycline_hemiethanolate'
p618
NsS'etoposide__(5a_alpha_9_alpha)_isomer'
p619
NsS'diethylstilbestrol__(z)_isomer'
p620
NsS'chloride__morphine'
p621
NsS'deferasirox'
p622
NsS'praxel'
p623
NsS'paclitaxel__(4_alpha)_isomer'
p624
NsS'carboptic'
p625
NsS'l_amphetamine'
p626
NsS'nrdc_143'
p627
NsS'depo_medroxyprogesterone_acetate'
p628
NsS'estradiol_anhydrous'
p629
NsS'plicamycin'
p630
NsS'4_(bis(2_chloroethyl)amino)benzenebutanoic_acid'
p631
NsS'ciprofloxacin_monohydrochloride_monohydrate'
p632
NsS'propofol_mct'
p633
NsS'oxacillin'
p634
NsS'distilb\xe3\xa8ne'
p635
NsS'semisodium_valproate'
p636
NsS'sq14534'
p637
NsS'prozac'
p638
NsS'bleomicina'
p639
NsS'paraplatin'
p640
NsS'alcophobin'
p641
NsS'neoral'
p642
NsS'nia_33297'
p643
NsS'flurosyn'
p644
NsS'pp_557'
p645
NsS'aquasept'
p646
NsS'depoprovera'
p647
NsS'depakine'
p648
NsS'spesicor'
p649
NsS'ba_34647'
p650
NsS'mycophenolate_mofetil'
p651
NsS'efudix'
p652
NsS'docetaxel'
p653
NsS'fenofibrat_von_ct'
p654
NsS'flurodex'
p655
NsS'sq_14534'
p656
NsS'cortril'
p657
NsS'methylphenidate_hydrochloride'
p658
NsS'ru_38486'
p659
NsS'ol_27_400'
p660
NsS'testoderm'
p661
NsS'doxorubicin'
p662
NsS'fluoro_uracile_icn'
p663
NsS'permethrin__trans_(1rs)_isomer'
p664
NsS'sulfate__morphine'
p665
NsS'tsentedrin'
p666
NsS'dakota__fluorouracile'
p667
NsS'dihydrate__azithromycin'
p668
NsS'haloperidol'
p669
NsS'ursodeoxycholate__sodium'
p670
NsS'vitamin_e'
p671
NsS'11_epicortisol'
p672
NsS'fmc33297'
p673
NsS'zoledronate'
p674
NsS'ster_zac_bath_concentrate'
p675
NsS'carbamoylcholine'
p676
NsS'isopropyl_alcohol'
p677
NsS'estinyl'
p678
NsS'ribamidyl'
p679
NsS'vp_16'
p680
NsS'fluorouracil_monopotassium_salt'
p681
NsS'bmy_28689'
p682
NsS'zinc_salt__tretinoin'
p683
NsS'sulfate__vincristine'
p684
NsS'vp_16_213'
p685
NsS'vitamin_c'
p686
NsS'nsc_26271'
p687
NsS'17_beta_hydroxy_4_androsten_3_one'
p688
NsS'baclof\xe3\xa8ne_irex'
p689
NsS'glypidizine'
p690
NsS'fenofanton'
p691
NsS'baclofen'
p692
NsS'estradiol_hemihydrate'
p693
NsS'ritaline'
p694
NsS'acid__retinoic'
p695
NsS'progesterone__(9_beta_10_alpha)_isomer'
p696
NsS'valproic_acid'
p697
NsS'onkofluor'
p698
NsS'all_trans_retinol'
p699
NsS'toprol_xl'
p700
NsS'etoposide_pierre_fabre'
p701
NsS'amphetamine'
p702
NsS'trans_retinoic_acid'
p703
NsS'estraderm_tts'
p704
NsS'isoproterenol'
p705
NsS'nsc26271'
p706
NsS'medroxyprogesterone_acetate'
p707
NsS'bexarotene'
p708
NsS'jenapharm__ethinylestradiol'
p709
NsS'cholecalciferols'
p710
NsS'levodopa'
p711
NsS'lastet'
p712
NsS'equasym'
p713
Ns.