(dp0
S'distilb\xe3\xa8ne'
p1
NsS'methylphenylisoxazolyl_penicillin'
p2
NsS'telmisartan'
p3
NsS'tamoxifen'
p4
NsS'3_7_dimethyl_9_(2_6_6_trimethyl_1_cyclohexen_1_yl)_2_4_6_8_nonatetraen_1_ol__(all_e)_isomer'
p5
NsS'stromectol'
p6
NsS'lubiprostone'
p7
NsS'beta_(aminomethyl)_4_chlorobenzenepropanoic_acid'
p8
NsS'trastuzumab'
p9
NsS'niacin'
p10
NsS'folvite'
p11
NsS'3_alpha_7_beta_dihydroxy_5_beta_cholan_24_oic_acid'
p12
NsS'bleomycins'
p13
NsS'vesanoid'
p14
NsS'adrucil'
p15
NsS'gelidina'
p16
NsS'ethinyl_estradiol'
p17
NsS'pregn_4_ene_3_20_dione__17_(acetyloxy)_6_methyl___(6alpha)_'
p18
NsS'phisohex'
p19
NsS'deferrioxamine_b'
p20
NsS'tamoxifen_citrate'
p21
NsS'normalip'
p22
NsS'fluoxetine'
p23
NsS'cholecalciferol'
p24
NsS'galzin'
p25
NsS'd3__1_25_dihydroxyvitamin'
p26
NsS'estradiol'
p27
NsS'stada__fenofibrat'
p28
NsS'gen_fenofibrate'
p29
NsS'2_propylpentanoic_acid'
p30
NsS'algotropyl'
p31
NsS'ribodoxo'
p32
NsS'niacin_ammonium_salt'
p33
NsS'cbdca'
p34
NsS'k_4024'
p35
NsS'diclophenac'
p36
NsS'desoxynorephedrin'
p37
NsS'cyclosporine'
p38
NsS'i_2190a'
p39
NsS'progesterone'
p40
NsS'magnesium_ascorbate'
p41
NsS'nsc_241240'
p42
NsS'propanolol'
p43
NsS'ciprofloxacin_hydrochloride_anhydrous'
p44
NsS'cb_1348'
p45
NsS'alitretinoin'
p46
NsS'methotrexate__(d)_isomer'
p47
NsS'absolute_alcohol'
p48
NsS'acetamidophenol'
p49
NsS'vilona'
p50
NsS'niacin_cobalt_(2+)_salt'
p51
NsS'novaldex'
p52
NsS'amoxicilline'
p53
NsS'ici_35868'
p54
NsS'sevoflurane'
p55
NsS'teturam'
p56
NsS'csa_neoral'
p57
NsS'bmy28689'
p58
NsS'cytoxan'
p59
NsS'debat__f\xe3\xa9nofibrate'
p60
NsS'f\xe3\xa9nofibrate_debat'
p61
NsS'ribamide'
p62
NsS'nsc_141540'
p63
NsS'ursobilane'
p64
NsS'urso'
p65
NsS'decostriol'
p66
NsS'metadate'
p67
NsS'gen_baclofen'
p68
NsS'sdz202_250'
p69
NsS'adrimedac'
p70
NsS'fluocinolone_acetonide'
p71
NsS'5_fu_lederle'
p72
NsS'tampovagan'
p73
NsS'dicesium_salt_methotrexate'
p74
NsS'gefitinib'
p75
NsS'lipidil'
p76
NsS'ethanol'
p77
NsS'cgp2175'
p78
NsS'triclosan'
p79
NsS'hydramycin'
p80
NsS'noroxin'
p81
NsS'bis(diethylthiocarbamoyl)_disulfide'
p82
NsS'anacin_3'
p83
NsS'sulfate__vincristine'
p84
NsS'sulfate__amphetamine'
p85
NsS'ethinyl_estradiol__(8_alpha_9_beta_13_alpha_14_beta)_isomer'
p86
NsS'lyovac_cosmegen'
p87
NsS'baclospas'
p88
NsS'nicotine_tartrate'
p89
NsS'ivermectin'
p90
NsS'mithramycin'
p91
NsS'irgasan_dp300'
p92
NsS'methotrexate__sodium_salt'
p93
NsS'ritalin_sr'
p94
NsS'desferrioxamine_b'
p95
NsS'cis_diamminedichloroplatinum'
p96
NsS'vitamin_b9'
p97
NsS'thiamine'
p98
NsS'antabus'
p99
NsS'5_fu_medac'
p100
NsS'niacin_potassium_salt'
p101
NsS'diethylstilbestrol__(z)_isomer'
p102
NsS'permethrin__(1s_cis)_isomer'
p103
NsS'gp_45_840'
p104
NsS'arsenic_trioxide'
p105
NsS'testopel'
p106
NsS'nsc_125973'
p107
NsS'sdz_202_250'
p108
NsS'apap'
p109
NsS's_3151'
p110
NsS'sapoderm'
p111
NsS'mk0366'
p112
NsS'clamoxyl_g.a.'
p113
NsS'phenamine'
p114
NsS'5_fluorouracil'
p115
NsS'azu__fenofibrat'
p116
NsS'permethrin__(1r_cis)_isomer'
p117
NsS'calcitriol_kyramed'
p118
NsS'ro_43780'
p119
NsS'isoflurane'
p120
NsS'everolimus'
p121
NsS'brl_2333'
p122
NsS'ranolazine'
p123
NsS'lopressor'
p124
NsS'tricor'
p125
NsS'estradiol__(17_alpha)_isomer'
p126
NsS'permethrin'
p127
NsS'folic_acid__potassium_salt'
p128
NsS'periostat'
p129
NsS'metoprolol'
p130
NsS'decitabine'
p131
NsS'mifegyne'
p132
NsS'retin_a'
p133
NsS'mannitol'
p134
NsS'ursodeoxycholic_acid'
p135
NsS'farmiblastina'
p136
NsS'titanium_dioxide'
p137
NsS'jm_8'
p138
NsS'quetiapine'
p139
NsS'mk_933'
p140
NsS'colchicine'
p141
NsS'cosmegen_lyovac'
p142
NsS'doxorubicin_nc'
p143
NsS'fulvestrant'
p144
NsS'permethrin__(trans)_isomer'
p145
NsS'sodium_salt__tretinoin'
p146
NsS'am_715'
p147
NsS'carbosin'
p148
NsS'folic_acid__monopotassium_salt'
p149
NsS'estradiol__(8_alpha_17_beta)_isomer'
p150
NsS'b_518'
p151
NsS'sulfate__bleomycin'
p152
NsS'lilly_110140'
p153
NsS'tretinoin_sodium_salt'
p154
NsS'ferrous_ascorbate'
p155
NsS'dh_581'
p156
NsS'adriablastine'
p157
NsS'calcitriol'
p158
NsS'morphine'
p159
NsS'awd__baclofen'
p160
NsS'sandimmun_neoral'
p161
NsS'doxycycline_hemiethanolate'
p162
NsS'morphine_sulfate'
p163
NsS'levo_amphetamine'
p164
NsS'sorafenib'
p165
NsS'decaject'
p166
NsS'letrozole'
p167
NsS'ici_46_474'
p168
NsS'niacin_zinc_salt'
p169
NsS'alcohol__rubbing'
p170
NsS'acid__all_trans_retinoic'
p171
NsS'salt__tretinoin_sodium'
p172
NsS'alcohol__ethyl'
p173
NsS'vupral'
p174
NsS'lithium_nicotinate'
p175
NsS'dipyridamole'
p176
NsS'ozidia'
p177
NsS'procytox'
p178
NsS'desferioximine'
p179
NsS'(l)_mannitol'
p180
NsS'flucinar'
p181
NsS'tocilizumab'
p182
NsS'leponex'
p183
NsS'thiamine_mononitrate'
p184
NsS'folate'
p185
NsS'cis_permethrin'
p186
NsS'1_25_dihydroxy_20_epi_vitamin_d3'
p187
NsS'farmistin'
p188
NsS'doxycycline_monohydrate'
p189
NsS'amfetamine'
p190
NsS'lympholysin'
p191
NsS'levoamphetamine'
p192
NsS'cyclophosphamide'
p193
NsS'betaloc'
p194
NsS'2_6_bis(1_methylethyl)phenol'
p195
NsS'pyrazinamide'
p196
NsS'atrofen'
p197
NsS'ezetimibe'
p198
NsS'aneurin'
p199
NsS'cyclosporine_a'
p200
NsS'celecoxib'
p201
NsS'zinc_acetate'
p202
NsS'desferroxamine'
p203
NsS'nicocap'
p204
NsS'glupitel'
p205
NsS'norfloxacin'
p206
NsS'paclitaxel'
p207
NsS'hexadrol'
p208
NsS'dipropyl_acetate'
p209
NsS'procetofen__antara_micronized'
p210
NsS'cellcristin'
p211
NsS'anapriline'
p212
NsS'(m_phenoxybenzyl)_cis_trans_3_(2_2_dichlorovinyl)_2_2_dimethylcyclopropanecarboxylate'
p213
NsS'nicotine'
p214
NsS'niacin_magnesium_salt'
p215
NsS'bortezomib'
p216
NsS'methotrexate__dicesium_salt'
p217
NsS'ethinyl_estradiol__(8_alpha)_isomer'
p218
NsS'irgasan_dp_300'
p219
NsS'ethinylestradiol_jenapharm'
p220
NsS'progynova'
p221
NsS'methotrexate'
p222
NsS'estradiol__sodium_salt'
p223
NsS'ribavirin'
p224
NsS'glypidizine'
p225
NsS'miostat'
p226
NsS'nsc241240'
p227
NsS'sodium_ursodeoxycholate'
p228
NsS'sandimmun'
p229
NsS'estradiol__(+_)_isomer'
p230
NsS'2_naphthacenecarboxamide__4_(dimethylamino)_1_4_4a_5_5a_6_11_12a_octahydro_3_5_10_12_12a_pentahydroxy_6_methyl_1_11_dioxo___(4s_(4alpha_4aalpha_5alpha_5aalpha_6alpha_12aalpha))_'
p231
NsS'nico400'
p232
NsS'beloc_duriles'
p233
NsS'eposin'
p234
NsS'doxorubicina_funk'
p235
NsS'ro_4_3780'
p236
NsS'nsc_3088'
p237
NsS'etanercept'
p238
NsS'medroxyprogesterone_17_acetate'
p239
NsS'retinoic_acid'
p240
NsS'candesartan'
p241
NsS'lofibra'
p242
NsS'bleomycin_a2'
p243
NsS'alpha_6_deoxyoxytetracycline'
p244
NsS'dexamethasone'
p245
NsS'derma_smooth_fs'
p246
NsS'capreomycin_sulfate'
p247
NsS'lorelco'
p248
NsS'renatriol'
p249
NsS'2_propanol'
p250
NsS'p_hydroxyacetanilide'
p251
NsS'1_alpha__25_dihydroxy_20_epi_vitamin_d3'
p252
NsS'fenofibrat_hexal'
p253
NsS'aquafol'
p254
NsS'oxandrolone'
p255
NsS'dopar'
p256
NsS'ba34647'
p257
NsS'neocarbo'
p258
NsS'zinc_acetate_dihydrate'
p259
NsS'ethyl_alcohol'
p260
NsS'bu_3839t'
p261
NsS'antistenocardin'
p262
NsS'mesylate__deferoxamine'
p263
NsS'colchicine__(r)_isomer'
p264
NsS'6_alpha_methyl_17alpha_hydroxyprogesterone_acetate'
p265
NsS'sunitinib'
p266
NsS'eqvalan'
p267
NsS'estradiol_anhydrous'
p268
NsS'temozolomide'
p269
NsS'propranolol'
p270
NsS'ru38486'
p271
NsS'ciba34_647ba'
p272
NsS'ciprofloxacin'
p273
NsS'heparinic_acid'
p274
NsS'methanesulfonate__deferoxamine'
p275
NsS'zk_98296'
p276
NsS'cyclopropanecarboxylic_acid__3_(2_2_dichloroethenyl)_2_2_dimethyl___(3_phenoxyphenyl)methyl_ester'
p277
NsS'jellisoft'
p278
NsS'certolizumab_pegol'
p279
NsS'csaneoral'
p280
NsS'zinc_sulfate'
p281
NsS'folic_acid'
p282
NsS'mc1288'
p283
NsS'amoxicillin_anhydrous'
p284
NsS'bleomycin'
p285
NsS'melizide'
p286
NsS'morphine_sulfate_(2:1)__anhydrous'
p287
NsS'cb1348'
p288
NsS'ursofalk'
p289
NsS'vitamin_b_1'
p290
NsS'acid__trans_retinoic'
p291
NsS'lf_178'
p292
NsS'zk98296'
p293
NsS'lipidil_ter'
p294
NsS'bellon__bl\xe3\xa9omycine'
p295
NsS'glidiazinamide'
p296
NsS'fluortriamcinolone_acetonide'
p297
NsS'methylfluorprednisolone'
p298
NsS'novo_dipiradol'
p299
NsS'baclof\xe3\xa8neirex'
p300
NsS'deferoxamine_mesilate'
p301
NsS'sc11585'
p302
NsS'apo_baclofen'
p303
NsS'fluorouracil_gry'
p304
NsS'nrdc143'
p305
NsS'disoprivan'
p306
NsS'eto_gry'
p307
NsS'mtw_fenofibrat'
p308
NsS'sodium_salt__niacin'
p309
NsS'mif\xe3\xa9gyne'
p310
NsS'oestradiol'
p311
NsS'tylenol'
p312
NsS'cis_diamminedichloroplatinum(ii)'
p313
NsS'niacin_lithium_salt__hemihydrate'
p314
NsS'(3_beta_5z_7e)_9_10_secocholesta_5_7_10(19)_trien_3_ol'
p315
NsS'niacin_hydrochloride'
p316
NsS'cytophosphane'
p317
NsS'sulfate__zinc'
p318
NsS'platidiam'
p319
NsS'amoxicillin_trihydrate'
p320
NsS'haemato_fu'
p321
NsS'clozapine'
p322
NsS'nu_fenofibrate'
p323
NsS'7_epi_taxol'
p324
NsS'bleomycin_b2'
p325
NsS'13_cis_retinoic_acid'
p326
NsS'metoprolol_tartrate'
p327
NsS'co_fluocin'
p328
NsS'methylphenidate'
p329
NsS'doxycycline_calcium'
p330
NsS'vibra_tabs'
p331
NsS'troglitazone'
p332
NsS'disulfiram'
p333
NsS'ay_22989'
p334
NsS'cis_dichlorodiammineplatinum(ii)'
p335
NsS'doxorubicine_baxter'
p336
NsS'methotrexate_hydrate'
p337
NsS'olanzapine'
p338
NsS'etoposide__(5s)_isomer'
p339
NsS'estradiol_17_beta'
p340
NsS'cl\xe3\xa9ridium'
p341
NsS'deoxyursocholic_acid'
p342
NsS'hydrochloride__propranolol'
p343
NsS'ethynyl_estradiol'
p344
NsS'zincteral'
p345
NsS'vincasar'
p346
NsS'metipred'
p347
NsS'cetuximab'
p348
NsS'demethyl_epipodophyllotoxin_ethylidine_glucoside'
p349
NsS'bleo_cell'
p350
NsS'tobramycin'
p351
NsS'pcp_gaba'
p352
NsS'enzalutamide'
p353
NsS'ascorbic_acid'
p354
NsS'duramorph'
p355
NsS'kurantil'
p356
NsS'vemurafenib'
p357
NsS'doryx'
p358
NsS'ascorbate__ferrous'
p359
NsS'capex'
p360
NsS'vorinostat'
p361
NsS'all_trans_retinoic_acid'
p362
NsS'alpha_heparin'
p363
NsS'1_25_dihydroxycholecalciferol'
p364
NsS'5_fluorouracil_biosyn'
p365
NsS'diclofenac_potassium'
p366
NsS'menadione'
p367
NsS'heparin__sodium'
p368
NsS'hydrochloride_anhydrous__ciprofloxacin'
p369
NsS'trovafloxacin'
p370
NsS'bay_09867'
p371
NsS'onkoposid'
p372
NsS'ethinyl_oestradiol_effik'
p373
NsS'h_93_26'
p374
NsS'gemcitabine'
p375
NsS'feloran'
p376
NsS'5_hu_hexal'
p377
NsS'3_hydroxy_l_tyrosine'
p378
NsS'fenofibrat_fph'
p379
NsS'anavar'
p380
NsS'metoprolol_cr_xl'
p381
NsS'estradiol_valerate'
p382
NsS'lopirin'
p383
NsS'minidiab'
p384
NsS'sodium_heparin'
p385
NsS'diethylstilbestrol'
p386
NsS'hydrochloride__niacin'
p387
NsS'histerone'
p388
NsS'levopa'
p389
NsS'vincristine'
p390
NsS'brulamycin'
p391
NsS'genbaclofen'
p392
NsS'bocatriol'
p393
NsS'progynon_c'
p394
NsS'hydrocortisone__(11_alpha)_isomer'
p395
NsS'lipantil'
p396
NsS'ici47699'
p397
NsS'acid__ascorbic'
p398
NsS'cholofalk'
p399
NsS'procetofen'
p400
NsS'ercar'
p401
NsS'sr_38'
p402
NsS'l_dopa'
p403
NsS'methylprednisolone'
p404
NsS'adriamycin'
p405
NsS'fluorouracil'
p406
NsS'fluorouracile_dakota'
p407
NsS'taxol__bris'
p408
NsS'tersaseptic'
p409
NsS'fresofol'
p410
NsS'calcitriol_nefro'
p411
NsS'glipizide'
p412
NsS'sr38'
p413
NsS'progynon_depot'
p414
NsS'datril'
p415
NsS'etoposide__alpha_d_glucopyranosyl_isomer'
p416
NsS'sq_14_534'
p417
NsS'doxo_cell'
p418
NsS'beta_all_trans_retinoic_acid'
p419
NsS'cyclophosphamide_monohydrate'
p420
NsS'acetonide__fluortriamcinolone'
p421
NsS'synamol'
p422
NsS'carboplatin'
p423
NsS'vincristin_medac'
p424
NsS'pemetrexed'
p425
NsS'meractinomycin'
p426
NsS'retinol'
p427
NsS'betaloc_astra'
p428
NsS'b518'
p429
NsS'amoxicillin'
p430
NsS'androgel'
p431
NsS'ay_22_989'
p432
NsS'ici_47699'
p433
NsS'ascorbate__sodium'
p434
NsS'apo_feno_micro'
p435
NsS'tosylate__niacin'
p436
NsS'fluorouracil_potassium_salt'
p437
NsS'microfollin_forte'
p438
NsS'sodium__methotrexate'
p439
NsS'biphenabid'
p440
NsS'osmofundin'
p441
NsS'8_isotestosterone'
p442
NsS'curretab'
p443
NsS'doxycycline'
p444
NsS'magnesium_di_l_ascorbate'
p445
NsS'aluminum_salt__niacin'
p446
NsS'persantine'
p447
NsS'rosiglitazone'
p448
NsS'microshield_t'
p449
NsS'myocet'
p450
NsS'magnesium_valproate'
p451
NsS'17_beta_oestradiol'
p452
NsS'fluoruracil'
p453
NsS'oxacillin__sodium'
p454
NsS'ici46_474'
p455
NsS'deferoxamine_methanesulfonate'
p456
NsS'propofol_lipuro'
p457
NsS'icn1229'
p458
NsS'l_ascorbic_acid'
p459
NsS'2_4_4__trichloro_2__hydroxydiphenyl_ether'
p460
NsS'divalproex'
p461
NsS'levetiracetam'
p462
NsS'pioglitazone'
p463
NsS'dactinomycin'
p464
NsS'novo_fenofibrate'
p465
NsS'nicotinate__lithium'
p466
NsS'carbacholine'
p467
NsS'lebic'
p468
NsS'amoxicillin_monosodium_salt'
p469
NsS'curantyl'
p470
NsS'doxorubicin_hexal'
p471
NsS'blenoxane'
p472
NsS'ici_46474'
p473
NsS'nebicin'
p474
NsS'etopos'
p475
NsS'ster_zac_bath_concentrate'
p476
NsS'silkis'
p477
NsS'vincrisul'
p478
NsS'magnorbin'
p479
NsS'voltaren'
p480
NsS'irinotecan'
p481
NsS'estradiol__(9_beta_17_beta)_isomer'
p482
NsS'pms_baclofen'
p483
NsS'panavir'
p484
NsS'isopto_carbachol'
p485
NsS'amphetamine_sulfate'
p486
NsS'acephen'
p487
NsS'obsidan'
p488
NsS'tobracin'
p489
NsS'cya_nof'
p490
NsS'rexigen'
p491
NsS'onkocristin'
p492
NsS'avlocardyl'
p493
NsS'fluoxetine_hydrochloride'
p494
NsS'captopril'
p495
NsS'isotretinoin'
p496
NsS'chlorbutin'
p497
NsS'diclofenac__sodium'
p498
NsS'delestrogen'
p499
NsS'polymyxin_b_sulfate'
p500
NsS'progesterone__(13_alpha_17_alpha)_(+_)_isomer'
p501
NsS'sirolimus'
p502
NsS'clamoxyl'
p503
NsS'nicotinic_acid'
p504
NsS'cortifair'
p505
NsS'capreomycin'
p506
NsS'doxycycline_monohydrochloride__6_epimer'
p507
NsS'synalar_hp'
p508
NsS'pms_fenofibrate_micro'
p509
NsS'platino'
p510
NsS'rapamune'
p511
NsS'fenofanton'
p512
NsS'fluodermo'
p513
NsS'tretinoin'
p514
NsS'disulfide__tetraethylthiuram'
p515
NsS'cgp_2175'
p516
NsS'propofol_abbott'
p517
NsS'penamox'
p518
NsS'oradexon'
p519
NsS'isotretinoin_zinc_salt__13_cis_isomer'
p520
NsS'lf178'
p521
NsS'ursolite'
p522
NsS'fmc_33297'
p523
NsS'hydroquinone'
p524
NsS'panadol'
p525
NsS'nsc3088'
p526
NsS'bl\xe3\xa9omycine_bellon'
p527
NsS'vitamin_a'
p528
NsS'cisplatin'
p529
NsS'v\xe3\xa9p\xe3\xa9side_sandoz'
p530
NsS'dexpropranolol'
p531
NsS'tetraethylthioperoxydicarbonic_diamide__((h2n)c(s))2s2'
p532
NsS'obracin'
p533
NsS'dichlorodiammineplatinum'
p534
NsS'sq14_534'
p535
NsS'trimox'
p536
NsS'teva__etoposide'
p537
NsS'mk_0366'
p538
NsS'nu_baclo'
p539
NsS'andropatch'
p540
NsS'chlorambucil'
p541
NsS'nsc125973'
p542
NsS'veramix'
p543
NsS'medroxyprogesterone_17_acetate__(6_alpha_17_alpha)_isomer'
p544
NsS'nico_400'
p545
NsS'amoxycillin'
p546
NsS'monohydrate__ciprofloxacin_monohydrochloride'
p547
NsS'cliniclean'
p548
NsS'biocisplatinum'
p549
NsS'3_phenoxybenzyl_cis_trans_(1rs)_3_(2_2_dichlorovinyl)_2_2_dimethylcyclopropanecarboxylate'
p550
NsS'ribocarbo'
p551
NsS'morphia'
p552
NsS'etoposide'
p553
NsS'vibramycin'
p554
NsS'lilly110140'
p555
NsS'anzatax'
p556
NsS'actinomycin_d'
p557
NsS'novapirina'
p558
NsS'orthophen'
p559
NsS'concerta'
p560
NsS'r_38486'
p561
NsS'probucol'
p562
NsS'vepesid'
p563
NsS'adriblastine'
p564
NsS'trans_permethrin'
p565
NsS'acid__deoxyursocholic'
p566
NsS'nittifor'
p567
NsS'acid__ursodeoxycholic'
p568
NsS'ay_20694'
p569
NsS'gestapuran'
p570
NsS'lior\xe3\xa9sal'
p571
NsS'vitamin_d3'
p572
NsS'mc_1288'
p573
NsS'estradiol__ethynyl'
p574
NsS'hydrocortisone'
p575
NsS'stilbene_estrogen'
p576
NsS'diclofenac'
p577
NsS'carbastat'
p578
NsS'estinyl'
p579
NsS'sdz_202250'
p580
NsS'ursacholic_acid'
p581
NsS'soltriol'
p582
NsS'propofol'
p583
NsS'virazide'
p584
NsS'heumann__fenofibrat'
p585
NsS'n_(4_hydroxyphenyl)acetanilide'
p586
NsS'fenofibrat_ratiopharm'
p587
NsS'folic_acid__(dl)_isomer'
p588
NsS'toprol'
p589
NsS'6_methylprednisolone'
p590
NsS'permethrin__(cis)_isomer'
p591
NsS'deferoxamine'
p592
NsS'cyclophosphamide__(s)_isomer'
p593
NsS'doxycycline_phosphate_(1:1)'
p594
NsS'sc_11585'
p595
NsS'ici35868'
p596
NsS'estradiol__(16_alpha_17_alpha)_isomer'
p597
NsS'penicillin__methylphenylisoxazolyl'
p598
NsS'clofen'
p599
NsS'mifepristone'
p600
NsS'oxacillin__monosodium_salt__anhydrous'
p601
NsS'valproate'
p602
NsS'(s)_1_(3_mercapto_2_methyl_1_oxopropyl)_l_proline'
p603
NsS'apo_dipyridamole'
p604
NsS'heparin'
p605
NsS'3_pyridinecarboxylic_acid'
p606
NsS'1_alpha_25_dihydroxycholecalciferol'
p607
NsS'testosterone'
p608
NsS'sodium_oxacillin'
p609
NsS'fenofibrate'
p610
NsS'convulsofin'
p611
NsS'fenofibrat_azu'
p612
NsS'icn_1229'
p613
NsS'zitazonium'
p614
NsS'etoposide__(5a_alpha_9_alpha)_isomer'
p615
NsS'niacin_tartrate'
p616
NsS'chloride__morphine'
p617
NsS'deferasirox'
p618
NsS'praxel'
p619
NsS'paclitaxel__(4_alpha)_isomer'
p620
NsS'carboptic'
p621
NsS'l_amphetamine'
p622
NsS'nrdc_143'
p623
NsS'depo_medroxyprogesterone_acetate'
p624
NsS'carbachol'
p625
NsS'plicamycin'
p626
NsS'4_(bis(2_chloroethyl)amino)benzenebutanoic_acid'
p627
NsS'ciprofloxacin_monohydrochloride_monohydrate'
p628
NsS'propofol_mct'
p629
NsS'oxacillin'
p630
NsS'agostilben'
p631
NsS'semisodium_valproate'
p632
NsS'sq14534'
p633
NsS'prozac'
p634
NsS'bleomicina'
p635
NsS'paraplatin'
p636
NsS'decaject_l.a.'
p637
NsS'decaspray'
p638
NsS'alcophobin'
p639
NsS'neoral'
p640
NsS'nia_33297'
p641
NsS'flurosyn'
p642
NsS'pp_557'
p643
NsS'aquasept'
p644
NsS'depoprovera'
p645
NsS'depakine'
p646
NsS'spesicor'
p647
NsS'ba_34647'
p648
NsS'mycophenolate_mofetil'
p649
NsS'efudix'
p650
NsS'rituximab'
p651
NsS'docetaxel'
p652
NsS'fenofibrat_von_ct'
p653
NsS'flurodex'
p654
NsS'sq_14534'
p655
NsS'cortril'
p656
NsS'methylphenidate_hydrochloride'
p657
NsS'ru_38486'
p658
NsS'ol_27_400'
p659
NsS'testoderm'
p660
NsS'doxorubicin'
p661
NsS'fluoro_uracile_icn'
p662
NsS'permethrin__trans_(1rs)_isomer'
p663
NsS'sulfate__morphine'
p664
NsS'tsentedrin'
p665
NsS'dakota__fluorouracile'
p666
NsS'urokit_doxo_cell'
p667
NsS'imatinib'
p668
NsS'haloperidol'
p669
NsS'ursodeoxycholate__sodium'
p670
NsS'vitamin_e'
p671
NsS'11_epicortisol'
p672
NsS'fmc33297'
p673
NsS'zoledronate'
p674
NsS'ribovirin'
p675
NsS'carbamoylcholine'
p676
NsS'isopropyl_alcohol'
p677
NsS'oncovine'
p678
NsS'ribamidyl'
p679
NsS'vp_16'
p680
NsS'fluorouracil_monopotassium_salt'
p681
NsS'bmy_28689'
p682
NsS'zinc_salt__tretinoin'
p683
NsS'bay09867'
p684
NsS'vp_16_213'
p685
NsS'vitamin_c'
p686
NsS'nsc_26271'
p687
NsS'17_beta_hydroxy_4_androsten_3_one'
p688
NsS'baclof\xe3\xa8ne_irex'
p689
NsS'acetaminophen'
p690
NsS'mk933'
p691
NsS'baclofen'
p692
NsS'dexpak'
p693
NsS'estradiol_hemihydrate'
p694
NsS'ritaline'
p695
NsS'acid__retinoic'
p696
NsS'b9__vitamin'
p697
NsS'sustanon'
p698
NsS'progesterone__(9_beta_10_alpha)_isomer'
p699
NsS'valproic_acid'
p700
NsS'valproate_calcium'
p701
NsS'onkofluor'
p702
NsS'all_trans_retinol'
p703
NsS'toprol_xl'
p704
NsS'etoposide_pierre_fabre'
p705
NsS'amphetamine'
p706
NsS'trans_retinoic_acid'
p707
NsS'estraderm_tts'
p708
NsS'nsc26271'
p709
NsS'medroxyprogesterone_acetate'
p710
NsS'bexarotene'
p711
NsS'jenapharm__ethinylestradiol'
p712
NsS'cholecalciferols'
p713
NsS'levodopa'
p714
NsS'lastet'
p715
NsS'equasym'
p716
Ns.