(dp0
S'distilb\xe3\xa8ne'
p1
NsS'methylphenylisoxazolyl_penicillin'
p2
NsS'telmisartan'
p3
NsS'tamoxifen'
p4
NsS'3_7_dimethyl_9_(2_6_6_trimethyl_1_cyclohexen_1_yl)_2_4_6_8_nonatetraen_1_ol__(all_e)_isomer'
p5
NsS'stromectol'
p6
NsS'lubiprostone'
p7
NsS'beta_(aminomethyl)_4_chlorobenzenepropanoic_acid'
p8
NsS'trastuzumab'
p9
NsS'niacin'
p10
NsS'folvite'
p11
NsS'3_alpha_7_beta_dihydroxy_5_beta_cholan_24_oic_acid'
p12
NsS'bleomycins'
p13
NsS'vesanoid'
p14
NsS'adrucil'
p15
NsS'gelidina'
p16
NsS'ethinyl_estradiol'
p17
NsS'pregn_4_ene_3_20_dione__17_(acetyloxy)_6_methyl___(6alpha)_'
p18
NsS'phisohex'
p19
NsS'deferrioxamine_b'
p20
NsS'tamoxifen_citrate'
p21
NsS'normalip'
p22
NsS'fluoxetine'
p23
NsS'cholecalciferol'
p24
NsS'galzin'
p25
NsS'd3__1_25_dihydroxyvitamin'
p26
NsS'estradiol'
p27
((F1.0
S'polyestradiol_phosphate'
p28
tp29
S"(st) matching: ratio , lcs, (key,drug) (keynorm,drugnorm 1.0 estradiol ('estradiol', 'polyestradiol_phosphate') ('estradiol', 'polyestradiol_phosphate')"
p30
tp31
sS'stada__fenofibrat'
p32
NsS'gen_fenofibrate'
p33
NsS'2_propylpentanoic_acid'
p34
NsS'algotropyl'
p35
NsS'niacin_ammonium_salt'
p36
NsS'cbdca'
p37
NsS'k_4024'
p38
NsS'diclophenac'
p39
NsS'desoxynorephedrin'
p40
NsS'cyclosporine'
p41
NsS'i_2190a'
p42
NsS'progesterone'
p43
NsS'magnesium_ascorbate'
p44
NsS'nsc_241240'
p45
NsS'propanolol'
p46
NsS'ciprofloxacin_hydrochloride_anhydrous'
p47
NsS'cb_1348'
p48
NsS'alitretinoin'
p49
NsS'methotrexate__(d)_isomer'
p50
NsS'absolute_alcohol'
p51
NsS'acetamidophenol'
p52
NsS'vilona'
p53
NsS'niacin_cobalt_(2+)_salt'
p54
NsS'novaldex'
p55
NsS'amoxicilline'
p56
NsS'ici_35868'
p57
NsS'sevoflurane'
p58
NsS'csa_neoral'
p59
NsS'bmy28689'
p60
NsS'cytoxan'
p61
NsS'debat__f\xe3\xa9nofibrate'
p62
NsS'f\xe3\xa9nofibrate_debat'
p63
NsS'ribamide'
p64
NsS'nsc_141540'
p65
NsS'ursobilane'
p66
NsS'urso'
p67
NsS'decostriol'
p68
NsS'metadate'
p69
NsS'gen_baclofen'
p70
NsS'sdz202_250'
p71
NsS'fluocinolone_acetonide'
p72
NsS'5_fu_lederle'
p73
NsS'tampovagan'
p74
NsS'dicesium_salt_methotrexate'
p75
NsS'gefitinib'
p76
NsS'lipidil'
p77
NsS'ethanol'
p78
NsS'cgp2175'
p79
NsS'triclosan'
p80
NsS'hydramycin'
p81
NsS'noroxin'
p82
NsS'anacin_3'
p83
NsS'sulfate__amphetamine'
p84
NsS'ethinyl_estradiol__(8_alpha_9_beta_13_alpha_14_beta)_isomer'
p85
NsS'lyovac_cosmegen'
p86
NsS'baclospas'
p87
NsS'nicotine_tartrate'
p88
NsS'ivermectin'
p89
NsS'mithramycin'
p90
NsS'irgasan_dp300'
p91
NsS'methotrexate__sodium_salt'
p92
NsS'ritalin_sr'
p93
NsS'desferrioxamine_b'
p94
NsS'lilly110140'
p95
NsS'vitamin_b9'
p96
NsS'thiamine'
p97
NsS'5_fu_medac'
p98
NsS'niacin_potassium_salt'
p99
NsS'diethylstilbestrol__(z)_isomer'
p100
NsS'permethrin__(1s_cis)_isomer'
p101
NsS'gp_45_840'
p102
NsS'arsenic_trioxide'
p103
NsS'testopel'
p104
NsS'sdz_202_250'
p105
NsS'apap'
p106
NsS's_3151'
p107
NsS'zithromax'
p108
NsS'mk0366'
p109
NsS'obsidan'
p110
NsS'phenamine'
p111
NsS'5_fluorouracil'
p112
NsS'azu__fenofibrat'
p113
NsS'permethrin__(1r_cis)_isomer'
p114
NsS'calcitriol_kyramed'
p115
NsS'ro_43780'
p116
NsS'isoflurane'
p117
NsS'testosterone'
p118
NsS'brl_2333'
p119
NsS'ranolazine'
p120
NsS'lopressor'
p121
NsS'sodium_oxacillin'
p122
NsS'permethrin'
p123
NsS'folic_acid__potassium_salt'
p124
NsS'periostat'
p125
NsS'metoprolol'
p126
NsS'mifegyne'
p127
NsS'retin_a'
p128
NsS'mannitol'
p129
NsS'ursodeoxycholic_acid'
p130
NsS'2_propanol'
p131
NsS'titanium_dioxide'
p132
NsS'jm_8'
p133
NsS'quetiapine'
p134
NsS'mk_933'
p135
NsS'cosmegen_lyovac'
p136
NsS'isopropylnoradrenaline'
p137
NsS'fulvestrant'
p138
NsS'permethrin__(trans)_isomer'
p139
NsS'sodium_salt__tretinoin'
p140
NsS'am_715'
p141
NsS'carbosin'
p142
NsS'folic_acid__monopotassium_salt'
p143
NsS'zinc_acetate'
p144
NsS'b_518'
p145
NsS'sulfate__bleomycin'
p146
NsS'lilly_110140'
p147
NsS'tretinoin_sodium_salt'
p148
NsS'ferrous_ascorbate'
p149
NsS'diclofenac__sodium'
p150
NsS'neocarbo'
p151
NsS'calcitriol'
p152
NsS'morphine'
p153
NsS'awd__baclofen'
p154
NsS'sandimmun_neoral'
p155
NsS'zitazonium'
p156
NsS'morphine_sulfate'
p157
NsS'levo_amphetamine'
p158
NsS'sorafenib'
p159
NsS'decaject'
p160
NsS'letrozole'
p161
NsS'ici_46_474'
p162
NsS'niacin_zinc_salt'
p163
NsS'alcohol__rubbing'
p164
NsS'acid__all_trans_retinoic'
p165
NsS'salt__tretinoin_sodium'
p166
NsS'alcohol__ethyl'
p167
NsS'vupral'
p168
NsS'lithium_nicotinate'
p169
NsS'dipyridamole'
p170
NsS'ozidia'
p171
NsS'procytox'
p172
NsS'desferioximine'
p173
NsS'(l)_mannitol'
p174
NsS'flucinar'
p175
NsS'tocilizumab'
p176
NsS'leponex'
p177
NsS'thiamine_mononitrate'
p178
NsS'folate'
p179
NsS'cis_permethrin'
p180
NsS'1_25_dihydroxy_20_epi_vitamin_d3'
p181
NsS'farmistin'
p182
NsS'doxycycline_monohydrate'
p183
NsS'amfetamine'
p184
NsS'minidiab'
p185
NsS'levoamphetamine'
p186
NsS'betaloc'
p187
NsS'2_6_bis(1_methylethyl)phenol'
p188
NsS'pyrazinamide'
p189
NsS'atrofen'
p190
NsS'ezetimibe'
p191
NsS'aneurin'
p192
NsS'cyclosporine_a'
p193
NsS'celecoxib'
p194
NsS'nrdc_143'
p195
NsS'nicocap'
p196
NsS'glupitel'
p197
NsS'norfloxacin'
p198
NsS'hexadrol'
p199
NsS'dipropyl_acetate'
p200
NsS'procetofen__antara_micronized'
p201
NsS'cellcristin'
p202
NsS'anapriline'
p203
NsS'(m_phenoxybenzyl)_cis_trans_3_(2_2_dichlorovinyl)_2_2_dimethylcyclopropanecarboxylate'
p204
NsS'nicotine'
p205
NsS'azithromycin_monohydrate'
p206
NsS'niacin_magnesium_salt'
p207
NsS'bortezomib'
p208
NsS'methotrexate__dicesium_salt'
p209
NsS'ethinyl_estradiol__(8_alpha)_isomer'
p210
NsS'irgasan_dp_300'
p211
NsS'ethinylestradiol_jenapharm'
p212
NsS'methotrexate'
p213
NsS'ribavirin'
p214
NsS'miostat'
p215
NsS'nsc241240'
p216
NsS'sodium_ursodeoxycholate'
p217
NsS'sandimmun'
p218
NsS'2_naphthacenecarboxamide__4_(dimethylamino)_1_4_4a_5_5a_6_11_12a_octahydro_3_5_10_12_12a_pentahydroxy_6_methyl_1_11_dioxo___(4s_(4alpha_4aalpha_5alpha_5aalpha_6alpha_12aalpha))_'
p219
NsS'nico400'
p220
NsS'beloc_duriles'
p221
NsS'eposin'
p222
NsS'ro_4_3780'
p223
NsS'nsc_3088'
p224
NsS'etanercept'
p225
NsS'medroxyprogesterone_17_acetate'
p226
NsS'retinoic_acid'
p227
NsS'candesartan'
p228
NsS'novodrin'
p229
NsS'lofibra'
p230
NsS'bleomycin_a2'
p231
NsS'alpha_6_deoxyoxytetracycline'
p232
NsS'dexamethasone'
p233
NsS'derma_smooth_fs'
p234
NsS'capreomycin_sulfate'
p235
NsS'lorelco'
p236
NsS'renatriol'
p237
NsS'monohydrate__azithromycin'
p238
NsS'p_hydroxyacetanilide'
p239
NsS'1_alpha__25_dihydroxy_20_epi_vitamin_d3'
p240
NsS'fenofibrat_hexal'
p241
NsS'predate'
p242
NsS'aquafol'
p243
NsS'isadrin'
p244
NsS'oxandrolone'
p245
NsS'dopar'
p246
NsS'ba34647'
p247
NsS'isoproterenol_hydrochloride'
p248
NsS'zinc_acetate_dihydrate'
p249
NsS'ethyl_alcohol'
p250
NsS'bu_3839t'
p251
NsS'antistenocardin'
p252
NsS'mesylate__deferoxamine'
p253
NsS'colchicine__(r)_isomer'
p254
NsS'6_alpha_methyl_17alpha_hydroxyprogesterone_acetate'
p255
NsS'sunitinib'
p256
NsS'eqvalan'
p257
NsS'temozolomide'
p258
NsS'propranolol'
p259
NsS'ru38486'
p260
NsS'ciba34_647ba'
p261
NsS'ciprofloxacin'
p262
NsS'heparinic_acid'
p263
NsS'methanesulfonate__deferoxamine'
p264
NsS'zk_98296'
p265
NsS'cyclopropanecarboxylic_acid__3_(2_2_dichloroethenyl)_2_2_dimethyl___(3_phenoxyphenyl)methyl_ester'
p266
NsS'jellisoft'
p267
NsS'certolizumab_pegol'
p268
NsS'csaneoral'
p269
NsS'zinc_sulfate'
p270
NsS'folic_acid'
p271
NsS'mc1288'
p272
NsS'amoxicillin_anhydrous'
p273
NsS'bleomycin'
p274
NsS'melizide'
p275
NsS'morphine_sulfate_(2:1)__anhydrous'
p276
NsS'cb1348'
p277
NsS'ursofalk'
p278
NsS'vitamin_b_1'
p279
NsS'acid__trans_retinoic'
p280
NsS'lf_178'
p281
NsS'zk98296'
p282
NsS'lipidil_ter'
p283
NsS'bellon__bl\xe3\xa9omycine'
p284
NsS'penamox'
p285
NsS'zinc_salt__tretinoin'
p286
NsS'fluortriamcinolone_acetonide'
p287
NsS'methylfluorprednisolone'
p288
NsS'novo_dipiradol'
p289
NsS'baclof\xe3\xa8neirex'
p290
NsS'deferoxamine_mesilate'
p291
NsS'sc11585'
p292
NsS'apo_baclofen'
p293
NsS'fluorouracil_gry'
p294
NsS'azithromycin'
p295
NsS'nrdc143'
p296
NsS'disoprivan'
p297
NsS'eto_gry'
p298
NsS'mtw_fenofibrat'
p299
NsS'sodium_salt__niacin'
p300
NsS'mif\xe3\xa9gyne'
p301
NsS'tylenol'
p302
NsS'niacin_lithium_salt__hemihydrate'
p303
NsS'(3_beta_5z_7e)_9_10_secocholesta_5_7_10(19)_trien_3_ol'
p304
NsS'niacin_hydrochloride'
p305
NsS'cytophosphane'
p306
NsS'sulfate__zinc'
p307
NsS'amoxicillin_trihydrate'
p308
NsS'haemato_fu'
p309
NsS'clozapine'
p310
NsS'nu_fenofibrate'
p311
NsS'bleomycin_b2'
p312
NsS'acetaminophen'
p313
NsS'13_cis_retinoic_acid'
p314
NsS'metoprolol_tartrate'
p315
NsS'co_fluocin'
p316
NsS'methylphenidate'
p317
NsS'doxycycline_calcium'
p318
NsS'vibra_tabs'
p319
NsS'troglitazone'
p320
NsS'ay_22989'
p321
NsS'etoposide__(5a_alpha_9_alpha)_isomer'
p322
NsS'fmc_33297'
p323
NsS'methotrexate_hydrate'
p324
NsS'hydroquinone'
p325
NsS'etoposide__(5s)_isomer'
p326
NsS'dihydrate__azithromycin'
p327
NsS'cl\xe3\xa9ridium'
p328
NsS'deoxyursocholic_acid'
p329
NsS'hydrochloride__propranolol'
p330
NsS'ethynyl_estradiol'
p331
NsS'zincteral'
p332
NsS'vincasar'
p333
NsS'metipred'
p334
NsS'vp_16_213'
p335
NsS'demethyl_epipodophyllotoxin_ethylidine_glucoside'
p336
NsS'bleo_cell'
p337
NsS'tobramycin'
p338
NsS'pcp_gaba'
p339
NsS'cp_62993'
p340
NsS'ascorbic_acid'
p341
NsS'duramorph'
p342
NsS'kurantil'
p343
NsS'vemurafenib'
p344
NsS'doryx'
p345
NsS'ascorbate__ferrous'
p346
NsS'capex'
p347
NsS'vorinostat'
p348
NsS'all_trans_retinoic_acid'
p349
NsS'alpha_heparin'
p350
NsS'1_25_dihydroxycholecalciferol'
p351
NsS'sapoderm'
p352
NsS'diclofenac_potassium'
p353
NsS'heparin__sodium'
p354
NsS'hydrochloride_anhydrous__ciprofloxacin'
p355
NsS'trovafloxacin'
p356
NsS'bay_09867'
p357
NsS'ethinyl_oestradiol_effik'
p358
NsS'h_93_26'
p359
NsS'gemcitabine'
p360
NsS'feloran'
p361
NsS'5_hu_hexal'
p362
NsS'3_hydroxy_l_tyrosine'
p363
NsS'fenofibrat_fph'
p364
NsS'anavar'
p365
NsS'bleomicina'
p366
NsS'metoprolol_cr_xl'
p367
NsS'bocatriol'
p368
NsS'lopirin'
p369
NsS'lympholysin'
p370
NsS'sodium_heparin'
p371
NsS'diethylstilbestrol'
p372
NsS'hydrochloride__niacin'
p373
NsS'histerone'
p374
NsS'levopa'
p375
NsS'vincristine'
p376
NsS'brulamycin'
p377
NsS'genbaclofen'
p378
NsS'progynon_c'
p379
NsS'lipantil'
p380
NsS'ici47699'
p381
NsS'acid__ascorbic'
p382
NsS'cholofalk'
p383
NsS'procetofen'
p384
NsS'ercar'
p385
NsS'sr_38'
p386
NsS'l_dopa'
p387
NsS'isuprel'
p388
NsS'fluorouracile_dakota'
p389
NsS'tersaseptic'
p390
NsS'fresofol'
p391
NsS'di_adreson_f'
p392
NsS'calcitriol_nefro'
p393
NsS'glipizide'
p394
NsS'sr38'
p395
NsS'datril'
p396
NsS'etoposide__alpha_d_glucopyranosyl_isomer'
p397
NsS'sq_14_534'
p398
NsS'beta_all_trans_retinoic_acid'
p399
NsS'cyclophosphamide_monohydrate'
p400
NsS'azythromycin'
p401
NsS'synamol'
p402
NsS'carboplatin'
p403
NsS'vincristin_medac'
p404
NsS'toraseptol'
p405
NsS'sulfate__morphine'
p406
NsS'pemetrexed'
p407
NsS'meractinomycin'
p408
NsS'retinol'
p409
NsS'betaloc_astra'
p410
NsS'b518'
p411
NsS'amoxicillin'
p412
NsS'androgel'
p413
((F0.875
S'androgen'
p414
tp415
S"(st) matching: ratio , lcs, (key,drug) (keynorm,drugnorm 0.875 androge ('androgel', 'androgen') ('androgel', 'androgen')"
p416
tp417
sS'ici_47699'
p418
NsS'ascorbate__sodium'
p419
NsS'apo_feno_micro'
p420
NsS'tosylate__niacin'
p421
NsS'fluorouracil_potassium_salt'
p422
NsS'all_trans_retinol'
p423
NsS'microfollin_forte'
p424
NsS'sodium__methotrexate'
p425
NsS'biphenabid'
p426
NsS'osmofundin'
p427
NsS'8_isotestosterone'
p428
NsS'doxycycline'
p429
NsS'magnesium_di_l_ascorbate'
p430
NsS'aluminum_salt__niacin'
p431
NsS'persantine'
p432
NsS'rosiglitazone'
p433
NsS'microshield_t'
p434
NsS'magnesium_valproate'
p435
NsS'fluoruracil'
p436
NsS'oxacillin__sodium'
p437
NsS'ici46_474'
p438
NsS'deferoxamine_methanesulfonate'
p439
NsS'propofol_lipuro'
p440
NsS'icn1229'
p441
NsS'l_ascorbic_acid'
p442
NsS'2_4_4__trichloro_2__hydroxydiphenyl_ether'
p443
NsS'divalproex'
p444
NsS'levetiracetam'
p445
NsS'pioglitazone'
p446
NsS'dactinomycin'
p447
NsS'novo_fenofibrate'
p448
NsS'nicotinate__lithium'
p449
NsS'carbacholine'
p450
NsS'lebic'
p451
NsS'amoxicillin_monosodium_salt'
p452
NsS'curantyl'
p453
NsS'blenoxane'
p454
NsS'ici_46474'
p455
NsS'methylprednisolone'
p456
NsS'nebicin'
p457
NsS'etopos'
p458
NsS'ster_zac_bath_concentrate'
p459
NsS'silkis'
p460
NsS'vincrisul'
p461
NsS'magnorbin'
p462
NsS'voltaren'
p463
NsS'irinotecan'
p464
NsS'pms_baclofen'
p465
NsS'hydrochloride__isoproterenol'
p466
NsS'isopto_carbachol'
p467
NsS'acephen'
p468
NsS'clamoxyl_g.a.'
p469
NsS'tobracin'
p470
NsS'cya_nof'
p471
NsS'onkocristin'
p472
NsS'avlocardyl'
p473
NsS'fluoxetine_hydrochloride'
p474
NsS'captopril'
p475
NsS'isotretinoin'
p476
NsS'chlorbutin'
p477
NsS'dh_581'
p478
NsS'polymyxin_b_sulfate'
p479
NsS'progesterone__(13_alpha_17_alpha)_(+_)_isomer'
p480
NsS'sirolimus'
p481
NsS'clamoxyl'
p482
NsS'nicotinic_acid'
p483
NsS'capreomycin'
p484
NsS'4_(1_hydroxy_2_((1_methylethyl)amino)ethyl)_1_2_benzenediol'
p485
NsS'morphia'
p486
NsS'synalar_hp'
p487
NsS'pms_fenofibrate_micro'
p488
NsS'rapamune'
p489
NsS'3_phenoxybenzyl_cis_trans_(1rs)_3_(2_2_dichlorovinyl)_2_2_dimethylcyclopropanecarboxylate'
p490
NsS'fluodermo'
p491
NsS'tretinoin'
p492
NsS'cgp_2175'
p493
NsS'propofol_abbott'
p494
NsS'glidiazinamide'
p495
NsS'oradexon'
p496
NsS'isotretinoin_zinc_salt__13_cis_isomer'
p497
NsS'lf178'
p498
NsS'azadose'
p499
NsS'ursolite'
p500
NsS'isopropyl_noradrenaline'
p501
NsS'olanzapine'
p502
NsS'panadol'
p503
NsS'nsc3088'
p504
NsS'bl\xe3\xa9omycine_bellon'
p505
NsS'vitamin_a'
p506
NsS'dexpropranolol'
p507
NsS'onkoposid'
p508
NsS'obracin'
p509
NsS'mk933'
p510
NsS'sq14_534'
p511
NsS'trimox'
p512
NsS'teva__etoposide'
p513
NsS'mk_0366'
p514
NsS'nu_baclo'
p515
NsS'andropatch'
p516
NsS'chlorambucil'
p517
NsS'r_38486'
p518
NsS'veramix'
p519
NsS'medroxyprogesterone_17_acetate__(6_alpha_17_alpha)_isomer'
p520
NsS'bay09867'
p521
NsS'nico_400'
p522
NsS'amoxycillin'
p523
NsS'monohydrate__ciprofloxacin_monohydrochloride'
p524
NsS'cliniclean'
p525
NsS'rexigen'
p526
NsS'prednisolone'
p527
NsS'fluorouracil'
p528
NsS'ribocarbo'
p529
NsS'doxycycline_monohydrochloride__6_epimer'
p530
NsS'etoposide'
p531
NsS'vibramycin'
p532
NsS'v\xe3\xa9p\xe3\xa9side_sandoz'
p533
NsS'actinomycin_d'
p534
NsS'novapirina'
p535
NsS'orthophen'
p536
NsS'concerta'
p537
NsS'fenofanton'
p538
NsS'probucol'
p539
NsS'vepesid'
p540
NsS'trans_permethrin'
p541
NsS'acid__deoxyursocholic'
p542
NsS'nittifor'
p543
NsS'acid__ursodeoxycholic'
p544
NsS'ay_20694'
p545
NsS'gestapuran'
p546
NsS'lior\xe3\xa9sal'
p547
NsS'vitamin_d3'
p548
NsS'mc_1288'
p549
NsS'estradiol__ethynyl'
p550
NsS'sq_14534'
p551
NsS'stilbene_estrogen'
p552
NsS'diclofenac'
p553
NsS'carbastat'
p554
NsS'estinyl'
p555
NsS'sdz_202250'
p556
NsS'ursacholic_acid'
p557
NsS'5_fluorouracil_biosyn'
p558
NsS'soltriol'
p559
NsS'propofol'
p560
NsS'virazide'
p561
NsS'heumann__fenofibrat'
p562
NsS'n_(4_hydroxyphenyl)acetanilide'
p563
NsS'fenofibrat_ratiopharm'
p564
NsS'folic_acid__(dl)_isomer'
p565
NsS'toprol'
p566
NsS'6_methylprednisolone'
p567
NsS'permethrin__(cis)_isomer'
p568
NsS'deferoxamine'
p569
NsS'cyclophosphamide__(s)_isomer'
p570
NsS'doxycycline_phosphate_(1:1)'
p571
NsS'sc_11585'
p572
NsS'vinzam'
p573
NsS'ici35868'
p574
NsS'penicillin__methylphenylisoxazolyl'
p575
NsS'clofen'
p576
NsS'mifepristone'
p577
NsS'oxacillin__monosodium_salt__anhydrous'
p578
NsS'panavir'
p579
NsS'valproate'
p580
NsS'(s)_1_(3_mercapto_2_methyl_1_oxopropyl)_l_proline'
p581
NsS'apo_dipyridamole'
p582
NsS'heparin'
p583
NsS'3_pyridinecarboxylic_acid'
p584
NsS'1_alpha_25_dihydroxycholecalciferol'
p585
NsS'everolimus'
p586
NsS'tricor'
p587
NsS'fenofibrate'
p588
NsS'convulsofin'
p589
NsS'fenofibrat_azu'
p590
NsS'icn_1229'
p591
NsS'doxycycline_hemiethanolate'
p592
NsS'niacin_tartrate'
p593
NsS'baclof\xe3\xa8ne_irex'
p594
NsS'chloride__morphine'
p595
NsS'deferasirox'
p596
NsS'cyclophosphamide'
p597
NsS'carboptic'
p598
NsS'l_amphetamine'
p599
NsS'desferroxamine'
p600
NsS'depo_medroxyprogesterone_acetate'
p601
NsS'carbachol'
p602
NsS'plicamycin'
p603
NsS'4_(bis(2_chloroethyl)amino)benzenebutanoic_acid'
p604
NsS'ciprofloxacin_monohydrochloride_monohydrate'
p605
NsS'propofol_mct'
p606
NsS'oxacillin'
p607
NsS'agostilben'
p608
NsS'semisodium_valproate'
p609
NsS'sq14534'
p610
NsS'prozac'
p611
NsS'colchicine'
p612
NsS'paraplatin'
p613
NsS'decaject_l.a.'
p614
NsS'decaspray'
p615
NsS'neoral'
p616
NsS'nia_33297'
p617
NsS'flurosyn'
p618
NsS'pp_557'
p619
NsS'aquasept'
p620
NsS'depoprovera'
p621
NsS'depakine'
p622
NsS'spesicor'
p623
NsS'ba_34647'
p624
NsS'mycophenolate_mofetil'
p625
NsS'efudix'
p626
NsS'rituximab'
p627
NsS'fenofibrat_von_ct'
p628
NsS'flurodex'
p629
NsS'methylphenidate_hydrochloride'
p630
NsS'ru_38486'
p631
NsS'ol_27_400'
p632
NsS'testoderm'
p633
NsS'fluoro_uracile_icn'
p634
NsS'permethrin__trans_(1rs)_isomer'
p635
NsS'noradrenaline__isopropyl'
p636
NsS'tsentedrin'
p637
NsS'dakota__fluorouracile'
p638
NsS'ay_22_989'
p639
NsS'imatinib'
p640
NsS'haloperidol'
p641
NsS'ursodeoxycholate__sodium'
p642
NsS'vitamin_e'
p643
NsS'fmc33297'
p644
NsS'ribovirin'
p645
NsS'carbamoylcholine'
p646
NsS'isopropyl_alcohol'
p647
NsS'oncovine'
p648
NsS'ribamidyl'
p649
NsS'vp_16'
p650
((F0.8
S'adrtvp_1'
p651
tp652
S"(st) matching: ratio , lcs, (key,drug) (keynorm,drugnorm 0.8 vp_1 ('vp_16', 'adrtvp_1') ('vp_16', 'adrtvp_1')"
p653
tp654
sS'fluorouracil_monopotassium_salt'
p655
NsS'bmy_28689'
p656
NsS'amphetamine_sulfate'
p657
NsS'sulfate__vincristine'
p658
NsS'vitamin_c'
p659
NsS'nsc_26271'
p660
NsS'17_beta_hydroxy_4_androsten_3_one'
p661
NsS'acetonide__fluortriamcinolone'
p662
NsS'glypidizine'
p663
NsS'curretab'
p664
NsS'baclofen'
p665
NsS'ritaline'
p666
NsS'acid__retinoic'
p667
NsS'b9__vitamin'
p668
NsS'sustanon'
p669
NsS'progesterone__(9_beta_10_alpha)_isomer'
p670
NsS'valproic_acid'
p671
NsS'valproate_calcium'
p672
NsS'onkofluor'
p673
NsS'dexpak'
p674
NsS'toprol_xl'
p675
NsS'etoposide_pierre_fabre'
p676
NsS'amphetamine'
p677
NsS'trans_retinoic_acid'
p678
NsS'isoproterenol'
p679
NsS'nsc26271'
p680
NsS'medroxyprogesterone_acetate'
p681
NsS'bexarotene'
p682
NsS'jenapharm__ethinylestradiol'
p683
NsS'cholecalciferols'
p684
NsS'levodopa'
p685
NsS'lastet'
p686
NsS'equasym'
p687
Ns.