(dp0
S'distilb\xe3\xa8ne'
p1
NsS'methylphenylisoxazolyl_penicillin'
p2
NsS'telmisartan'
p3
NsS'tamoxifen'
p4
NsS'3_7_dimethyl_9_(2_6_6_trimethyl_1_cyclohexen_1_yl)_2_4_6_8_nonatetraen_1_ol__(all_e)_isomer'
p5
NsS'stromectol'
p6
NsS'lubiprostone'
p7
NsS'beta_(aminomethyl)_4_chlorobenzenepropanoic_acid'
p8
NsS'niacin'
p9
NsS'folvite'
p10
NsS'3_alpha_7_beta_dihydroxy_5_beta_cholan_24_oic_acid'
p11
NsS'bleomycins'
p12
NsS'vesanoid'
p13
NsS'gelidina'
p14
NsS'ethinyl_estradiol'
p15
NsS'pregn_4_ene_3_20_dione__17_(acetyloxy)_6_methyl___(6alpha)_'
p16
NsS'periostat'
p17
NsS'deferrioxamine_b'
p18
NsS'tamoxifen_citrate'
p19
NsS'normalip'
p20
NsS'fluoxetine'
p21
NsS'cholecalciferol'
p22
NsS'galzin'
p23
NsS'd3__1_25_dihydroxyvitamin'
p24
NsS'estradiol'
p25
NsS'stada__fenofibrat'
p26
NsS'gen_fenofibrate'
p27
NsS'2_propylpentanoic_acid'
p28
NsS'algotropyl'
p29
NsS'ribodoxo'
p30
NsS'niacin_ammonium_salt'
p31
NsS'cbdca'
p32
NsS'k_4024'
p33
NsS'enzalutamide'
p34
NsS'estinyl'
p35
NsS'diclophenac'
p36
NsS'desoxynorephedrin'
p37
NsS'cyclosporine'
p38
NsS'i_2190a'
p39
NsS'progesterone'
p40
NsS'magnesium_ascorbate'
p41
NsS'nsc_241240'
p42
NsS'ciprofloxacin_hydrochloride_anhydrous'
p43
NsS'cb_1348'
p44
NsS'alitretinoin'
p45
NsS'absolute_alcohol'
p46
NsS'acetamidophenol'
p47
NsS'vilona'
p48
NsS'niacin_cobalt_(2+)_salt'
p49
NsS'novaldex'
p50
NsS'amoxicilline'
p51
NsS'ici_35868'
p52
NsS'sevoflurane'
p53
NsS'teturam'
p54
NsS'csa_neoral'
p55
NsS'bmy28689'
p56
NsS'cytoxan'
p57
NsS'debat__f\xe3\xa9nofibrate'
p58
NsS'f\xe3\xa9nofibrate_debat'
p59
NsS'ribamide'
p60
NsS'nsc_141540'
p61
NsS'ursobilane'
p62
NsS'urso'
p63
NsS'decostriol'
p64
NsS'metadate'
p65
NsS'gen_baclofen'
p66
NsS'sdz202_250'
p67
NsS'adrimedac'
p68
NsS'fluocinolone_acetonide'
p69
NsS'tampovagan'
p70
NsS'lipidil'
p71
NsS'ethanol'
p72
NsS'cgp2175'
p73
NsS'triclosan'
p74
NsS'hydramycin'
p75
NsS'novo_fenofibrate'
p76
NsS'bis(diethylthiocarbamoyl)_disulfide'
p77
NsS'anacin_3'
p78
NsS'sulfate__vincristine'
p79
NsS'sulfate__amphetamine'
p80
NsS'ethinyl_estradiol__(8_alpha_9_beta_13_alpha_14_beta)_isomer'
p81
NsS'doxorubicina_funk'
p82
NsS'baclospas'
p83
NsS'nicotine_tartrate'
p84
NsS'ivermectin'
p85
NsS'mithramycin'
p86
NsS'irgasan_dp300'
p87
NsS'ritalin_sr'
p88
NsS'desferrioxamine_b'
p89
NsS'cis_diamminedichloroplatinum'
p90
NsS'vitamin_b9'
p91
NsS'thiamine'
p92
NsS'antabus'
p93
NsS'niacin_potassium_salt'
p94
NsS'niacin_tartrate'
p95
NsS'permethrin__(1s_cis)_isomer'
p96
NsS'gp_45_840'
p97
NsS'arsenic_trioxide'
p98
NsS'testopel'
p99
NsS'nsc_125973'
p100
NsS'sdz_202_250'
p101
NsS'apap'
p102
NsS's_3151'
p103
NsS'sapoderm'
p104
NsS'mk0366'
p105
NsS'phenamine'
p106
NsS'azu__fenofibrat'
p107
NsS'permethrin__(1r_cis)_isomer'
p108
NsS'calcitriol_kyramed'
p109
NsS'ro_43780'
p110
NsS'isoflurane'
p111
NsS'testosterone'
p112
NsS'brl_2333'
p113
NsS'ranolazine'
p114
NsS'lopressor'
p115
NsS'tricor'
p116
NsS'estradiol__(17_alpha)_isomer'
p117
NsS'permethrin'
p118
NsS'folic_acid__potassium_salt'
p119
NsS'phisohex'
p120
NsS'metoprolol'
p121
NsS'decitabine'
p122
NsS'mifegyne'
p123
NsS'retin_a'
p124
NsS'mannitol'
p125
NsS'ursodeoxycholic_acid'
p126
NsS'farmiblastina'
p127
NsS'2_propanol'
p128
NsS'titanium_dioxide'
p129
NsS'jm_8'
p130
NsS'quetiapine'
p131
NsS'mk_933'
p132
NsS'colchicine'
p133
NsS'cosmegen_lyovac'
p134
NsS'doxorubicin_nc'
p135
NsS'isopropylnoradrenaline'
p136
NsS'fulvestrant'
p137
NsS'permethrin__(trans)_isomer'
p138
NsS'sodium_salt__tretinoin'
p139
NsS'am_715'
p140
NsS'carbosin'
p141
NsS'folic_acid__monopotassium_salt'
p142
NsS'zinc_acetate'
p143
NsS'b_518'
p144
NsS'sulfate__bleomycin'
p145
NsS'lilly_110140'
p146
NsS'tretinoin_sodium_salt'
p147
NsS'ferrous_ascorbate'
p148
NsS'dh_581'
p149
NsS'adriablastine'
p150
NsS'isoproterenol_hydrochloride'
p151
NsS'calcitriol'
p152
NsS'morphine'
p153
NsS'awd__baclofen'
p154
NsS'sandimmun_neoral'
p155
NsS'zitazonium'
p156
NsS'morphine_sulfate'
p157
NsS'levo_amphetamine'
p158
NsS'sorafenib'
p159
NsS'lyovac_cosmegen'
p160
NsS'decaject'
p161
NsS'letrozole'
p162
NsS'ici_46_474'
p163
NsS'niacin_zinc_salt'
p164
NsS'alcohol__rubbing'
p165
NsS'acid__all_trans_retinoic'
p166
NsS'salt__tretinoin_sodium'
p167
NsS'alcohol__ethyl'
p168
NsS'vupral'
p169
NsS'lithium_nicotinate'
p170
NsS'dipyridamole'
p171
NsS'ozidia'
p172
NsS'procytox'
p173
NsS'desferioximine'
p174
NsS'(l)_mannitol'
p175
NsS'flucinar'
p176
NsS'tocilizumab'
p177
NsS'leponex'
p178
NsS'thiamine_mononitrate'
p179
NsS'folate'
p180
NsS'cis_permethrin'
p181
NsS'1_25_dihydroxy_20_epi_vitamin_d3'
p182
NsS'farmistin'
p183
NsS'doxycycline_monohydrate'
p184
NsS'amfetamine'
p185
NsS'minidiab'
p186
NsS'levoamphetamine'
p187
NsS'cyclophosphamide'
p188
NsS'betaloc'
p189
NsS'2_6_bis(1_methylethyl)phenol'
p190
NsS'pyrazinamide'
p191
NsS'atrofen'
p192
NsS'ezetimibe'
p193
NsS'aneurin'
p194
NsS'cyclosporine_a'
p195
NsS'celecoxib'
p196
NsS'estradiol__(8_alpha_17_beta)_isomer'
p197
NsS'desferroxamine'
p198
NsS'nicocap'
p199
NsS'glupitel'
p200
NsS'norfloxacin'
p201
NsS'paclitaxel'
p202
NsS'hexadrol'
p203
NsS'dipropyl_acetate'
p204
NsS'procetofen__antara_micronized'
p205
NsS'cellcristin'
p206
NsS'estradiol_anhydrous'
p207
NsS'nicotine'
p208
NsS'azithromycin_monohydrate'
p209
NsS'niacin_magnesium_salt'
p210
NsS'bortezomib'
p211
NsS'ethinyl_estradiol__(8_alpha)_isomer'
p212
NsS'irgasan_dp_300'
p213
NsS'ethinylestradiol_jenapharm'
p214
NsS'progynova'
p215
NsS'estradiol__sodium_salt'
p216
NsS'ribavirin'
p217
NsS'miostat'
p218
NsS'nsc241240'
p219
NsS'sodium_ursodeoxycholate'
p220
NsS'sandimmun'
p221
NsS'estradiol__(+_)_isomer'
p222
NsS'2_naphthacenecarboxamide__4_(dimethylamino)_1_4_4a_5_5a_6_11_12a_octahydro_3_5_10_12_12a_pentahydroxy_6_methyl_1_11_dioxo___(4s_(4alpha_4aalpha_5alpha_5aalpha_6alpha_12aalpha))_'
p223
NsS'nico400'
p224
NsS'beloc_duriles'
p225
NsS'eposin'
p226
NsS'ro_4_3780'
p227
NsS'nsc_3088'
p228
NsS'etanercept'
p229
NsS'medroxyprogesterone_17_acetate'
p230
NsS'retinoic_acid'
p231
NsS'candesartan'
p232
NsS'novodrin'
p233
NsS'lofibra'
p234
NsS'bleomycin_a2'
p235
NsS'alpha_6_deoxyoxytetracycline'
p236
NsS'dexamethasone'
p237
NsS'derma_smooth_fs'
p238
NsS'capreomycin_sulfate'
p239
NsS'lorelco'
p240
NsS'renatriol'
p241
NsS'monohydrate__azithromycin'
p242
NsS'p_hydroxyacetanilide'
p243
NsS'1_alpha__25_dihydroxy_20_epi_vitamin_d3'
p244
NsS'fenofibrat_hexal'
p245
NsS'predate'
p246
NsS'aquafol'
p247
NsS'isadrin'
p248
NsS'oxandrolone'
p249
NsS'dopar'
p250
NsS'ba34647'
p251
NsS'neocarbo'
p252
NsS'zinc_acetate_dihydrate'
p253
NsS'ethyl_alcohol'
p254
NsS'bu_3839t'
p255
NsS'antistenocardin'
p256
NsS'mesylate__deferoxamine'
p257
NsS'colchicine__(r)_isomer'
p258
NsS'6_alpha_methyl_17alpha_hydroxyprogesterone_acetate'
p259
NsS'eqvalan'
p260
NsS'ru38486'
p261
NsS'ciba34_647ba'
p262
NsS'ciprofloxacin'
p263
NsS'heparinic_acid'
p264
NsS'methanesulfonate__deferoxamine'
p265
NsS'sr_38'
p266
NsS'cyclopropanecarboxylic_acid__3_(2_2_dichloroethenyl)_2_2_dimethyl___(3_phenoxyphenyl)methyl_ester'
p267
NsS'jellisoft'
p268
NsS'certolizumab_pegol'
p269
NsS'csaneoral'
p270
NsS'zinc_sulfate'
p271
NsS'folic_acid'
p272
NsS'mc1288'
p273
NsS'amoxicillin_anhydrous'
p274
NsS'bleomycin'
p275
NsS'melizide'
p276
NsS'morphine_sulfate_(2:1)__anhydrous'
p277
NsS'cb1348'
p278
NsS'urokit_doxo_cell'
p279
NsS'ursofalk'
p280
NsS'vitamin_b_1'
p281
NsS'acid__trans_retinoic'
p282
NsS'lf_178'
p283
NsS'zk98296'
p284
NsS'lipidil_ter'
p285
NsS'bellon__bl\xe3\xa9omycine'
p286
NsS'penamox'
p287
NsS'fluortriamcinolone_acetonide'
p288
NsS'methylfluorprednisolone'
p289
NsS'novo_dipiradol'
p290
NsS'baclof\xe3\xa8neirex'
p291
NsS'deferoxamine_mesilate'
p292
NsS'sc11585'
p293
NsS'apo_baclofen'
p294
NsS'azithromycin'
p295
NsS'nrdc143'
p296
NsS'disoprivan'
p297
NsS'eto_gry'
p298
NsS'mtw_fenofibrat'
p299
NsS'sodium_salt__niacin'
p300
NsS'mif\xe3\xa9gyne'
p301
NsS'oestradiol'
p302
NsS'carbachol'
p303
NsS'tylenol'
p304
NsS'cis_diamminedichloroplatinum(ii)'
p305
NsS'niacin_lithium_salt__hemihydrate'
p306
NsS'fresofol'
p307
NsS'niacin_hydrochloride'
p308
NsS'cytophosphane'
p309
NsS'tretinoin'
p310
NsS'platidiam'
p311
NsS'amoxicillin_trihydrate'
p312
NsS'clozapine'
p313
NsS'nu_fenofibrate'
p314
NsS'7_epi_taxol'
p315
NsS'bleomycin_b2'
p316
NsS'acetaminophen'
p317
NsS'13_cis_retinoic_acid'
p318
NsS'metoprolol_tartrate'
p319
NsS'co_fluocin'
p320
NsS'methylphenidate'
p321
NsS'doxycycline_calcium'
p322
NsS'vibra_tabs'
p323
NsS'troglitazone'
p324
NsS'disulfiram'
p325
NsS'ay_22989'
p326
NsS'etoposide__(5a_alpha_9_alpha)_isomer'
p327
NsS'doxorubicine_baxter'
p328
NsS'olanzapine'
p329
NsS'etoposide__(5s)_isomer'
p330
NsS'estradiol_17_beta'
p331
NsS'cl\xe3\xa9ridium'
p332
NsS'deoxyursocholic_acid'
p333
NsS'glipizide'
p334
NsS'zincteral'
p335
NsS'vincasar'
p336
NsS'metipred'
p337
NsS'mycophenolate_mofetil'
p338
NsS'demethyl_epipodophyllotoxin_ethylidine_glucoside'
p339
NsS'bleo_cell'
p340
NsS'tobramycin'
p341
NsS'pcp_gaba'
p342
NsS'cp_62993'
p343
NsS'ascorbic_acid'
p344
NsS'duramorph'
p345
NsS'kurantil'
p346
NsS'vemurafenib'
p347
NsS'doryx'
p348
NsS'ascorbate__ferrous'
p349
NsS'capex'
p350
NsS'vorinostat'
p351
NsS'all_trans_retinoic_acid'
p352
NsS'alpha_heparin'
p353
NsS'1_25_dihydroxycholecalciferol'
p354
NsS'zithromax'
p355
NsS'diclofenac_potassium'
p356
NsS'menadione'
p357
NsS'heparin__sodium'
p358
NsS'hydrochloride_anhydrous__ciprofloxacin'
p359
NsS'trovafloxacin'
p360
NsS'bay_09867'
p361
NsS'onkoposid'
p362
NsS'ethinyl_oestradiol_effik'
p363
NsS'h_93_26'
p364
NsS'feloran'
p365
NsS'3_hydroxy_l_tyrosine'
p366
NsS'fenofibrat_fph'
p367
NsS'anavar'
p368
NsS'metoprolol_cr_xl'
p369
NsS'estradiol_valerate'
p370
NsS'lopirin'
p371
NsS'lympholysin'
p372
NsS'sodium_heparin'
p373
NsS'diethylstilbestrol'
p374
NsS'hydrochloride__niacin'
p375
NsS'histerone'
p376
NsS'levopa'
p377
NsS'vincristine'
p378
NsS'brulamycin'
p379
NsS'genbaclofen'
p380
NsS'bocatriol'
p381
NsS'progynon_c'
p382
NsS'hydrocortisone__(11_alpha)_isomer'
p383
NsS'lipantil'
p384
NsS'ici47699'
p385
NsS'acid__ascorbic'
p386
NsS'cholofalk'
p387
NsS'procetofen'
p388
NsS'ercar'
p389
NsS'zk_98296'
p390
NsS'l_dopa'
p391
NsS'isuprel'
p392
NsS'adriamycin'
p393
NsS'ol_27_400'
p394
NsS'taxol__bris'
p395
NsS'tersaseptic'
p396
NsS'(3_beta_5z_7e)_9_10_secocholesta_5_7_10(19)_trien_3_ol'
p397
NsS'di_adreson_f'
p398
NsS'calcitriol_nefro'
p399
NsS'ethynyl_estradiol'
p400
NsS'sr38'
p401
NsS'progynon_depot'
p402
NsS'datril'
p403
NsS'etoposide__alpha_d_glucopyranosyl_isomer'
p404
NsS'sq_14_534'
p405
NsS'doxo_cell'
p406
NsS'beta_all_trans_retinoic_acid'
p407
NsS'cyclophosphamide_monohydrate'
p408
NsS'acetonide__fluortriamcinolone'
p409
NsS'azythromycin'
p410
NsS'synamol'
p411
NsS'carboplatin'
p412
NsS'vincristin_medac'
p413
NsS'toraseptol'
p414
NsS'noradrenaline__isopropyl'
p415
NsS'pemetrexed'
p416
NsS'meractinomycin'
p417
NsS'retinol'
p418
NsS'betaloc_astra'
p419
NsS'b518'
p420
NsS'panavir'
p421
NsS'androgel'
p422
NsS'ay_22_989'
p423
NsS'ici_47699'
p424
NsS'ascorbate__sodium'
p425
NsS'apo_feno_micro'
p426
NsS'tosylate__niacin'
p427
NsS'all_trans_retinol'
p428
NsS'microfollin_forte'
p429
NsS'biphenabid'
p430
NsS'osmofundin'
p431
NsS'8_isotestosterone'
p432
NsS'curretab'
p433
NsS'doxycycline'
p434
NsS'magnesium_di_l_ascorbate'
p435
NsS'aluminum_salt__niacin'
p436
NsS'persantine'
p437
NsS'rosiglitazone'
p438
NsS'microshield_t'
p439
NsS'myocet'
p440
NsS'magnesium_valproate'
p441
NsS'17_beta_oestradiol'
p442
NsS'oxacillin__sodium'
p443
NsS'ici46_474'
p444
NsS'deferoxamine_methanesulfonate'
p445
NsS'propofol_lipuro'
p446
NsS'icn1229'
p447
NsS'l_ascorbic_acid'
p448
NsS'2_4_4__trichloro_2__hydroxydiphenyl_ether'
p449
NsS'divalproex'
p450
NsS'levetiracetam'
p451
NsS'pioglitazone'
p452
NsS'dactinomycin'
p453
NsS'noroxin'
p454
NsS'nicotinate__lithium'
p455
NsS'carbacholine'
p456
NsS'lebic'
p457
NsS'amoxicillin_monosodium_salt'
p458
NsS'curantyl'
p459
NsS'doxorubicin_hexal'
p460
NsS'blenoxane'
p461
NsS'ici_46474'
p462
NsS'methylprednisolone'
p463
NsS'nebicin'
p464
NsS'etopos'
p465
NsS'ster_zac_bath_concentrate'
p466
NsS'silkis'
p467
NsS'vincrisul'
p468
NsS'magnorbin'
p469
NsS'voltaren'
p470
NsS'estradiol__(9_beta_17_beta)_isomer'
p471
NsS'pms_baclofen'
p472
NsS'hydrochloride__isoproterenol'
p473
NsS'isopto_carbachol'
p474
NsS'amphetamine_sulfate'
p475
NsS'acephen'
p476
NsS'clamoxyl_g.a.'
p477
NsS'tobracin'
p478
NsS'cya_nof'
p479
NsS'onkocristin'
p480
NsS'fluoxetine_hydrochloride'
p481
NsS'captopril'
p482
NsS'isotretinoin'
p483
NsS'chlorbutin'
p484
NsS'diclofenac__sodium'
p485
NsS'delestrogen'
p486
NsS'polymyxin_b_sulfate'
p487
NsS'progesterone__(13_alpha_17_alpha)_(+_)_isomer'
p488
NsS'sirolimus'
p489
NsS'clamoxyl'
p490
NsS'nicotinic_acid'
p491
NsS'cortifair'
p492
NsS'capreomycin'
p493
NsS'4_(1_hydroxy_2_((1_methylethyl)amino)ethyl)_1_2_benzenediol'
p494
NsS'doxycycline_monohydrochloride__6_epimer'
p495
NsS'synalar_hp'
p496
NsS'pms_fenofibrate_micro'
p497
NsS'platino'
p498
NsS'rapamune'
p499
NsS'fluodermo'
p500
NsS'disulfide__tetraethylthiuram'
p501
NsS'cgp_2175'
p502
NsS'isopropyl_noradrenaline'
p503
NsS'propofol_abbott'
p504
NsS'glidiazinamide'
p505
NsS'oradexon'
p506
NsS'isotretinoin_zinc_salt__13_cis_isomer'
p507
NsS'lf178'
p508
NsS'azadose'
p509
NsS'ursolite'
p510
NsS'fmc_33297'
p511
NsS'hydroquinone'
p512
NsS'panadol'
p513
NsS'nsc3088'
p514
NsS'bl\xe3\xa9omycine_bellon'
p515
NsS'vitamin_a'
p516
NsS'cisplatin'
p517
NsS'v\xe3\xa9p\xe3\xa9side_sandoz'
p518
NsS'tetraethylthioperoxydicarbonic_diamide__((h2n)c(s))2s2'
p519
NsS'obracin'
p520
NsS'mk933'
p521
NsS'dichlorodiammineplatinum'
p522
NsS'sq14_534'
p523
NsS'trimox'
p524
NsS'teva__etoposide'
p525
NsS'mk_0366'
p526
NsS'nu_baclo'
p527
NsS'andropatch'
p528
NsS'chlorambucil'
p529
NsS'nsc125973'
p530
NsS'veramix'
p531
NsS'medroxyprogesterone_17_acetate__(6_alpha_17_alpha)_isomer'
p532
NsS'nico_400'
p533
NsS'amoxycillin'
p534
NsS'monohydrate__ciprofloxacin_monohydrochloride'
p535
NsS'cliniclean'
p536
NsS'biocisplatinum'
p537
NsS'prednisolone'
p538
NsS'3_phenoxybenzyl_cis_trans_(1rs)_3_(2_2_dichlorovinyl)_2_2_dimethylcyclopropanecarboxylate'
p539
NsS'ribocarbo'
p540
NsS'morphia'
p541
NsS'etoposide'
p542
NsS'vibramycin'
p543
NsS'lilly110140'
p544
NsS'anzatax'
p545
NsS'actinomycin_d'
p546
NsS'novapirina'
p547
NsS'orthophen'
p548
NsS'concerta'
p549
NsS'r_38486'
p550
NsS'probucol'
p551
NsS'vepesid'
p552
NsS'adriblastine'
p553
NsS'trans_permethrin'
p554
NsS'acid__deoxyursocholic'
p555
NsS'nittifor'
p556
NsS'acid__ursodeoxycholic'
p557
NsS'soltriol'
p558
NsS'gestapuran'
p559
NsS'lior\xe3\xa9sal'
p560
NsS'vitamin_d3'
p561
NsS'mc_1288'
p562
NsS'estradiol__ethynyl'
p563
NsS'hydrocortisone'
p564
NsS'stilbene_estrogen'
p565
NsS'diclofenac'
p566
NsS'carbastat'
p567
NsS'amoxicillin'
p568
NsS'sdz_202250'
p569
NsS'ursacholic_acid'
p570
NsS'propofol'
p571
NsS'virazide'
p572
NsS'heumann__fenofibrat'
p573
NsS'n_(4_hydroxyphenyl)acetanilide'
p574
NsS'fenofibrat_ratiopharm'
p575
NsS'folic_acid__(dl)_isomer'
p576
NsS'toprol'
p577
NsS'6_methylprednisolone'
p578
NsS'permethrin__(cis)_isomer'
p579
NsS'deferoxamine'
p580
NsS'cyclophosphamide__(s)_isomer'
p581
NsS'doxycycline_phosphate_(1:1)'
p582
NsS'sc_11585'
p583
NsS'vinzam'
p584
NsS'ici35868'
p585
NsS'estradiol__(16_alpha_17_alpha)_isomer'
p586
NsS'penicillin__methylphenylisoxazolyl'
p587
NsS'clofen'
p588
NsS'mifepristone'
p589
NsS'oxacillin__monosodium_salt__anhydrous'
p590
NsS'valproate'
p591
NsS'(s)_1_(3_mercapto_2_methyl_1_oxopropyl)_l_proline'
p592
NsS'apo_dipyridamole'
p593
NsS'heparin'
p594
NsS'3_pyridinecarboxylic_acid'
p595
NsS'1_alpha_25_dihydroxycholecalciferol'
p596
NsS'everolimus'
p597
NsS'sodium_oxacillin'
p598
NsS'fenofibrate'
p599
NsS'convulsofin'
p600
NsS'fenofibrat_azu'
p601
NsS'icn_1229'
p602
NsS'doxycycline_hemiethanolate'
p603
NsS'cis_dichlorodiammineplatinum(ii)'
p604
NsS'diethylstilbestrol__(z)_isomer'
p605
NsS'chloride__morphine'
p606
NsS'deferasirox'
p607
NsS'praxel'
p608
NsS'paclitaxel__(4_alpha)_isomer'
p609
NsS'carboptic'
p610
NsS'l_amphetamine'
p611
NsS'nrdc_143'
p612
NsS'depo_medroxyprogesterone_acetate'
p613
NsS'(m_phenoxybenzyl)_cis_trans_3_(2_2_dichlorovinyl)_2_2_dimethylcyclopropanecarboxylate'
p614
NsS'plicamycin'
p615
NsS'4_(bis(2_chloroethyl)amino)benzenebutanoic_acid'
p616
NsS'ciprofloxacin_monohydrochloride_monohydrate'
p617
NsS'propofol_mct'
p618
NsS'oxacillin'
p619
NsS'agostilben'
p620
NsS'semisodium_valproate'
p621
NsS'sq14534'
p622
NsS'prozac'
p623
NsS'bleomicina'
p624
NsS'paraplatin'
p625
NsS'decaject_l.a.'
p626
NsS'decaspray'
p627
NsS'alcophobin'
p628
NsS'neoral'
p629
NsS'nia_33297'
p630
NsS'flurosyn'
p631
NsS'pp_557'
p632
NsS'aquasept'
p633
NsS'depoprovera'
p634
NsS'depakine'
p635
NsS'spesicor'
p636
NsS'ba_34647'
p637
NsS'vp_16_213'
p638
NsS'rituximab'
p639
NsS'docetaxel'
p640
NsS'fenofibrat_von_ct'
p641
NsS'sq_14534'
p642
NsS'cortril'
p643
NsS'methylphenidate_hydrochloride'
p644
NsS'ru_38486'
p645
NsS'vp_16'
p646
NsS'testoderm'
p647
NsS'doxorubicin'
p648
NsS'sulfate__zinc'
p649
NsS'permethrin__trans_(1rs)_isomer'
p650
NsS'sulfate__morphine'
p651
NsS'tsentedrin'
p652
NsS'dihydrate__azithromycin'
p653
NsS'imatinib'
p654
NsS'haloperidol'
p655
NsS'ursodeoxycholate__sodium'
p656
NsS'vitamin_e'
p657
NsS'11_epicortisol'
p658
NsS'fmc33297'
p659
NsS'zoledronate'
p660
NsS'ribovirin'
p661
NsS'carbamoylcholine'
p662
NsS'isopropyl_alcohol'
p663
NsS'oncovine'
p664
NsS'ribamidyl'
p665
NsS'bmy_28689'
p666
NsS'zinc_salt__tretinoin'
p667
NsS'bay09867'
p668
NsS'vitamin_c'
p669
NsS'nsc_26271'
p670
NsS'17_beta_hydroxy_4_androsten_3_one'
p671
NsS'baclof\xe3\xa8ne_irex'
p672
NsS'glypidizine'
p673
NsS'fenofanton'
p674
NsS'baclofen'
p675
NsS'estradiol_hemihydrate'
p676
NsS'ritaline'
p677
NsS'acid__retinoic'
p678
NsS'b9__vitamin'
p679
NsS'sustanon'
p680
NsS'progesterone__(9_beta_10_alpha)_isomer'
p681
NsS'valproic_acid'
p682
NsS'valproate_calcium'
p683
NsS'dexpak'
p684
NsS'toprol_xl'
p685
NsS'etoposide_pierre_fabre'
p686
NsS'amphetamine'
p687
NsS'trans_retinoic_acid'
p688
NsS'estraderm_tts'
p689
NsS'isoproterenol'
p690
NsS'nsc26271'
p691
NsS'medroxyprogesterone_acetate'
p692
NsS'bexarotene'
p693
NsS'jenapharm__ethinylestradiol'
p694
NsS'cholecalciferols'
p695
NsS'levodopa'
p696
NsS'lastet'
p697
NsS'equasym'
p698
Ns.