(dp0
S'perfluorooctanoic_acid'
p1
NsS'cisplatin'
p2
((F1.0
S'cisplatin'
p3
tp4
S"(st) matching: ratio , lcs, (key,drug) (keynorm,drugnorm 1.0 cisplatin ('Cisplatin', 'cisplatin') ('cisplatin', 'cisplatin')"
p5
tp6
sS'cetuximab'
p7
NsS'n_(4_hydroxyphenyl)_trans_retinamide'
p8
NsS'laccaic_acid'
p9
NsS'tamoxifen'
p10
((F1.0
S'tamoxifen_citrate'
p11
tp12
S"Suffix-based-exact-matching ('Tamoxifen', 'tamoxifen_citrate') ('tamoxifen', 'tamoxifen_citrate')"
p13
tp14
sS'abiraterone'
p15
((F1.0
S'abiraterone_acetate'
p16
tp17
S"Suffix-based-exact-matching ('abiraterone', 'abiraterone_acetate') ('abiraterone', 'abiraterone_acetate')"
p18
tp19
sS'sodium_pyruvate'
p20
NsS'alcohol__ethyl'
p21
NsS'enzalutamide'
p22
NsS'lubiprostone'
p23
NsS'atp_mgcl2'
p24
NsS'mesalazine'
p25
NsS'trastuzumab'
p26
NsS'ascorbic_acid'
p27
((F1.0
S'ascorbic_acid'
p28
tp29
S"(st) matching: ratio , lcs, (key,drug) (keynorm,drugnorm 1.0 ascorbic_acid ('Ascorbic_acid', 'ascorbic_acid') ('ascorbic_acid', 'ascorbic_acid')"
p30
tp31
sS'argyrin_a'
p32
NsS'atorvastatin'
p33
((F1.0
S'atorvastatin_calcium'
p34
tp35
S"Suffix-based-exact-matching ('Atorvastatin', 'atorvastatin_calcium') ('atorvastatin', 'atorvastatin_calcium')"
p36
tp37
sS'vemurafenib'
p38
NsS'1_[3_(trifluoromethyl)phenyl]piperazine'
p39
NsS'3_alpha_7_beta_dihydroxy_5_beta_cholan_24_oic_acid'
p40
NsS'tocilizumab'
p41
NsS'laminin'
p42
NsS'vorinostat'
p43
NsS'adenosine_triphosphate'
p44
NsS'all_trans_retinoic_acid'
p45
NsS'genistein'
p46
NsS'trichostatin_a'
p47
NsS'2_3_7_8_tetrachlorodibenzo_p_dioxin_(tcdd)'
p48
NsS'3_3__4_4__tetrachlorobiphenyl'
p49
NsS'cadmium_cid'
p50
NsS'curcumin'
p51
NsS'trovafloxacin'
p52
NsS'aldosterone__(11_beta_17_alpha)_isomer'
p53
NsS'rapamycin'
p54
((F1.0
S'rapamycin'
p55
tp56
S"(st) matching: ratio , lcs, (key,drug) (keynorm,drugnorm 1.0 rapamycin ('Rapamycin', 'rapamycin') ('rapamycin', 'rapamycin')"
p57
tp58
sS'angiotensin_ii'
p59
NsS'endothelium_derived_nitric_oxide'
p60
NsS'apratoxin_a'
p61
NsS'cholecalciferol'
p62
NsS'phosgene'
p63
NsS'carboplatin_(30_h)'
p64
NsS'n_methylformamide'
p65
NsS'arachidonate__sodium'
p66
NsS'celecoxib'
p67
((F1.0
S'celecoxib'
p68
tp69
S"(st) matching: ratio , lcs, (key,drug) (keynorm,drugnorm 1.0 celecoxib ('Celecoxib', 'celecoxib') ('celecoxib', 'celecoxib')"
p70
tp71
sS'actinomycin_d'
p72
NsS'motexafin_gadolinium'
p73
NsS'laminin_m'
p74
NsS'manganese_adenosine_triphosphate'
p75
NsS'4_hydroxytamoxifen'
p76
NsS'lympholysin'
p77
NsS'oxomethane'
p78
NsS'acrylamide'
p79
NsS'puromycin_'
p80
NsS'chromium_adenosine_triphosphate'
p81
NsS'caerulein'
p82
NsS'quercetin'
p83
NsS'l_arginine'
p84
NsS'hodgkin_lymphoma_cid'
p85
NsS'acid__deoxyursocholic'
p86
NsS'vincristine'
p87
((F1.0
S'vincristine_sulfate'
p88
tp89
S"Suffix-based-exact-matching ('vincristine', 'vincristine_sulfate') ('vincristine', 'vincristine_sulfate')"
p90
tp91
sS'acid__ursodeoxycholic'
p92
NsS'yellow__turmeric'
p93
NsS'monoxide__mononitrogen'
p94
NsS'cobalt_dichloride_hexahydrate'
p95
NsS'2_2__4_4__5_5__hexachlorobiphenyl'
p96
NsS'absolute_alcohol'
p97
NsS'cholofalk'
p98
NsS'formoterol'
p99
((F1.0
S'formoterol_fumarate'
p100
tp101
S"Suffix-based-exact-matching ('formoterol', 'formoterol_fumarate') ('formoterol', 'formoterol_fumarate')"
p102
tp103
sS'1_benzylpiperazine'
p104
NsS'resveratrol'
p105
NsS'diferuloylmethane'
p106
NsS'clinafloxacin'
p107
NsS'luteoline'
p108
NsS'oprelvekin'
p109
NsS'vitamin_d3'
p110
((F0.9
S'vitamin_d'
p111
tp112
S"(st) matching: ratio , lcs, (key,drug) (keynorm,drugnorm 0.9 vitamin_d ('vitamin_d3', 'vitamin_d') ('vitamin_d3', 'vitamin_d')"
p113
tp114
sS'adriamycin'
p115
((F1.0
S'adriamycin_pfs'
p116
tp117
S"(st) matching: ratio , lcs, (key,drug) (keynorm,drugnorm 1.0 adriamycin ('Adriamycin', 'adriamycin_pfs') ('adriamycin', 'adriamycin_pfs')"
p118
tp119
sS'4_vinylcyclohexene_diepoxide'
p120
NsS'arachidonic_acid__cerium_salt__(all_z)_isomer'
p121
NsS'2_3_dimethoxy_1_4_naphtoquinone_(dmnq)'
p122
NsS'chromium(iii)_nicotinate'
p123
NsS'arachidonic_acid__zinc_salt__(all_z)_isomer'
p124
NsS'promyelocytic_leukemia'
p125
NsS'methotrexate'
p126
((F1.0
S'methotrexate_sodium'
p127
tp128
S"Suffix-based-exact-matching ('Methotrexate', 'methotrexate_sodium') ('methotrexate', 'methotrexate_sodium')"
p129
tp130
sS'carboplatin_(36_h)'
p131
NsS'(3_beta_5z_7e)_9_10_secocholesta_5_7_10(19)_trien_3_ol'
p132
NsS'ursacholic_acid'
p133
NsS'alfacalcidol'
p134
NsS'sangivamycin_(nsc_65346)'
p135
NsS'antimony'
p136
NsS'sulforaphane'
p137
NsS'nilotinib'
p138
NsS'nicotinamide_riboside'
p139
NsS'chromium'
p140
NsS'carboplatin_(24_h)'
p141
NsS'sodium_ursodeoxycholate'
p142
NsS'diacetylmorphine'
p143
NsS'fenretinide__13_cis_isomer'
p144
NsS'fenretinimide'
p145
NsS'nitric_oxide__endothelium_derived'
p146
NsS'cediranib'
p147
NsS'arachidonic_acid__lithium_salt__(all_z)_isomer'
p148
NsS'nitrate_vasodilator__endogenous'
p149
NsS'fasudil'
p150
NsS'deferoxamine'
p151
((F1.0
S'deferoxamine_mesylate'
p152
tp153
S"Suffix-based-exact-matching ('deferoxamine', 'deferoxamine_mesylate') ('deferoxamine', 'deferoxamine_mesylate')"
p154
tp155
sS'torcetrapib'
p156
NsS'doxorubicin_'
p157
((F1.0
S'doxorubicin_hydrochloride'
p158
tp159
S"(st) matching: ratio , lcs, (key,drug) (keynorm,drugnorm 1.0 doxorubicin_ ('doxorubicin,', 'doxorubicin_hydrochloride') ('doxorubicin_', 'doxorubicin_hydrochloride')"
p160
tp161
sS'alcohol__rubbing'
p162
NsS'methamphetamine'
p163
((F1.0
S'methamphetamine_hydrochloride'
p164
tp165
S"Suffix-based-exact-matching ('methamphetamine', 'methamphetamine_hydrochloride') ('methamphetamine', 'methamphetamine_hydrochloride')"
p166
tp167
sS'adenosine_triphosphate__manganese_salt'
p168
NsS'creatine'
p169
NsS'etanercept'
p170
NsS'curcumin_cid'
p171
NsS'gefitinib'
p172
NsS'carboplatin'
p173
((F1.0
S'carboplatin'
p174
tp175
S"(st) matching: ratio , lcs, (key,drug) (keynorm,drugnorm 1.0 carboplatin ('Carboplatin', 'carboplatin') ('carboplatin', 'carboplatin')"
p176
tp177
sS'candesartan'
p178
((F1.0
S'candesartan_cilexetil'
p179
tp180
S"(st) matching: ratio , lcs, (key,drug) (keynorm,drugnorm 1.0 candesartan ('candesartan', 'candesartan_cilexetil') ('candesartan', 'candesartan_cilexetil')"
p181
tp182
sS'formol'
p183
NsS'vanadium_pentoxide'
p184
NsS'foretinib'
p185
NsS'ethanol'
p186
NsS'tibolone'
p187
NsS'coenzyme_q10'
p188
NsS'alpha_tocopherol'
p189
NsS'alitretinoin'
p190
NsS'ursobilane'
p191
NsS'chlorpyrifos'
p192
NsS'nvp_tnks656_(tankyrase_inhibitor)'
p193
NsS'd_serine'
p194
NsS'palmitate__sodium'
p195
NsS'2_propanol'
p196
NsS'triiodothyronine_[13c6]'
p197
NsS'fgfr_specific_pd173074_inhibitor'
p198
NsS'trichloroethylene'
p199
NsS'heroin'
p200
NsS'lung_cancer'
p201
NsS'insulin'
p202
NsS'cholestyramine'
p203
((F1.0
S'cholestyramine'
p204
tp205
S"(st) matching: ratio , lcs, (key,drug) (keynorm,drugnorm 1.0 cholestyramine ('Cholestyramine', 'cholestyramine') ('cholestyramine', 'cholestyramine')"
p206
tp207
sS'lipopolysaccharide_(lps)'
p208
NsS'telapristone_acetate'
p209
NsS'gamma_tocotrienol'
p210
NsS'ethyl_alcohol'
p211
NsS'bisphenol_a'
p212
NsS'2_3_7_8_tetrachlorodibenzo_p_dioxin'
p213
NsS'13_cis_isomer_fenretinide'
p214
NsS'phenobarbital_sodium'
p215
NsS'mithramycin'
p216
NsS'streptozotocin'
p217
NsS'luteolin'
p218
NsS'mepenzolate'
p219
NsS'oxide__nitric'
p220
NsS'sunitinib'
p221
((F1.0
S'sunitinib_malate'
p222
tp223
S"(st) matching: ratio , lcs, (key,drug) (keynorm,drugnorm 1.0 sunitinib ('sunitinib', 'sunitinib_malate') ('sunitinib', 'sunitinib_malate')"
p224
tp225
sS'thiamine'
p226
((F1.0
S'thiamine_hydrochloride'
p227
tp228
S"Suffix-based-exact-matching ('thiamine', 'thiamine_hydrochloride') ('thiamine', 'thiamine_hydrochloride')"
p229
tp230
sS'plicamycin'
p231
NsS'4_(bis(2_chloroethyl)amino)benzenebutanoic_acid'
p232
NsS'methoxychlor'
p233
NsS'arsenic'
p234
((F1.0
S'arsenic_trioxide'
p235
tp236
S"(st) matching: ratio , lcs, (key,drug) (keynorm,drugnorm 1.0 arsenic ('ARSENIC', 'arsenic_trioxide') ('arsenic', 'arsenic_trioxide')"
p237
tp238
sS'rosiglitazone'
p239
((F1.0
S'rosiglitazone_maleate'
p240
tp241
S"Suffix-based-exact-matching ('Rosiglitazone', 'rosiglitazone_maleate') ('rosiglitazone', 'rosiglitazone_maleate')"
p242
tp243
sS'cyfluthrin'
p244
NsS'propranolol'
p245
((F1.0
S'propranolol_hydrochloride'
p246
tp247
S"Suffix-based-exact-matching ('propranolol', 'propranolol_hydrochloride') ('propranolol', 'propranolol_hydrochloride')"
p248
tp249
sS'plx4720_cid'
p250
NsS'mercury'
p251
NsS'fluticasone'
p252
((F1.0
S'fluticasone_propionate'
p253
tp254
S"Suffix-based-exact-matching ('fluticasone', 'fluticasone_propionate') ('fluticasone', 'fluticasone_propionate')"
p255
tp256
sS'colistin'
p257
((F0.875
S'colistimethate_sodium'
p258
tp259
S"(st) matching: ratio , lcs, (key,drug) (keynorm,drugnorm 0.875 colisti ('colistin', 'colistimethate_sodium') ('colistin', 'colistimethate_sodium')"
p260
tp261
sS'glycoprotein_gp_2'
p262
NsS'arsenic_cid'
p263
NsS'hydrochloride__heroin'
p264
NsS'lysophosphatidic_acid'
p265
NsS'certolizumab_pegol'
p266
NsS'diamorf'
p267
NsS'1_naphthyl_isothiocyanate'
p268
NsS'retinoic_acid'
p269
NsS'cocaine'
p270
((F0.8571428571428571
S'xylocaine'
p271
tp272
S"(st) matching: ratio , lcs, (key,drug) (keynorm,drugnorm 0.857142857143 ocaine ('cocaine', 'xylocaine') ('cocaine', 'xylocaine')"
p273
tp274
sS'interferon_beta_1b'
p275
NsS'interferon_beta_1a'
p276
NsS'lipopolysaccharide'
p277
NsS'metformin'
p278
((F1.0
S'metformin_hydrochloride'
p279
tp280
S"Suffix-based-exact-matching ('metformin', 'metformin_hydrochloride') ('metformin', 'metformin_hydrochloride')"
p281
tp282
sS'ifn_gamma1b'
p283
NsS'3__4__5_7_tetrahydroxy_flavone'
p284
NsS'sapphyrin'
p285
NsS'mt19c_compound_sid'
p286
NsS'nickel'
p287
NsS'mepenzolate_bromide_cid'
p288
NsS'heregulin'
p289
NsS'5_fluorouracil'
p290
((F0.8571428571428571
S'fluorouracil'
p291
tp292
S"(st) matching: ratio , lcs, (key,drug) (keynorm,drugnorm 0.857142857143 fluorouracil ('5-Fluorouracil', 'fluorouracil') ('5_fluorouracil', 'fluorouracil')"
p293
tp294
sS'n_nitrosodimethylamine'
p295
NsS'ursofalk'
p296
NsS'atarax'
p297
((F1.0
S'atarax'
p298
tp299
S"(st) matching: ratio , lcs, (key,drug) (keynorm,drugnorm 1.0 atarax ('Atarax', 'atarax') ('atarax', 'atarax')"
p300
tp301
sS'3_3__4__5_7_pentahydroxyflavone'
p302
NsS'cytarabine_'
p303
((F0.9090909090909091
S'cytarabine'
p304
tp305
S"(st) matching: ratio , lcs, (key,drug) (keynorm,drugnorm 0.909090909091 cytarabine ('cytarabine,', 'cytarabine') ('cytarabine_', 'cytarabine')"
p306
tp307
sS'sodium_dichromate'
p308
NsS'formaldehyde'
p309
NsS'phorbol'
p310
NsS'2_deoxy_2_((methylnitrosoamino)carbonyl)amino_d_glucose'
p311
NsS'chain__laminin_m'
p312
NsS'rituximab'
p313
NsS'genestein'
p314
NsS'mk_886_cid'
p315
NsS'cigarette_smoke'
p316
NsS'insulin_regular'
p317
NsS'chlorambucil'
p318
NsS'nickel_chloride'
p319
NsS'motexafin'
p320
NsS'1_2_4_benzenetriol'
p321
NsS'dianisyl_trichloroethane'
p322
NsS'lapatinib'
p323
((F1.0
S'lapatinib'
p324
tp325
S"(st) matching: ratio , lcs, (key,drug) (keynorm,drugnorm 1.0 lapatinib ('Lapatinib', 'lapatinib') ('lapatinib', 'lapatinib')"
p326
tp327
sS'concanavalin_a'
p328
NsS'cadmium_dichloride'
p329
NsS'nitric_oxide'
p330
NsS'harman'
p331
NsS'irinotecan'
p332
((F1.0
S'irinotecan_hydrochloride'
p333
tp334
S"Suffix-based-exact-matching ('irinotecan', 'irinotecan_hydrochloride') ('irinotecan', 'irinotecan_hydrochloride')"
p335
tp336
sS'1_25_dihydroxyvitamin_d'
p337
NsS'aplidin'
p338
NsS'4_hydroxynonenal'
p339
NsS'calcitonin'
p340
((F1.0
S'calcitonin_salmon'
p341
tp342
S"(st) matching: ratio , lcs, (key,drug) (keynorm,drugnorm 1.0 calcitonin ('Calcitonin', 'calcitonin_salmon') ('calcitonin', 'calcitonin_salmon')"
p343
tp344
sS'imatinib'
p345
((F1.0
S'imatinib_mesylate'
p346
tp347
S"Suffix-based-exact-matching ('imatinib', 'imatinib_mesylate') ('imatinib', 'imatinib_mesylate')"
p348
tp349
sS'ursodeoxycholate__sodium'
p350
NsS'ursodeoxycholic_acid'
p351
NsS'trichloroethane__dianisyl'
p352
NsS'acid__palmitic'
p353
NsS'1_piperonylpiperazine'
p354
NsS'capsaicin'
p355
NsS'pertuzumab'
p356
NsS'titanium_dioxide'
p357
NsS'neocarzinostatin'
p358
NsS'zoledronate'
p359
NsS'monuron'
p360
NsS'streptozocin'
p361
NsS'quetiapine'
p362
((F1.0
S'quetiapine_fumarate'
p363
tp364
S"Suffix-based-exact-matching ('quetiapine', 'quetiapine_fumarate') ('quetiapine', 'quetiapine_fumarate')"
p365
tp366
sS'hydrogen_peroxide'
p367
NsS'isopropyl_alcohol'
p368
NsS'puromycin__2xec50__1d'
p369
NsS'sodium_arsenite'
p370
NsS'androstanolone'
p371
NsS'atriphos'
p372
NsS'arachidonic_acid__sodium_salt__(all_z)_isomer'
p373
NsS'leptin'
p374
NsS'chlorbutin'
p375
NsS'palmitic_acid'
p376
NsS'vitamin_c'
p377
NsS'corticosterone'
p378
NsS'vitamin_e'
p379
NsS'arachidonic_acid__(all_z)_isomer__3h_labeled'
p380
NsS'5_aza_2__deoxycytidine'
p381
NsS'zinc_acetate'
p382
((F1.0
S'zinc_chloride'
p383
tp384
S"Suffix-based-exact-matching ('ZINC_ACETATE', 'zinc_chloride') ('zinc_acetate', 'zinc_chloride')"
p385
tp386
sS'sodium_butyrate'
p387
NsS'aldosterone'
p388
NsS'grepafloxacin'
p389
NsS'casiigly'
p390
NsS'pbde_47'
p391
NsS'pbde_85'
p392
NsS'cicloheximide'
p393
NsS'ifn_alphacon1'
p394
NsS'merosin'
p395
NsS'methylphenidate'
p396
((F1.0
S'methylphenidate_hydrochloride'
p397
tp398
S"Suffix-based-exact-matching ('Methylphenidate', 'methylphenidate_hydrochloride') ('methylphenidate', 'methylphenidate_hydrochloride')"
p399
tp400
sS'min_i_jet_morphine_sulphate'
p401
NsS'hexadecanoic_acid'
p402
NsS'troglitazone'
p403
NsS'3h_1_2_dithiole_3_thione'
p404
NsS'ubiquinol'
p405
NsS'5_aminosalicylic_acid'
p406
NsS'cadmium'
p407
NsS'ascorbyl_2_phosphate'
p408
NsS'cycloheximide'
p409
NsS'deltamethrin'
p410
NsS'oxacillin'
p411
((F1.0
S'oxacillin_sodium'
p412
tp413
S"Suffix-based-exact-matching ('oxacillin', 'oxacillin_sodium') ('oxacillin', 'oxacillin_sodium')"
p414
tp415
sS'cadmium_chloride'
p416
NsS'fenretinide'
p417
NsS'promegestone'
p418
NsS'pbde_47_cid'
p419
NsS'pristane'
p420
NsS'hypochlorous_acid'
p421
NsS'thapsigargin'
p422
NsS'doxorubicin'
p423
((F1.0
S'doxorubicin_hydrochloride'
p424
tp425
S"Suffix-based-exact-matching ('doxorubicin', 'doxorubicin_hydrochloride') ('doxorubicin', 'doxorubicin_hydrochloride')"
p426
tp427
sS'interferon_&icirc'
p428
NsS'arachidonic_acid'
p429
NsS'heroin_hydrochloride'
p430
NsS'adenosine_triphosphate__chromium_ammonium_salt'
p431
NsS'cholecalciferols'
p432
NsS'nvp_tnks656'
p433
NsS'deoxyursocholic_acid'
p434
NsS'ursolite'
p435
NsS'deta_nonoate'
p436
NsS'colorectal_adenocarcinoma'
p437
NsS'1_(4_methoxyphenyl)piperazine'
p438
NsS'hydroquinone'
p439
NsS'imatinib_(glivec)'
p440
NsS'adenosine_triphosphate__magnesium_chloride'
p441
Ns.