(dp0
S'3_7_dimethyl_9_(2_6_6_trimethyl_1_cyclohexen_1_yl)_2_4_6_8_nonatetraen_1_ol__(all_e)_isomer'
p1
NsS'lubiprostone'
p2
NsS'beta_(aminomethyl)_4_chlorobenzenepropanoic_acid'
p3
NsS'trastuzumab'
p4
NsS'niacin'
p5
NsS'3_alpha_7_beta_dihydroxy_5_beta_cholan_24_oic_acid'
p6
NsS'bleomycins'
p7
NsS'adrucil'
p8
NsS'gelidina'
p9
NsS'ethinyl_estradiol'
p10
NsS'pregn_4_ene_3_20_dione__17_(acetyloxy)_6_methyl___(6alpha)_'
p11
NsS'phisohex'
p12
NsS'toprol'
p13
NsS'normalip'
p14
NsS'galzin'
p15
NsS'd3__1_25_dihydroxyvitamin'
p16
NsS'stada__fenofibrat'
p17
NsS'gen_fenofibrate'
p18
NsS'2_propylpentanoic_acid'
p19
NsS'ribodoxo'
p20
NsS'niacin_ammonium_salt'
p21
NsS'cbdca'
p22
NsS'diclophenac'
p23
NsS'desoxynorephedrin'
p24
NsS'clozapine'
p25
NsS'nsc_241240'
p26
NsS'propanolol'
p27
NsS'ciprofloxacin_hydrochloride_anhydrous'
p28
NsS'cb_1348'
p29
NsS'alitretinoin'
p30
NsS'absolute_alcohol'
p31
NsS'niacin_cobalt_(2+)_salt'
p32
NsS'teturam'
p33
NsS'bleomycin_b2'
p34
NsS'cytoxan'
p35
NsS'debat__f\xe3\xa9nofibrate'
p36
NsS'f\xe3\xa9nofibrate_debat'
p37
NsS'fluorouracil_gry'
p38
NsS'ursobilane'
p39
NsS'urso'
p40
NsS'decostriol'
p41
NsS'metadate'
p42
NsS'gen_baclofen'
p43
NsS'sdz202_250'
p44
NsS'fluocinolone_acetonide'
p45
NsS'5_fu_lederle'
p46
NsS'tampovagan'
p47
NsS'gefitinib'
p48
NsS'lipidil'
p49
NsS'ethanol'
p50
NsS'cgp2175'
p51
NsS'triclosan'
p52
NsS'noroxin'
p53
NsS'bis(diethylthiocarbamoyl)_disulfide'
p54
NsS'sulfate__amphetamine'
p55
NsS'ethinyl_estradiol__(8_alpha_9_beta_13_alpha_14_beta)_isomer'
p56
NsS'doxorubicina_funk'
p57
NsS'baclospas'
p58
NsS'nicotine_tartrate'
p59
NsS'mithramycin'
p60
NsS'irgasan_dp300'
p61
NsS'ritalin_sr'
p62
NsS'cis_diamminedichloroplatinum'
p63
NsS'thiamine'
p64
NsS'antabus'
p65
NsS'5_fu_medac'
p66
NsS'niacin_potassium_salt'
p67
NsS'niacin_tartrate'
p68
NsS'permethrin__(1s_cis)_isomer'
p69
NsS'gp_45_840'
p70
NsS'testopel'
p71
NsS'nsc_125973'
p72
NsS'sdz_202_250'
p73
NsS's_3151'
p74
NsS'5_fluorouracil_biosyn'
p75
NsS'mk0366'
p76
NsS'phenamine'
p77
NsS'5_fluorouracil'
p78
NsS'flurodex'
p79
NsS'permethrin__(1r_cis)_isomer'
p80
NsS'calcitriol_kyramed'
p81
NsS'methylphenylisoxazolyl_penicillin'
p82
NsS'testosterone'
p83
NsS'ranolazine'
p84
NsS'lopressor'
p85
NsS'tricor'
p86
NsS'permethrin'
p87
NsS'quetiapine'
p88
NsS'metoprolol'
p89
NsS'mifegyne'
p90
NsS'ursodeoxycholic_acid'
p91
NsS'farmiblastina'
p92
NsS'titanium_dioxide'
p93
NsS'jm_8'
p94
NsS'sustanon'
p95
NsS'cosmegen_lyovac'
p96
NsS'doxorubicin_nc'
p97
NsS'isopropylnoradrenaline'
p98
NsS'fulvestrant'
p99
NsS'permethrin__(trans)_isomer'
p100
NsS'am_715'
p101
NsS'carbosin'
p102
NsS'zinc_acetate'
p103
NsS'disulfide__tetraethylthiuram'
p104
NsS'b_518'
p105
NsS'sulfate__bleomycin'
p106
NsS'nsc_3088'
p107
NsS'dh_581'
p108
NsS'adriablastine'
p109
NsS'isoproterenol_hydrochloride'
p110
NsS'calcitriol'
p111
NsS'morphine'
p112
NsS'awd__baclofen'
p113
NsS'morphine_sulfate'
p114
NsS'levo_amphetamine'
p115
NsS'sorafenib'
p116
NsS'letrozole'
p117
NsS'niacin_zinc_salt'
p118
NsS'alcohol__ethyl'
p119
NsS'vupral'
p120
NsS'lithium_nicotinate'
p121
NsS'ozidia'
p122
NsS'procytox'
p123
NsS'flucinar'
p124
NsS'bocatriol'
p125
NsS'thiamine_mononitrate'
p126
NsS'cis_permethrin'
p127
NsS'1_25_dihydroxy_20_epi_vitamin_d3'
p128
NsS'farmistin'
p129
NsS'amfetamine'
p130
NsS'lympholysin'
p131
NsS'levoamphetamine'
p132
NsS'cyclophosphamide'
p133
NsS'betaloc'
p134
NsS'pyrazinamide'
p135
NsS'atrofen'
p136
NsS'ezetimibe'
p137
NsS'aneurin'
p138
NsS'celecoxib'
p139
NsS'nicocap'
p140
NsS'glupitel'
p141
NsS'norfloxacin'
p142
NsS'paclitaxel'
p143
NsS'concerta'
p144
NsS'dipropyl_acetate'
p145
NsS'procetofen__antara_micronized'
p146
NsS'cellcristin'
p147
NsS'anapriline'
p148
NsS'carbachol'
p149
NsS'nicotine'
p150
NsS'niacin_magnesium_salt'
p151
NsS'bortezomib'
p152
NsS'ethinyl_estradiol__(8_alpha)_isomer'
p153
NsS'irgasan_dp_300'
p154
NsS'ethinylestradiol_jenapharm'
p155
NsS'amphetamine_sulfate'
p156
NsS'glypidizine'
p157
NsS'miostat'
p158
NsS'nsc241240'
p159
NsS'sodium_ursodeoxycholate'
p160
NsS'agostilben'
p161
NsS'nico400'
p162
NsS'beloc_duriles'
p163
NsS'etanercept'
p164
NsS'medroxyprogesterone_17_acetate'
p165
NsS'lofibra'
p166
NsS'bleomycin_a2'
p167
NsS'arsenic_trioxide'
p168
NsS'isopropyl_noradrenaline'
p169
NsS'derma_smooth_fs'
p170
NsS'capreomycin_sulfate'
p171
NsS'lorelco'
p172
NsS'renatriol'
p173
NsS'2_propanol'
p174
NsS'1_alpha__25_dihydroxy_20_epi_vitamin_d3'
p175
NsS'fenofibrat_hexal'
p176
NsS'isadrin'
p177
NsS'oxandrolone'
p178
NsS'dopar'
p179
NsS'ba34647'
p180
NsS'neocarbo'
p181
NsS'zinc_acetate_dihydrate'
p182
NsS'ethyl_alcohol'
p183
NsS'adriblastine'
p184
NsS'sunitinib'
p185
NsS'magnesium_valproate'
p186
NsS'temozolomide'
p187
NsS'propranolol'
p188
NsS'ru38486'
p189
NsS'ciba34_647ba'
p190
NsS'ciprofloxacin'
p191
NsS'zk_98296'
p192
NsS'cyclopropanecarboxylic_acid__3_(2_2_dichloroethenyl)_2_2_dimethyl___(3_phenoxyphenyl)methyl_ester'
p193
NsS'jellisoft'
p194
NsS'certolizumab_pegol'
p195
NsS'6_alpha_methyl_17alpha_hydroxyprogesterone_acetate'
p196
NsS'mc1288'
p197
NsS'bleomycin'
p198
NsS'melizide'
p199
NsS'morphine_sulfate_(2:1)__anhydrous'
p200
NsS'cb1348'
p201
NsS'ursofalk'
p202
NsS'vitamin_b_1'
p203
NsS'lf_178'
p204
NsS'zk98296'
p205
NsS'lipidil_ter'
p206
NsS'bellon__bl\xe3\xa9omycine'
p207
NsS'fluortriamcinolone_acetonide'
p208
NsS'levopa'
p209
NsS'baclof\xe3\xa8neirex'
p210
NsS'sc11585'
p211
NsS'apo_baclofen'
p212
NsS'nrdc143'
p213
NsS'mtw_fenofibrat'
p214
NsS'sodium_salt__niacin'
p215
NsS'mif\xe3\xa9gyne'
p216
NsS'cis_diamminedichloroplatinum(ii)'
p217
NsS'niacin_lithium_salt__hemihydrate'
p218
NsS'niacin_hydrochloride'
p219
NsS'cytophosphane'
p220
NsS'tretinoin'
p221
((F1.0
S'isotretinoin'
p222
tp223
S"(st) matching: ratio , lcs, (key,drug) (keynorm,drugnorm 1.0 tretinoin ('tretinoin', 'isotretinoin') ('tretinoin', 'isotretinoin')"
p224
tp225
sS'platidiam'
p226
NsS'haemato_fu'
p227
NsS'nu_fenofibrate'
p228
NsS'7_epi_taxol'
p229
NsS'metoprolol_tartrate'
p230
NsS'co_fluocin'
p231
NsS'methylphenidate'
p232
NsS'clofen'
p233
NsS'troglitazone'
p234
((F0.8333333333333334
S'pioglitazone'
p235
tp236
S"(st) matching: ratio , lcs, (key,drug) (keynorm,drugnorm 0.833333333333 oglitazone ('troglitazone', 'pioglitazone') ('troglitazone', 'pioglitazone')"
p237
tp238
sS'cis_dichlorodiammineplatinum(ii)'
p239
NsS'doxorubicine_baxter'
p240
NsS'olanzapine'
p241
NsS'urokit_doxo_cell'
p242
NsS'deoxyursocholic_acid'
p243
NsS'hydrochloride__propranolol'
p244
NsS'glipizide'
p245
NsS'vincasar'
p246
NsS'cetuximab'
p247
NsS'bleo_cell'
p248
NsS'tobramycin'
p249
NsS'pcp_gaba'
p250
NsS'enzalutamide'
p251
NsS'duramorph'
p252
NsS'vemurafenib'
p253
NsS'capex'
p254
NsS'vorinostat'
p255
NsS'1_25_dihydroxycholecalciferol'
p256
NsS'sapoderm'
p257
NsS'diclofenac_potassium'
p258
NsS'menadione'
p259
NsS'hydrochloride_anhydrous__ciprofloxacin'
p260
NsS'trovafloxacin'
p261
NsS'bay_09867'
p262
NsS'ethinyl_oestradiol_effik'
p263
NsS'h_93_26'
p264
NsS'gemcitabine'
p265
NsS'feloran'
p266
NsS'5_hu_hexal'
p267
NsS'3_hydroxy_l_tyrosine'
p268
NsS'fenofibrat_fph'
p269
NsS'anavar'
p270
NsS'metoprolol_cr_xl'
p271
NsS'leponex'
p272
NsS'minidiab'
p273
NsS'diethylstilbestrol'
p274
NsS'hydrochloride__niacin'
p275
NsS'histerone'
p276
NsS'vincristine'
p277
NsS'brulamycin'
p278
NsS'genbaclofen'
p279
NsS'progynon_c'
p280
NsS'lipantil'
p281
NsS'cholofalk'
p282
NsS'procetofen'
p283
NsS'ercar'
p284
NsS'sr_38'
p285
NsS'l_dopa'
p286
NsS'isuprel'
p287
NsS'adriamycin'
p288
NsS'fluorouracile_dakota'
p289
NsS'taxol__bris'
p290
NsS'tersaseptic'
p291
NsS'calcitriol_nefro'
p292
NsS'ethynyl_estradiol'
p293
NsS'sr38'
p294
NsS'doxo_cell'
p295
NsS'alcohol__rubbing'
p296
NsS'cyclophosphamide_monohydrate'
p297
NsS'acetonide__fluortriamcinolone'
p298
NsS'synamol'
p299
NsS'carboplatin'
p300
NsS'vincristin_medac'
p301
NsS'noradrenaline__isopropyl'
p302
NsS'pemetrexed'
p303
NsS'meractinomycin'
p304
NsS'retinol'
p305
((F0.8571428571428571
S'13_cis_retinoic_acid'
p306
tp307
S"(st) matching: ratio , lcs, (key,drug) (keynorm,drugnorm 0.857142857143 retino ('retinol', '13_cis_retinoic_acid') ('retinol', '13_cis_retinoic_acid')"
p308
tp309
sS'betaloc_astra'
p310
NsS'b518'
p311
NsS'panavir'
p312
NsS'androgel'
p313
NsS'apo_feno_micro'
p314
NsS'tosylate__niacin'
p315
NsS'fluorouracil_potassium_salt'
p316
NsS'microfollin_forte'
p317
NsS'biphenabid'
p318
NsS'8_isotestosterone'
p319
NsS'curretab'
p320
NsS'oxacillin'
p321
NsS'aluminum_salt__niacin'
p322
NsS'rosiglitazone'
p323
NsS'microshield_t'
p324
NsS'myocet'
p325
NsS'fluoruracil'
p326
NsS'oxacillin__sodium'
p327
NsS'2_4_4__trichloro_2__hydroxydiphenyl_ether'
p328
NsS'divalproex'
p329
NsS'levetiracetam'
p330
NsS'dactinomycin'
p331
NsS'novo_fenofibrate'
p332
NsS'nicotinate__lithium'
p333
NsS'carbacholine'
p334
NsS'lebic'
p335
NsS'blenoxane'
p336
NsS'nebicin'
p337
NsS'k_4024'
p338
NsS'silkis'
p339
NsS'vincrisul'
p340
NsS'voltaren'
p341
NsS'irinotecan'
p342
NsS'pms_baclofen'
p343
NsS'hydrochloride__isoproterenol'
p344
NsS'isopto_carbachol'
p345
NsS'obsidan'
p346
NsS'tobracin'
p347
NsS'rexigen'
p348
NsS'onkocristin'
p349
NsS'avlocardyl'
p350
NsS'fluorouracil'
p351
NsS'chlorbutin'
p352
NsS'diclofenac__sodium'
p353
NsS'polymyxin_b_sulfate'
p354
NsS'nicotinic_acid'
p355
NsS'capreomycin'
p356
NsS'4_(1_hydroxy_2_((1_methylethyl)amino)ethyl)_1_2_benzenediol'
p357
NsS'synalar_hp'
p358
NsS'pms_fenofibrate_micro'
p359
NsS'platino'
p360
NsS'fluodermo'
p361
NsS'lyovac_cosmegen'
p362
NsS'cgp_2175'
p363
NsS'glidiazinamide'
p364
NsS'lf178'
p365
NsS'ursolite'
p366
NsS'fmc_33297'
p367
NsS'hydroquinone'
p368
NsS'nsc3088'
p369
NsS'bl\xe3\xa9omycine_bellon'
p370
NsS'17_beta_hydroxy_4_androsten_3_one'
p371
NsS'cisplatin'
p372
NsS'dexpropranolol'
p373
NsS'tetraethylthioperoxydicarbonic_diamide__((h2n)c(s))2s2'
p374
NsS'obracin'
p375
NsS'dichlorodiammineplatinum'
p376
NsS'baclof\xe3\xa8ne_irex'
p377
NsS'mk_0366'
p378
NsS'nu_baclo'
p379
NsS'andropatch'
p380
NsS'chlorambucil'
p381
NsS'nsc125973'
p382
NsS'veramix'
p383
NsS'medroxyprogesterone_17_acetate__(6_alpha_17_alpha)_isomer'
p384
NsS'bay09867'
p385
NsS'nico_400'
p386
NsS'doxorubicin_hexal'
p387
NsS'monohydrate__ciprofloxacin_monohydrochloride'
p388
NsS'cliniclean'
p389
NsS'biocisplatinum'
p390
NsS'prednisolone'
p391
((F1.0
S'methylprednisolone_sodium_succinate'
p392
tp393
S"(st) matching: ratio , lcs, (key,drug) (keynorm,drugnorm 1.0 prednisolone ('prednisolone', 'methylprednisolone_sodium_succinate') ('prednisolone', 'methylprednisolone_sodium_succinate')"
p394
tp395
sS'3_phenoxybenzyl_cis_trans_(1rs)_3_(2_2_dichlorovinyl)_2_2_dimethylcyclopropanecarboxylate'
p396
NsS'ribocarbo'
p397
NsS'morphia'
p398
NsS'anzatax'
p399
NsS'actinomycin_d'
p400
NsS'novapirina'
p401
NsS'orthophen'
p402
NsS'r_38486'
p403
NsS'probucol'
p404
NsS'trans_permethrin'
p405
NsS'acid__deoxyursocholic'
p406
NsS'nittifor'
p407
NsS'acid__ursodeoxycholic'
p408
NsS'ay_20694'
p409
NsS'valproate_calcium'
p410
NsS'lior\xe3\xa9sal'
p411
NsS'depoprovera'
p412
NsS'mc_1288'
p413
NsS'estradiol__ethynyl'
p414
NsS'stilbene_estrogen'
p415
NsS'diclofenac'
p416
NsS'carbastat'
p417
NsS'oncovine'
p418
NsS'sdz_202250'
p419
NsS'ursacholic_acid'
p420
NsS'soltriol'
p421
NsS'heumann__fenofibrat'
p422
NsS'fenofibrat_ratiopharm'
p423
NsS'estradiol'
p424
((F1.0
S'estradiol_patch'
p425
tp426
S"(st) matching: ratio , lcs, (key,drug) (keynorm,drugnorm 1.0 estradiol ('estradiol', 'estradiol_patch') ('estradiol', 'estradiol_patch')"
p427
tp428
sS'gestapuran'
p429
NsS'permethrin__(cis)_isomer'
p430
NsS'cyclophosphamide__(s)_isomer'
p431
NsS'3_pyridinecarboxylic_acid'
p432
NsS'sc_11585'
p433
NsS'adrimedac'
p434
NsS'penicillin__methylphenylisoxazolyl'
p435
NsS'mifepristone'
p436
NsS'oxacillin__monosodium_salt__anhydrous'
p437
NsS'valproate'
p438
NsS'1_alpha_25_dihydroxycholecalciferol'
p439
NsS'everolimus'
p440
NsS'sodium_oxacillin'
p441
NsS'fenofibrate'
p442
NsS'convulsofin'
p443
NsS'fenofibrat_azu'
p444
NsS'diethylstilbestrol__(z)_isomer'
p445
NsS'chloride__morphine'
p446
NsS'deferasirox'
p447
NsS'praxel'
p448
NsS'paclitaxel__(4_alpha)_isomer'
p449
NsS'carboptic'
p450
NsS'l_amphetamine'
p451
NsS'nrdc_143'
p452
NsS'depo_medroxyprogesterone_acetate'
p453
NsS'(m_phenoxybenzyl)_cis_trans_3_(2_2_dichlorovinyl)_2_2_dimethylcyclopropanecarboxylate'
p454
NsS'plicamycin'
p455
NsS'4_(bis(2_chloroethyl)amino)benzenebutanoic_acid'
p456
NsS'ciprofloxacin_monohydrochloride_monohydrate'
p457
NsS'toprol_xl'
p458
NsS'distilb\xe3\xa8ne'
p459
NsS'semisodium_valproate'
p460
NsS'novodrin'
p461
NsS'bleomicina'
p462
NsS'paraplatin'
p463
NsS'alcophobin'
p464
NsS'nia_33297'
p465
NsS'flurosyn'
p466
NsS'pp_557'
p467
NsS'aquasept'
p468
NsS'depakine'
p469
NsS'spesicor'
p470
NsS'ba_34647'
p471
NsS'mycophenolate_mofetil'
p472
NsS'efudix'
p473
NsS'rituximab'
p474
NsS'docetaxel'
p475
NsS'fenofibrat_von_ct'
p476
NsS'methylphenidate_hydrochloride'
p477
NsS'ru_38486'
p478
NsS'cil'
p479
((F1.0
S'piperacillin_tazobactam'
p480
tp481
S"(st) matching: ratio , lcs, (key,drug) (keynorm,drugnorm 1.0 cil ('cil', 'piperacillin_tazobactam') ('cil', 'piperacillin_tazobactam')"
p482
tp483
sS'testoderm'
p484
NsS'doxorubicin'
p485
NsS'fluoro_uracile_icn'
p486
NsS'permethrin__trans_(1rs)_isomer'
p487
NsS'sulfate__morphine'
p488
NsS'tsentedrin'
p489
NsS'dakota__fluorouracile'
p490
NsS'haloperidol'
p491
NsS'ursodeoxycholate__sodium'
p492
NsS'fmc33297'
p493
NsS'zoledronate'
p494
NsS'ster_zac_bath_concentrate'
p495
NsS'carbamoylcholine'
p496
NsS'isopropyl_alcohol'
p497
NsS'estinyl'
p498
NsS'fluorouracil_monopotassium_salt'
p499
NsS'sulfate__vincristine'
p500
NsS'nsc_26271'
p501
NsS'vitamin_a'
p502
NsS'vitamin_e'
p503
NsS'azu__fenofibrat'
p504
NsS'fenofanton'
p505
NsS'baclofen'
p506
NsS'ritaline'
p507
NsS'valproic_acid'
p508
NsS'onkofluor'
p509
NsS'all_trans_retinol'
p510
NsS'disulfiram'
p511
NsS'amphetamine'
p512
NsS'isoproterenol'
p513
NsS'nsc26271'
p514
NsS'medroxyprogesterone_acetate'
p515
NsS'bexarotene'
p516
NsS'jenapharm__ethinylestradiol'
p517
NsS'levodopa'
p518
NsS'equasym'
p519
Ns.