(dp0
S'fentiazac'
p1
NsS'bromocryptine_mesylate'
p2
NsS'terfenadin_ratiopharm'
p3
NsS'meptazinol'
p4
NsS'cinnarizin_al'
p5
NsS'h_89_dihydrochloride'
p6
NsS'domperidon'
p7
NsS'thioproperazine_dimesylate'
p8
NsS'quercetin__3_rhamnosyl_glucosyl'
p9
NsS'idelalisib'
p10
NsS'pantoprazole'
p11
((F1.0
S'pantoprazole_sodium'
p12
tp13
S"Suffix-based-exact-matching ('pantoprazole', 'pantoprazole_sodium') ('pantoprazole', 'pantoprazole_sodium')"
p14
tp15
sS'vincamine'
p16
NsS'crizotinib_10'
p17
NsS'nvp_tae684'
p18
NsS'lawsone'
p19
NsS'carbetapentane_citrate'
p20
NsS'lofepramine'
p21
NsS'amuvatinib_10'
p22
NsS'ritanserin_tartrate'
p23
NsS'rilmenidine_hemifumarate'
p24
NsS'pifithrin__a_hydrobromide'
p25
NsS'bc__bromhexin'
p26
NsS'endocistobil'
p27
NsS'phenamil'
p28
NsS'selumetinib'
p29
NsS'ioxaglic_acid'
p30
NsS'novo_gliclazide'
p31
NsS'nilotinib_10'
p32
NsS'chaetocin'
p33
NsS'marmesin'
p34
NsS'apoptosis_activator_2'
p35
NsS'cdk1/5_inhibitor'
p36
NsS'camptothecine'
p37
NsS'byssochlamic_acid'
p38
NsS'rondual_kinase_inhibitor_10'
p39
NsS'gefitinib'
p40
NsS'tanespimycin'
p41
NsS'dioxybenzone'
p42
NsS'naltrindole'
p43
NsS'nitrendipin_lindo'
p44
NsS'prima_1_met'
p45
NsS'molsidomin_stada'
p46
NsS'homo_gamma_linolenic_acid'
p47
NsS'gsk_3_inhibitor_ii'
p48
NsS'dequalinium_dichloride'
p49
NsS'entinostat_10'
p50
NsS'karakoline'
p51
NsS'15_deoxy_?12_14_prostaglandin_j2'
p52
NsS'corvaton'
p53
NsS'ektebin'
p54
NsS'ed_csc_15'
p55
NsS'mercurothiolate'
p56
NsS'trequinsin_hydrochloride'
p57
NsS'kenpaullone'
p58
NsS'cdk2/5_inhibitor'
p59
NsS'pyrantel_tartrate'
p60
NsS'sappanone_a_trimethyl_ether'
p61
NsS'advantage_s'
p62
NsS'cgp_71683_hydrochloride'
p63
NsS'rolipram'
p64
NsS'capsidol'
p65
NsS'dacomitinib_10'
p66
NsS'delcorine'
p67
NsS'nitrepuren'
p68
NsS'tiratricol__3_3__5_triiodothyroacetic_acid'
p69
NsS'ciprofibrate'
p70
NsS'chlorpromazine'
p71
((F1.0
S'chlorpromazine_hydrochloride'
p72
tp73
S"Suffix-based-exact-matching ('chlorpromazine', 'chlorpromazine_hydrochloride') ('chlorpromazine', 'chlorpromazine_hydrochloride')"
p74
tp75
sS'skf_525a'
p76
NsS'n_n_hexamethyleneamiloride'
p77
NsS'rifampicin'
p78
NsS'tegaserod'
p79
NsS'm_3m3fbs'
p80
NsS'serdemetan'
p81
NsS'senzit'
p82
NsS'azasetron'
p83
NsS'medrysone'
p84
NsS'linolenic_acid__homo_gamma'
p85
NsS'mgcd_265'
p86
NsS'enteroquinol'
p87
NsS'telenzepine_dihydrochloride'
p88
NsS'vertigo_neogama'
p89
NsS'cuneatin_methyl_ether'
p90
NsS'prenylamine_lactate'
p91
NsS'hexylresorcinol'
p92
NsS'capsaicin'
p93
NsS'gsk_3_inhibitor_ii_10'
p94
NsS'prostaglandin_e2'
p95
NsS'sr_57227_hydrochloride'
p96
NsS'etilefrin_ratiopharm'
p97
NsS'corazole'
p98
NsS'tivozanib'
p99
NsS'fludarabine'
p100
((F1.0
S'fludarabine_phosphate'
p101
tp102
S"(st) matching: ratio , lcs, (key,drug) (keynorm,drugnorm 1.0 fludarabine ('fludarabine', 'fludarabine_phosphate') ('fludarabine', 'fludarabine_phosphate')"
p103
tp104
sS'quetiapine'
p105
((F1.0
S'quetiapine_fumarate'
p106
tp107
S"Suffix-based-exact-matching ('quetiapine', 'quetiapine_fumarate') ('quetiapine', 'quetiapine_fumarate')"
p108
tp109
sS'protionamide'
p110
NsS'prunetin'
p111
NsS'cinobufagin'
p112
NsS'fenasal'
p113
NsS'n1_(2__tetrahydrofuryl)_5_fluorouracil'
p114
NsS'glycocholic_acid'
p115
NsS'talniflumate'
p116
NsS'bw_b_70c'
p117
NsS'trametinib_10'
p118
NsS'pms_moclobemide'
p119
NsS'niguldipine'
p120
NsS'tpca_1'
p121
NsS'at_mlpcn_csc_006'
p122
NsS'alvocidib_10'
p123
NsS'syn\xc3\xa9dil'
p124
NsS'isoreserpine'
p125
NsS'fu_jmbii113b'
p126
NsS'bufalin'
p127
NsS'ingenol_3__20_dibenzoate'
p128
NsS'ct_incb'
p129
NsS'puromycin'
p130
NsS'brd_k42635745_(suloctidil)'
p131
NsS'florafur'
p132
NsS'cain_s_acridine'
p133
NsS'diphenylpyraline_hydrochloride'
p134
NsS'bcl_2_inhibitor'
p135
NsS'vatalanib'
p136
NsS'9_amino_1_2_3_4_tetrahydroacridine'
p137
NsS'brd_k37694030_(doxepin_hydrochloride)'
p138
NsS'dynexan_mhp'
p139
NsS'gabexate'
p140
NsS'brivanib_10'
p141
NsS'glauconide'
p142
NsS'rho_kinase_inhibitor_ii'
p143
NsS'kanamycin_a_sulfate'
p144
NsS'(e)_capsaicin'
p145
NsS'gr_144053_trihydrochloride'
p146
NsS'pipamperone'
p147
NsS'flubendazole'
p148
NsS'17_alpha_testosterone'
p149
NsS'moclobemid_1a_pharma'
p150
NsS'isorotenone'
p151
NsS'oval__patentex'
p152
NsS'hydrochloride__biperiden'
p153
NsS'cyclopenthiazide'
p154
NsS'bucladesine__monosodium_salt'
p155
NsS'sulfaquinoxaline_sodium_salt'
p156
NsS'cyclopamine'
p157
NsS'levocetirizine'
p158
((F1.0
S'levocetirizine_hydrochloride'
p159
tp160
S"Suffix-based-exact-matching ('levocetirizine', 'levocetirizine_hydrochloride') ('levocetirizine', 'levocetirizine_hydrochloride')"
p161
tp162
sS'aurorex'
p163
NsS'sdz_nkt_343'
p164
NsS'propyl_beta_carboline_3_carboxylate'
p165
NsS'fluvastatin_sodium_salt'
p166
NsS'forskolin'
p167
NsS'sulfate__vindesine'
p168
NsS'rhodomyrtoxin_b'
p169
NsS'rompun'
p170
NsS'naringenine'
p171
NsS'epibatidine_(+/_)'
p172
NsS'folinic_acid_calcium_salt'
p173
NsS'p_aminosalicylic_acid_monolithium_salt'
p174
NsS'r(_)_2_10_11_trihydroxyaporphine'
p175
NsS'sk&f_525_a'
p176
NsS'celastrol'
p177
NsS'doramapimod_10'
p178
NsS'dubinidine'
p179
NsS'bibx_1382_dihydrochloride'
p180
NsS'mdl_73005ef_hydrochloride'
p181
NsS'fenretinide'
p182
NsS'cinarizine'
p183
NsS'vinorelbine'
p184
((F1.0
S'vinorelbine_tartrate'
p185
tp186
S"(st) matching: ratio , lcs, (key,drug) (keynorm,drugnorm 1.0 vinorelbine ('vinorelbine', 'vinorelbine_tartrate') ('vinorelbine', 'vinorelbine_tartrate')"
p187
tp188
sS'sdm25n_hydrochloride'
p189
NsS'gastro_entericanis_biocanina'
p190
NsS'methandriol'
p191
NsS'fluphenazine_n_2_chloroethane__dihydrochloride'
p192
NsS'trans_1_4_bis(2_chlorobenzaminomethyl)cyclohexane_dihydrochloride'
p193
NsS'prestw_550'
p194
NsS'h_9_dihydrochloride'
p195
NsS'brd_k23478508_(digoxin)'
p196
NsS'rimcazole_dihydrochloride'
p197
NsS'penicillic_acid'
p198
NsS'arlidin'
p199
NsS'pazopanib_10'
p200
NsS'tropisetron_hcl'
p201
NsS'modane'
p202
NsS'immethridine_dihydrobromide'
p203
NsS'akt_inhibitor_1_2'
p204
NsS'paxilline'
p205
NsS'desglucotransvaaline'
p206
NsS'mitoxantrone_10'
p207
((F0.8666666666666667
S'mitoxantrone_hydrochloride'
p208
tp209
S"(st) matching: ratio , lcs, (key,drug) (keynorm,drugnorm 0.866666666667 mitoxantrone_ ('mitoxantrone_10', 'mitoxantrone_hydrochloride') ('mitoxantrone_10', 'mitoxantrone_hydrochloride')"
p210
tp211
sS'erythrosine_sodium'
p212
NsS'alvocidib'
p213
NsS'ryuvidine'
p214
NsS'camptothecine_(s_+)'
p215
NsS'dephostatin'
p216
NsS'bapta_am'
p217
NsS'molsi_puren'
p218
NsS'2_5_dideoxyadenosine'
p219
NsS'skatole'
p220
NsS'iodopanoic_acid'
p221
NsS'cycloheximide'
p222
NsS'p_aminosalicylic_acid'
p223
NsS'scillarenin_rhamnoside'
p224
NsS'graveoline'
p225
NsS'tripelennamine_citrate'
p226
NsS'palbociclib_10'
p227
NsS'cp_93129_dihydrochloride'
p228
NsS'liserdol'
p229
NsS'papaverine_hydrochloride'
p230
NsS'(s)_(_)_bay_k_8644'
p231
NsS'butamben'
p232
NsS'fumonisin_b1'
p233
NsS'mw_ras12'
p234
NsS'rosiglitazone_hydrochloride'
p235
((F1.0
S'rosiglitazone'
p236
tp237
S"Suffix-based-exact-matching ('rosiglitazone_hydrochloride', 'rosiglitazone') ('rosiglitazone_hydrochloride', 'rosiglitazone')"
p238
tp239
sS'sunitinib_10'
p240
NsS'n_linoleoylglycine'
p241
NsS'2_bromo_n_[3_(butyrylamino)phenyl]benzamide'
p242
NsS'vorinostat'
p243
NsS'tartrate__pyrantel'
p244
NsS'solvidont'
p245
NsS'ici_199_441_hydrochloride'
p246
NsS'ikk_inhibitor_x'
p247
NsS'rs_67333_hydrochloride'
p248
NsS'erlotinib_10'
p249
NsS'tranilast_wfm1.4'
p250
NsS'flurofamide'
p251
NsS'piren_basan'
p252
NsS'123i_labeled_idoxuridine'
p253
NsS'16_hydroxytriptolide'
p254
NsS'vincristine'
p255
((F1.0
S'vincristine_sulfate'
p256
tp257
S"Suffix-based-exact-matching ('vincristine', 'vincristine_sulfate') ('vincristine', 'vincristine_sulfate')"
p258
tp259
sS'enison'
p260
NsS'norgestrel_(_)_d'
p261
NsS'trioxocholate'
p262
NsS'actarit'
p263
NsS'resveratrol'
p264
NsS'fu_jmbii105b'
p265
NsS'avermectin_b1a'
p266
NsS'1_benzylimidazole'
p267
NsS'linolelaidic_acid'
p268
NsS'bromhexin_berlin_chemie'
p269
NsS'pracinostat'
p270
NsS'amlodipine_base'
p271
NsS'decitabine_10'
p272
NsS'trametinib'
p273
NsS'cpccoet'
p274
NsS'nitrendidoc'
p275
NsS'3_6_diphenyl_1_2_4_triazin_5_yl_methyl_ether'
p276
NsS'orphenadrine_hydrochloride'
p277
NsS'nnc_55_0396_dihydrochloride'
p278
NsS'balminil'
p279
NsS'tuscalman'
p280
NsS'2_fluoropalmitic_acid'
p281
NsS'src_kinase_inhibitor_ii'
p282
NsS'meloxicam_sodium'
p283
((F1.0
S'meloxicam'
p284
tp285
S"Suffix-based-exact-matching ('meloxicam_sodium', 'meloxicam') ('meloxicam_sodium', 'meloxicam')"
p286
tp287
sS'triacetyloleandomycin'
p288
NsS'bisindolylmaleimide_iv'
p289
NsS'brd_k93754473_(tamoxifen_citrate)'
p290
NsS'fluspirilen'
p291
NsS'kb_r7943_mesylate'
p292
NsS'metitepine'
p293
NsS'vandetanib_10'
p294
NsS'pifithrin__?'
p295
NsS'amethopterin_(r_s)'
p296
NsS'etilefrin'
p297
NsS'balsalazide'
p298
((F1.0
S'balsalazide_disodium'
p299
tp300
S"Suffix-based-exact-matching ('balsalazide', 'balsalazide_disodium') ('balsalazide', 'balsalazide_disodium')"
p301
tp302
sS'dibenzepine_hydrochloride'
p303
NsS'indirubin_3?_monoxime'
p304
NsS'puromycin_hydrochloride'
p305
NsS'5_iodo_2__deoxyuridine'
p306
NsS'gen_gliclazide'
p307
NsS'meglumine__ioxaglate'
p308
NsS'nvp_bez235'
p309
NsS'hydrocortisone_phosphate_triethylamine'
p310
NsS'alumino_4_aminosalicylic_acid'
p311
NsS'oligomycin_c'
p312
NsS'guastil'
p313
NsS'yohimbine_hydrochloride'
p314
NsS'deguelin(_)'
p315
NsS'idoxuridine__125i_labeled'
p316
NsS'pregnenolone_succinate'
p317
NsS'troxipide'
p318
NsS'dichlorobenzamil'
p319
NsS'phosphodiesterase_v_inhibitor_ii'
p320
NsS'dichlofenamide'
p321
NsS'piretanide'
p322
NsS'mitoxantrone_dihydrochloride'
p323
NsS'luteoline'
p324
NsS'ponatinib'
p325
NsS'purvalanol_a'
p326
NsS'p_chlorophenoxyisobutyric_acid'
p327
NsS'enzastaurin'
p328
NsS'rottlerin'
p329
NsS'dichlorphenamide'
p330
NsS'siguazodan'
p331
NsS'rutoside'
p332
NsS'brd_k62310379_(fluticasone_propionate)'
p333
NsS'bu_239_hydrochloride'
p334
NsS'lylamine_hydrochloride'
p335
((F0.9545454545454546
S'mecamylamine_hydrochloride'
p336
tp337
S"(st) matching: ratio , lcs, (key,drug) (keynorm,drugnorm 0.954545454545 ylamine_hydrochloride ('lylamine_hydrochloride', 'mecamylamine_hydrochloride') ('lylamine_hydrochloride', 'mecamylamine_hydrochloride')"
p338
tp339
sS'lfm_a13'
p340
NsS'lfm_a12'
p341
NsS'curcumin'
p342
NsS'etilefrine'
p343
NsS'piribedil_dihydrochloride'
p344
NsS'aminopurvalanol_a'
p345
NsS'domperidone'
p346
NsS'lofepramine_hydrochloride'
p347
NsS'yomesan'
p348
NsS'erk_inhibitor_11e'
p349
NsS'akti_1/2'
p350
NsS'tyrphostin_ag_1478'
p351
NsS'closantel'
p352
NsS'r(_)_2_11_dihydroxy_10_methoxyaporphine'
p353
NsS'arctigenin'
p354
NsS'palbociclib'
p355
NsS'nnc_05_2090_hydrochloride'
p356
NsS'racepinephrine_hcl'
p357
NsS'2_beta_d_ribofuranosyl_1_2_4_triazine_3_5(2h_4h)_dione'
p358
NsS'brd_k48970916_(danazol)'
p359
NsS'4_hexylresorcinol'
p360
NsS'nvp_tae226'
p361
NsS'oxymetholone'
p362
NsS'bh3i_1'
p363
NsS'riluzole_hydrochloride'
p364
((F1.0
S'riluzole'
p365
tp366
S"Suffix-based-exact-matching ('riluzole_hydrochloride', 'riluzole') ('riluzole_hydrochloride', 'riluzole')"
p367
tp368
sS'motilium'
p369
NsS'fosfosal'
p370
NsS'canertinib_10'
p371
NsS'skf_77434_hydrobromide'
p372
NsS'arcyriaflavin_a'
p373
NsS'panacur'
p374
NsS'zeranol'
p375
NsS'puromycin_dihydrochloride'
p376
NsS'tiabendazole'
p377
NsS'haematoxylone__tetramethyl_'
p378
NsS'inhibitor_bec_hydrochloride'
p379
NsS'linoleic_acid__(z_e)_isomer'
p380
NsS'rimexolone'
p381
NsS'l_cis_diltiazem'
p382
NsS'dicloxacillin_sodium_salt_hydrate'
p383
NsS'bilipolinum'
p384
NsS'n_acetyl_dl_homocysteine_thiolactone'
p385
NsS'alw_ii_49'
p386
NsS'2_chloro_7_methoxyphenothiazine'
p387
NsS'm_amsa'
p388
NsS'niclosamide__2_aminoethanol_(1:1)'
p389
NsS'bromhexine_hydrochloride'
p390
NsS'saracatinib'
p391
NsS'zoxazolamine'
p392
NsS'brl_15572_hydrochloride'
p393
NsS'practolol__eralzdin'
p394
NsS'idelalisib_10'
p395
NsS'altrenogest'
p396
NsS'cerivastatin_na'
p397
NsS'salermide'
p398
NsS'nobiletin'
p399
NsS'cgp_12177_hydrochloride'
p400
NsS'seneciphylline'
p401
NsS'nvp_tae226_10'
p402
NsS'brazilin'
p403
NsS'bromhexin_ratiopharm'
p404
NsS'racephedrine_hydrochloride'
p405
((F0.8846153846153846
S'efidac_24_pseudoephedrine_hydrochloride/brompheniramine_maleate'
p406
tp407
S"(st) matching: ratio , lcs, (key,drug) (keynorm,drugnorm 0.884615384615 ephedrine_hydrochloride ('racephedrine_hydrochloride', 'efidac_24_pseudoephedrine_hydrochloride/brompheniramine_maleate') ('racephedrine_hydrochloride', 'efidac_24_pseudoephedrine_hydrochloride/brompheniramine_maleate')"
p408
tp409
sS'fostamatinib_10'
p410
NsS'triludan'
p411
NsS'trimetozine'
p412
NsS'zstk_474'
p413
NsS'cyater'
p414
NsS'sodium_ethylmercurithiosalicylate'
p415
NsS'tetrahydropalmatine'
p416
NsS'4_fluoro_n_pyridin_3_yl_benzamide'
p417
NsS'epitestosterone'
p418
NsS'aminosalicylic_acid'
p419
NsS'homoveratrylamine'
p420
NsS'skf_96365_hydrochloride'
p421
NsS'nbqx_disodium_salt'
p422
NsS'akt_inhibitor_1'
p423
NsS'ioxaglic_acid_monosodium_salt'
p424
NsS'pentazol'
p425
NsS'benperidolneuraxpharm'
p426
NsS'carbonyl_cyanide_para_trifluoromethoxyphenylhydrazone'
p427
NsS'tenidap'
p428
NsS'erythro'
p429
((F1.0
S'erythrocin'
p430
tp431
S"(st) matching: ratio , lcs, (key,drug) (keynorm,drugnorm 1.0 erythro ('erythro', 'erythrocin') ('erythro', 'erythrocin')"
p432
tp433
sS'ciclopirox_ethanolamine'
p434
NsS'diloxanide_furoate'
p435
NsS'dihydro_beta_tubaic_acid'
p436
NsS'bd_1008_dihydrobromide'
p437
NsS'akt_inhibitor_x'
p438
NsS'diperodon_hydrochloride'
p439
NsS'betamethasone_17_21_dipropionate'
p440
NsS'equilin'
p441
NsS'dinaciclib'
p442
NsS'dichloride__dequalinium'
p443
NsS'todralazine_hydrochloride'
p444
((F0.92
S'hydralazine_hydrochloride'
p445
tp446
S"(st) matching: ratio , lcs, (key,drug) (keynorm,drugnorm 0.92 dralazine_hydrochloride ('todralazine_hydrochloride', 'hydralazine_hydrochloride') ('todralazine_hydrochloride', 'hydralazine_hydrochloride')"
p447
tp448
sS'formoterol_hemifumarate'
p449
NsS'diphemanil_methylsulfate'
p450
NsS'diferuloylmethane'
p451
NsS'terfenidine'
p452
NsS'enteroseptol'
p453
NsS'darolan'
p454
NsS'9_trans_12_trans_octadecadienoic_acid'
p455
NsS'ralgro'
p456
NsS'methiothepin'
p457
NsS'e_4031_dihydrochloride'
p458
NsS'n_formylmethionylalanine'
p459
NsS'temefos'
p460
NsS'abt_888_(veliparib)'
p461
NsS'homatropine_bromide'
p462
NsS'biperiden'
p463
NsS'amodiaquin_dihydrochloride_dihydrate'
p464
NsS'gsk_j2_10'
p465
NsS'homatropine_hydrobromide_(r_s)'
p466
NsS'cinchonine'
p467
NsS'emetine_dihydrochloride_hydrate_(74)'
p468
NsS'hydroxytacrine_maleate_(r_s)'
p469
NsS'norethynodrel__(8_alpha)_(+_)_isomer'
p470
NsS'tracazolate_hydrochloride'
p471
NsS'sarmentogenin'
p472
NsS'capval_tropfen'
p473
NsS'cetirizine_dihydrochloride'
p474
((F1.0
S'cetirizine_hydrochloride'
p475
tp476
S"Suffix-based-exact-matching ('cetirizine_dihydrochloride', 'cetirizine_hydrochloride') ('cetirizine_dihydrochloride', 'cetirizine_hydrochloride')"
p477
tp478
sS'sirolimus_10'
p479
NsS'lomatin'
p480
NsS'9_12_octadecadienoic_acid'
p481
NsS'skf_89976a_hydrochloride'
p482
NsS'bucladesine__barium_(1:1)_salt'
p483
NsS'fgin_1_27'
p484
NsS'desacetylvinblastine_amide'
p485
NsS'dacomitinib'
p486
NsS'carbonyl_cyanide_meta_chlorophenyl_hydrazone'
p487
NsS'neo_eunomin'
p488
NsS'bulleyaconitine_a'
p489
NsS'p_aminosalicylic_acid_monopotassium_salt'
p490
NsS'methyl_benzethonium_chloride'
p491
NsS'eti_puren'
p492
NsS'zamifenacin_fumarate'
p493
NsS'tyrphostin_b44__(+)_enantiomer'
p494
NsS'ibrutinib_10'
p495
NsS'pyrazolanthrone'
p496
NsS'molsicor'
p497
NsS'oxotremorine_sesquifumarate'
p498
NsS'ciglitazone'
p499
NsS'ibudilast'
p500
NsS's(+)_terguride'
p501
NsS'methylergometrine_maleate'
p502
NsS'chromanol_293b'
p503
NsS'alprenolol_hydrochloride'
p504
NsS'nitrendipine'
p505
NsS'dipropionate'
p506
((F1.0
S'betamethasone_dipropionate'
p507
tp508
S"(st) matching: ratio , lcs, (key,drug) (keynorm,drugnorm 1.0 dipropionate ('dipropionate', 'betamethasone_dipropionate') ('dipropionate', 'betamethasone_dipropionate')"
p509
tp510
sS'g_strophanthin'
p511
NsS'thiophene_2_carboxylic_acid_benzothiazol_2_ylamide_mls_0446110.0001'
p512
NsS'thiethylperazine_dimalate'
p513
NsS'spiperone'
p514
NsS'cvf_csc_7_brd_a32595718'
p515
NsS'gw_3965_hydrochloride'
p516
NsS'gavestinel'
p517
NsS'cinnarizine__(e)_isomer'
p518
NsS'carbonyl_cyanide_p_trifluoromethoxyphenylhydrazone'
p519
NsS'dequalinium_diacetate'
p520
NsS'gant_58'
p521
NsS'ozagrel_hydrochloride'
p522
NsS'thonzonium_bromide'
p523
NsS'daminozide'
p524
NsS'ginsenoside_rc'
p525
NsS'kynuramine'
p526
NsS'ornidazole'
p527
NsS'vesamicol'
p528
NsS'diazooxonorleucine'
p529
NsS'parbendazole'
p530
NsS'moclobemid_ratiopharm'
p531
NsS'ethylestrenol'
p532
NsS'remacemide_hydrochloride'
p533
NsS'5_chloro_7_iodo_8_quinolinol'
p534
NsS'dorsomorphin_dihydrochloride'
p535
NsS'rs_17053_hydrochloride'
p536
NsS'moclobemide'
p537
NsS'garcinol_10'
p538
NsS'emd_386088_hydrochloride'
p539
NsS'homochlorcyclizine_dihydrochloride'
p540
NsS'pentylenetetrazol'
p541
NsS'6_azauridine'
p542
NsS'pentylenetetrazole'
p543
NsS'brd_k68202742_(trichostatin_a)'
p544
NsS'mephentermine_sulfate'
p545
NsS'iniparib'
p546
NsS'rs_56812_hydrochloride'
p547
NsS'brd_k61496577_(flumethasone)'
p548
NsS'isoxsuprine_hydrochloride'
p549
NsS'brefeldin_a'
p550
NsS'nicergolin_ratiopharm'
p551
NsS'mesoridazine_besylate'
p552
NsS'antiphlogistine_rub_a_535_capsaicin'
p553
NsS'fr_122047_hydrochloride'
p554
NsS'fenbufen'
p555
NsS'diertine'
p556
NsS'lde225_(nvp_lde225)'
p557
NsS'foretinib'
p558
NsS'na_tosyl_lys_chloromethyl_ketone__hydrochloride'
p559
NsS'kirromycin'
p560
NsS'fluphenazine_dihydrochloride'
p561
NsS'baccatin_iii'
p562
NsS'hydrochloride__lofepramine'
p563
NsS'leoidin_dimethyl_ether'
p564
NsS'salmeterol'
p565
NsS'loteprednol'
p566
((F1.0
S'loteprednol_etabonate'
p567
tp568
S"(st) matching: ratio , lcs, (key,drug) (keynorm,drugnorm 1.0 loteprednol ('loteprednol', 'loteprednol_etabonate') ('loteprednol', 'loteprednol_etabonate')"
p569
tp570
sS'genistin'
p571
NsS'saquinavir_mesylate'
p572
NsS'bml_st330'
p573
NsS'anisomycin'
p574
NsS'xilamide'
p575
NsS'chrysene_1_4_quinone'
p576
NsS'veliparib'
p577
NsS'capsaicine'
p578
NsS'ischemin'
p579
NsS'emetine'
p580
NsS'zuclopenthixol_hydrochloride'
p581
NsS'genestein'
p582
NsS'nitrendipin_beta'
p583
NsS'molsidomin_heumann'
p584
NsS'idarubicin_hcl'
p585
((F0.8571428571428571
S'idarubicin_hydrochloride_pfs'
p586
tp587
S"(st) matching: ratio , lcs, (key,drug) (keynorm,drugnorm 0.857142857143 idarubicin_h ('idarubicin_hcl', 'idarubicin_hydrochloride_pfs') ('idarubicin_hcl', 'idarubicin_hydrochloride_pfs')"
p588
tp589
sS'emulgin_913'
p590
NsS'procaterol_hydrochloride'
p591
NsS'felamidin'
p592
NsS'nitrensal'
p593
NsS'8_methyl_n_vanillyl_6_nonenamide'
p594
NsS'mocetinostat'
p595
NsS'atorvastatin'
p596
((F1.0
S'atorvastatin_calcium'
p597
tp598
S"Suffix-based-exact-matching ('atorvastatin', 'atorvastatin_calcium') ('atorvastatin', 'atorvastatin_calcium')"
p599
tp600
sS'dasatinib_10'
p601
NsS'4_(3_4_dimethoxyphenyl)pyridine_hydrobromide_wg_7'
p602
NsS'domperidon_hexal'
p603
NsS'deoxyrhapontin'
p604
NsS'warfarin'
p605
((F1.0
S'warfarin_sodium'
p606
tp607
S"Suffix-based-exact-matching ('warfarin', 'warfarin_sodium') ('warfarin', 'warfarin_sodium')"
p608
tp609
sS'pj_34_hydrochloride'
p610
NsS'eglonyl'
p611
NsS'p_aminosalicylic_acid__calcium_(2:1)_salt'
p612
NsS'dihydrochloride__emetine'
p613
NsS'diethylaminoethyldiphenylpropyl_acetate'
p614
NsS'l_sulforophane'
p615
NsS'aloisine'
p616
NsS'6_diazo_5_oxo_l_norleucine'
p617
NsS'pelitinib'
p618
NsS'dipropyldopamine'
p619
NsS'neogama'
p620
NsS'cyclic_amp__dibutyryl'
p621
NsS'troleandomycin'
p622
NsS'n6__cyclopentyladenosine'
p623
NsS'naproxol'
p624
NsS'leptazole'
p625
NsS'pivmecillinam_hydrochloride'
p626
NsS'vinpocetine'
p627
NsS'psb_36'
p628
NsS'barasertib_10'
p629
NsS'docosahexaenoic_acid_(22:6_n_3)'
p630
NsS'ntzdpa'
p631
NsS'aceclidine_hydrochloride'
p632
NsS'methoprene_acid'
p633
NsS'clioquinol'
p634
NsS'cholestil'
p635
NsS'teniposide'
p636
NsS'dibenz(b_f)(1_4)oxazepine_10(11h)_carboxylic_acid__8_chloro___2_acetylhydrazide'
p637
NsS'eicosatrienoic_acid_(20:3_n_3)'
p638
NsS'13_cis_isomer_fenretinide'
p639
NsS'r(_)_2_10_11_trihydroxy_n_propyl_noraporphine'
p640
NsS'compound_d'
p641
((F0.9
S'propoxyphene_compound_65'
p642
tp643
S"(st) matching: ratio , lcs, (key,drug) (keynorm,drugnorm 0.9 compound_ ('compound_d', 'propoxyphene_compound_65') ('compound_d', 'propoxyphene_compound_65')"
p644
tp645
sS'quercetin'
p646
NsS'pd_123319_ditrifluoroacetate'
p647
NsS'cyclopiazonic_acid'
p648
NsS'butoconazole'
p649
((F1.0
S'butoconazole_nitrate'
p650
tp651
S"Suffix-based-exact-matching ('butoconazole', 'butoconazole_nitrate') ('butoconazole', 'butoconazole_nitrate')"
p652
tp653
sS'dehydrocholic_acid__magnesium_salt'
p654
NsS'mirtazepine'
p655
NsS'tozasertib'
p656
NsS'acocantherin'
p657
NsS'4_(bis(2_chloroethyl)amino)benzenebutanoic_acid'
p658
NsS'hoechst__33342_(cell_permeable)_(bisbenzimide)'
p659
NsS'ym_298198__desmethyl_'
p660
NsS'ruxolitinib'
p661
NsS'bibu_1361_dihydrochloride'
p662
NsS'ha_1100_hydrochloride'
p663
NsS'benperidol_neuraxpharm'
p664
NsS'ambilhar'
p665
NsS'ml_9_hydrochloride'
p666
NsS'olvanil'
p667
NsS'xaliproden_hydrochloride'
p668
NsS'n_[2_(piperidinylamino)ethyl]_4_iodobenzamide'
p669
NsS'gsk_j4_10'
p670
NsS'ib_meca'
p671
NsS'meptazinol_hydrochloride'
p672
NsS'delta1_hydrocortisone_21_hemisuccinate'
p673
NsS'rifapentine'
p674
NsS'sulpor'
p675
NsS'malonoben'
p676
NsS'bromhexin_von_ct'
p677
NsS'nitrendipin_heumann'
p678
NsS'4_methylumbelliferone'
p679
NsS'convallatoxigenin'
p680
NsS'7_hydroxy_4_methyl_coumarin'
p681
NsS'dihydroergocristine_mesylate'
p682
NsS'mevastatin'
p683
NsS'purmorphamine'
p684
NsS'remoxipride_hydrochloride'
p685
NsS'nvp_tae684_10'
p686
NsS'eriodyctol'
p687
NsS'importazole'
p688
NsS'oxybenzone'
p689
NsS'tiorphan'
p690
NsS'dovitinib_10'
p691
NsS'baypress'
p692
NsS'psicocen'
p693
NsS'oxiconazole'
p694
((F1.0
S'oxiconazole_nitrate'
p695
tp696
S"Suffix-based-exact-matching ('oxiconazole', 'oxiconazole_nitrate') ('oxiconazole', 'oxiconazole_nitrate')"
p697
tp698
sS'indole_3_carbinol'
p699
NsS'uftoral'
p700
NsS'ethyloestrenol'
p701
NsS'deftan'
p702
NsS'ioxaglate__methylglucamine'
p703
NsS'novo_domperidone'
p704
NsS'sb_203186_hydrochloride'
p705
NsS'isoliquiritigenin'
p706
NsS'nitazoxanide'
p707
NsS'cinarizina_inkey'
p708
NsS'diethylcarbamazine_citrate'
p709
NsS'fananserin'
p710
NsS'brd_a75409952_(wortmannin)'
p711
NsS'bromhexine__famel'
p712
NsS'bayer_2353'
p713
NsS'meprylcaine_hydrochloride'
p714
NsS'oxibendazole'
p715
NsS'securinine'
p716
NsS'cicloheximide'
p717
NsS'gangleoidin_acetate'
p718
NsS'solanine_alpha'
p719
NsS'meta_amsa'
p720
NsS'alaproclate'
p721
NsS'prothionamide'
p722
NsS'mucohexine'
p723
NsS'chloroquine_diphosphate'
p724
NsS'linifanib_10'
p725
NsS'thalidomide'
p726
NsS'azu__moclobemid'
p727
NsS'linoleamide'
p728
NsS'talusin'
p729
NsS'honokiol'
p730
NsS'z_prolyl_prolinal'
p731
NsS'clebopride_maleate'
p732
NsS'halometasone'
p733
NsS'methoxamine_hydrochloride'
p734
NsS'endecaphyllin_x'
p735
NsS'sb_205607_dihydrobromide'
p736
NsS'5_nonyloxytryptamine'
p737
NsS'moclonorm'
p738
NsS'nitrendipincorax'
p739
NsS'isoquercitrin'
p740
NsS'afatinib'
p741
NsS'bw_723c86_hydrochloride'
p742
NsS'masitinib_10'
p743
NsS'gabexate_monomethanesulfonate'
p744
NsS'brd_k36055864_(cycloheximide)'
p745
NsS'vemurafenib'
p746
NsS'butein'
p747
NsS'mead_ethanolamide'
p748
NsS'genistein'
p749
NsS'tyrphostin_b44_(_)'
p750
NsS'ascotoxin'
p751
NsS'nylidrin'
p752
NsS'alfaxalone'
p753
NsS'molsi_1a_pharma'
p754
NsS'efortil'
p755
NsS'triflupromazine_hydrochloride'
p756
NsS'raltitrexed'
p757
NsS'rho_kinase_inhibitor_iii_[rockout]'
p758
NsS'leucine_enkephalin'
p759
NsS'ql_xii'
p760
NsS'caffeic_acid_phenethyl_ester'
p761
NsS'rocilinostat_10'
p762
NsS'benzo[a]pyrene'
p763
NsS'wiskostatin'
p764
NsS'idebenone'
p765
NsS'irinotecan_hydrochloride_trihydrate'
p766
NsS'lupanine_perchlorate'
p767
NsS'pervincamine'
p768
NsS'morsydomine'
p769
NsS'withaferin_a'
p770
NsS'wortmannin'
p771
NsS'scopolamine_hydrobromide'
p772
NsS'linoleate'
p773
NsS'ftorafur'
p774
NsS'lopramine'
p775
NsS'practolol'
p776
NsS'oxymetholone__(17_beta)_isomer'
p777
NsS'trapidil'
p778
NsS'methylene_blue'
p779
NsS'iodipamide'
p780
NsS'cefotaxime_sodium_salt'
p781
NsS'alw_ii_38'
p782
NsS'tocainide__(+_)_isomer'
p783
NsS'tremulacin'
p784
NsS'i_bet_10'
p785
NsS'hydroquinine_hydrobromide_hydrate'
p786
NsS'bifemelane_hydrochloride'
p787
NsS'methysergide_maleate'
p788
NsS'methiothepin_maleate'
p789
NsS'hemado'
p790
NsS'amiloride_hydrochloride_dihydrate'
p791
NsS'metixene_hydrochloride'
p792
NsS'nvp_bgt226_10'
p793
NsS'estradiol_benzoate'
p794
NsS'tetrindole_mesylate'
p795
NsS'cholylglycine'
p796
NsS'haloprogin'
p797
NsS'gurgell\xe3\xb6sung_ratiopharm'
p798
NsS'digophton'
p799
NsS'ethamivan'
p800
NsS'katrum'
p801
NsS'aminoglutethimide'
p802
NsS'entinostat'
p803
NsS'scoulerine'
p804
NsS'withaferin_a_10'
p805
NsS'thm_i_94'
p806
NsS'maleate__domperidone'
p807
NsS'clofilium_tosylate'
p808
NsS'coumarinic_acid_methyl_ether'
p809
NsS'linomide'
p810
NsS'npk76_ii_72'
p811
NsS'sto_609_acetate'
p812
NsS'belinostat'
p813
NsS'lomerizine_dihcl'
p814
NsS'linoleic_acid__(z_z)_isomer'
p815
NsS'deoxyandirobin_lactone'
p816
NsS'alw_ii_49_7'
p817
NsS'epitiostanol'
p818
NsS'riboflavine'
p819
NsS'veliparib_10'
p820
NsS'diundecenoate__dequalinium'
p821
NsS'erlotinib'
p822
((F1.0
S'erlotinib_hydrochloride'
p823
tp824
S"Suffix-based-exact-matching ('erlotinib', 'erlotinib_hydrochloride') ('erlotinib', 'erlotinib_hydrochloride')"
p825
tp826
sS'chelidonine_(+)'
p827
NsS'clofibric_acid'
p828
NsS'thiomersal'
p829
NsS'vegf_receptor_3_kinase_inhibitor__maz51'
p830
NsS'l_803_087_trifluoroacetate'
p831
NsS'nu_domperidone'
p832
NsS'resveratrol_10'
p833
NsS'meclocycline_sulfosalicylate'
p834
NsS'bifonazole'
p835
NsS'bambuterol_hydrochloride'
p836
NsS'immepip_dihydrobromide'
p837
NsS'nitren_acis'
p838
NsS'moclobemide__chem_mart'
p839
NsS'rs_39604_hydrochloride'
p840
NsS'fu_jmbii127b'
p841
NsS'zolantidine_dimaleate'
p842
NsS'bayotensin'
p843
NsS'w_9_hydrochloride'
p844
NsS'tocainide_hydrochloride'
p845
NsS'mead_acid_(20:3_n_9)'
p846
NsS'delfen_cream'
p847
NsS'prl_3_inhibitor_i'
p848
NsS'hydrastinine_hydrochloride'
p849
NsS'mefexamide_hydrochloride'
p850
NsS'formoterol'
p851
((F1.0
S'formoterol_fumarate'
p852
tp853
S"Suffix-based-exact-matching ('formoterol', 'formoterol_fumarate') ('formoterol', 'formoterol_fumarate')"
p854
tp855
sS'gsk_j2'
p856
NsS'r(+)_6_bromo_apb'
p857
NsS'adrenam'
p858
NsS'k_strophanthidin'
p859
NsS'hydroxymetholone'
p860
NsS'torin_1'
p861
NsS'torin_2'
p862
NsS'formestane'
p863
NsS'duremesin'
p864
NsS'chlorambucil'
p865
NsS'brd_a68930007_(ouabain)'
p866
NsS'taxifolin_(+/_)'
p867
NsS'hexamethylmelamine'
p868
NsS'17_alpha_ethynyltestosterone'
p869
NsS'brd_k00824317_(flurandrenolide)'
p870
NsS'cyclizine_hydrochloride'
p871
NsS'trimipramine_maleate_salt'
p872
NsS'kerecide'
p873
NsS'pamisyl'
p874
NsS'acid__flufenamic'
p875
NsS'nonoxinol'
p876
NsS'strophanthidin'
p877
NsS'penicillin_v'
p878
((F1.0
S'penicillin_v_potassium'
p879
tp880
S"(st) matching: ratio , lcs, (key,drug) (keynorm,drugnorm 1.0 penicillin_v ('penicillin_v', 'penicillin_v_potassium') ('penicillin_v', 'penicillin_v_potassium')"
p881
tp882
sS'cycloheximide_n_ethylethanoate'
p883
NsS'verteporfin'
p884
NsS'cortisol_acetate'
p885
NsS'digoxigenin'
p886
NsS'chlormethiazole_hydrochloride'
p887
NsS'tomoxetine_hydrochloride'
p888
((F1.0
S'atomoxetine_hydrochloride'
p889
tp890
S"(st) matching: ratio , lcs, (key,drug) (keynorm,drugnorm 1.0 tomoxetine_hydrochloride ('tomoxetine_hydrochloride', 'atomoxetine_hydrochloride') ('tomoxetine_hydrochloride', 'atomoxetine_hydrochloride')"
p891
tp892
sS'oleandocetin'
p893
NsS'ethoprop'
p894
NsS'psb_11'
p895
NsS'zardaverine'
p896
NsS'cjd_fun_4_2'
p897
NsS'lumicolchicine_gamma'
p898
NsS'ici_204_448_hydrochloride'
p899
NsS'bay_va_1470'
p900
NsS'fenretinide__13_cis_isomer'
p901
NsS'fexaramine'
p902
NsS'valdecoxib'
p903
NsS'vorinostat_10'
p904
NsS'acid__iopanoic'
p905
NsS'saracatinib_10'
p906
NsS'htmt_dimaleate'
p907
NsS'jnk_9l'
p908
NsS'digitaline_nativelle'
p909
NsS'amsa_pd'
p910
NsS'dictamnine'
p911
NsS'molsidomin_ratiopharm'
p912
NsS'venlafaxine_hcl'
p913
((F0.8666666666666667
S'venlafaxine_hydrochloride'
p914
tp915
S"(st) matching: ratio , lcs, (key,drug) (keynorm,drugnorm 0.866666666667 venlafaxine_h ('venlafaxine_hcl', 'venlafaxine_hydrochloride') ('venlafaxine_hcl', 'venlafaxine_hydrochloride')"
p916
tp917
sS'circo_maren'
p918
NsS'flucloxacillin_sodium'
p919
NsS'2_3_diaminopropiophenone'
p920
NsS'lasalocid_sodium'
p921
NsS'tamoxifen__4_hydroxy___(z)_'
p922
NsS'ski_ii'
p923
NsS'clomiphene_citrate_(z_e)'
p924
NsS'benzethonium_chloride'
p925
NsS'methylstat'
p926
NsS'quizartinib'
p927
NsS'desoxymetasone'
p928
NsS'n_oxalylphenylalanine'
p929
NsS'lasalocid_sodium_salt'
p930
NsS'levcromakalim'
p931
NsS'urapidil_hydrochloride'
p932
NsS'aminopurine__6_benzyl'
p933
NsS'hydrochloride__bromhexine'
p934
NsS'sb_269970_hydrochloride'
p935
NsS'tolmetin_sodium_salt_dihydrate'
p936
NsS'enkephalin__leucine'
p937
NsS'fenoldopam_hydrochloride'
p938
NsS'awd__digitoxin'
p939
NsS'tubaic_acid'
p940
NsS'pdgf_receptor_tyrosine_kinase_inhibitor_i'
p941
NsS'ex_lax'
p942
NsS'dihydrochloride__pirenzepine'
p943
NsS'pirenzepine_dihydrochloride'
p944
NsS'doxorubicin'
p945
((F1.0
S'doxorubicin_hydrochloride'
p946
tp947
S"Suffix-based-exact-matching ('doxorubicin', 'doxorubicin_hydrochloride') ('doxorubicin', 'doxorubicin_hydrochloride')"
p948
tp949
sS'phylloquinone'
p950
NsS'hemisuccinate'
p951
NsS'gly_asp_d_phe_val]'
p952
NsS'linoleic_acid__calcium_salt__(z_z)_isomer'
p953
NsS'ioxaglate_meglumine'
p954
NsS'robustic_acid'
p955
NsS'jnk_in_5a'
p956
NsS'meresa'
p957
NsS'icariin'
p958
NsS'sulfonate__nelfinavir_monomethane'
p959
NsS'desisulpid'
p960
NsS'chlorprothixene_hydrochloride'
p961
NsS'nf_kb_activation_inhibitor_ii__jsh_23'
p962
NsS'gr_127935_hydrochloride'
p963
NsS'tubocurarine_chloride_pentahydrate_(+)'
p964
NsS'bromhexin'
p965
NsS'pre_084_hydrochloride'
p966
NsS'skf_525_a'
p967
NsS'austricine_hydrate'
p968
NsS'regorafenib_10'
p969
NsS'veto_centre'
p970
NsS'gitoxigenin'
p971
NsS'cerebroxine'
p972
NsS'swiss_blue'
p973
NsS'lobelanidine_hydrochloride'
p974
NsS'16beta_hydroxy_estradiol'
p975
NsS'dibenzoate'
p976
NsS'arvanil'
p977
NsS'dcebio'
p978
NsS'lonidamine'
p979
NsS'ergonovine'
p980
((F1.0
S'methylergonovine_maleate'
p981
tp982
S"(st) matching: ratio , lcs, (key,drug) (keynorm,drugnorm 1.0 ergonovine ('ergonovine', 'methylergonovine_maleate') ('ergonovine', 'methylergonovine_maleate')"
p983
tp984
sS'hexamethylquercetagetin'
p985
NsS'dihydroxyundecyl_resorcylic_acid_lactone'
p986
NsS'cfm_1571_hydrochloride'
p987
NsS'ratio_domperidone'
p988
NsS'triacsin_c'
p989
NsS'c2_ceramide'
p990
NsS'phentolamine_hydrochloride'
p991
NsS'nafcillin_sodium_salt_monohydrate'
p992
NsS'ibrutinib'
p993
NsS'quizartinib_10'
p994
NsS'terfedura'
p995
NsS'phenothiazine'
p996
NsS'piperacetazine'
p997
NsS'cabozantinib_10'
p998
NsS'inca_6'
p999
NsS'pizotyline_malate'
p1000
NsS'bosutinib'
p1001
NsS'idoxuridine__123i_labeled'
p1002
NsS'neratinib_10'
p1003
NsS'lacidipine'
p1004
NsS'bd_1047_dihydrobromide'
p1005
NsS'genrx_moclobemide'
p1006
NsS'cp_94253_hydrochloride'
p1007
NsS'pronethalol_hydrochloride'
p1008
NsS'deprenorm'
p1009
NsS'zaprinast'
p1010
NsS'fluprostenol'
p1011
NsS'brl_37344__sodium_salt'
p1012
NsS'chelerythrine_chloride'
p1013
NsS'sericetin_dimethyl_ether'
p1014
NsS'jutapress'
p1015
NsS'gargon'
p1016
NsS'n_benzylnaltrindole_hydrochloride'
p1017
NsS'meclofenamic_acid_sodium_salt_monohydrate'
p1018
NsS'morantel_tartrate'
p1019
NsS'blebbistatin'
p1020
NsS'fasudil_hydrochloride'
p1021
NsS'tocainide_monohydrobromide__(r)_isomer'
p1022
NsS'manumycin_a'
p1023
NsS'chemistry_1735'
p1024
NsS'radewerm'
p1025
NsS'para_trifluoromethoxyphenylhydrazone__carbonyl_cyanide'
p1026
NsS'nicerium'
p1027
NsS'nonoxynol_9'
p1028
NsS'16_alpha_hydroxy_estradiol'
p1029
NsS'nvp_bez235_10'
p1030
NsS'aq_ra_741'
p1031
NsS'garcinol'
p1032
NsS'coumestrol'
p1033
NsS'ro_31_8220_mesylate'
p1034
NsS'cirazoline_hydrochloride'
p1035
NsS'vastensium'
p1036
NsS'diaglyk'
p1037
NsS'cinnarizin_siegfried'
p1038
NsS'iopanoic_acid'
p1039
NsS'i_bet151'
p1040
NsS'iodophenpropit_dihydrobromide'
p1041
NsS'arminol'
p1042
NsS'reichstein/c_aeos_substance/c_*s'
p1043
NsS'(_)_jq1'
p1044
NsS'domperidona_gamir'
p1045
NsS'brd_k93568044_(hydrocortisone)'
p1046
NsS'hydroquinidine'
p1047
NsS'glycocholic_acid__sodium_salt'
p1048
NsS'bepridil_hydrochloride'
p1049
NsS'ebselen'
p1050
NsS'glyade'
p1051
NsS'w_12__hydrochloride'
p1052
NsS'ambroxol_hydrochloride'
p1053
NsS'sertindole'
p1054
NsS'epicatechin_monogallate'
p1055
NsS'dipropyl_5ct'
p1056
NsS'16alpha_17beta_estriol'
p1057
NsS'anadrol'
p1058
((F1.0
S'anadrol_50'
p1059
tp1060
S"(st) matching: ratio , lcs, (key,drug) (keynorm,drugnorm 1.0 anadrol ('anadrol', 'anadrol_50') ('anadrol', 'anadrol_50')"
p1061
tp1062
sS'nornicotine'
p1063
NsS'3__4__5_7_tetrahydroxy_flavone'
p1064
NsS'pterostilbene'
p1065
NsS'ala_ala_phe_cmk'
p1066
NsS'aminogenistein'
p1067
NsS'nicergoline'
p1068
NsS'thiazolopyrimidine'
p1069
NsS'heat_hydrochloride'
p1070
NsS'3_methylindole'
p1071
NsS'arg_csc_91'
p1072
NsS'ebt_or_(erichrome_black_t)'
p1073
NsS'cymarin'
p1074
NsS'methyl_7_desoxypurpurogallin_7_carboxylate_trimethyl_ether'
p1075
NsS'compound_58'
p1076
NsS'cisaken'
p1077
NsS'noscapine_hydrochloride'
p1078
NsS'ceforanide'
p1079
NsS'pazopanib'
p1080
NsS'sulconazole_nitrate'
p1081
NsS'tianeptine'
p1082
NsS'cholanhmb'
p1083
NsS'noscapine'
p1084
NsS'digitoxin_b\xc3\xbcrger'
p1085
NsS'ys_035_hydrochloride'
p1086
NsS'austricine'
p1087
NsS'sydnopharm'
p1088
NsS'bacampicillin_hydrochloride'
p1089
NsS'salsolinol_hydrobromide'
p1090
NsS'linopirdine_dihydrochloride'
p1091
NsS'nvp_aew541'
p1092
NsS'mapp__d_erythro'
p1093
NsS'itavastatin_ca'
p1094
((F1.0
S'pitavastatin_calcium'
p1095
tp1096
S"(st) matching: ratio , lcs, (key,drug) (keynorm,drugnorm 1.0 itavastatin_ca ('itavastatin_ca', 'pitavastatin_calcium') ('itavastatin_ca', 'pitavastatin_calcium')"
p1097
tp1098
sS'nelfinavir_mesylate'
p1099
NsS'thioguanosine'
p1100
NsS'naltrindole_hydrochloride'
p1101
NsS'fluvastatin'
p1102
((F1.0
S'fluvastatin_sodium'
p1103
tp1104
S"Suffix-based-exact-matching ('fluvastatin', 'fluvastatin_sodium') ('fluvastatin', 'fluvastatin_sodium')"
p1105
tp1106
sS'arachidonyl_trifluoro_methyl_ketone'
p1107
NsS'chlorbutin'
p1108
NsS'rhamnoside__scillarenin'
p1109
NsS'pifithrin_a__cyclic_'
p1110
NsS'oxymetazoline_hydrochloride'
p1111
NsS'altretamine'
p1112
NsS'primaquine_diphosphate'
p1113
NsS'rs_67506_hydrochloride'
p1114
NsS'hexinawas'
p1115
NsS'perhexiline_maleate'
p1116
NsS'bp_554_maleate'
p1117
NsS'penitrem_a'
p1118
NsS'tocainide_monohydrochloride__(s)_isomer'
p1119
NsS'w_7_hydrochloride'
p1120
NsS'nor_binaltorphimine_dihydrochloride'
p1121
NsS'niclosamide'
p1122
NsS'neratinib'
p1123
NsS'brd_k37270826_(mifepristone)'
p1124
NsS'etazolate_hydrochloride'
p1125
NsS'amsa_p_d'
p1126
NsS'pms_domperidone'
p1127
NsS'(+)_3_hydroxy_n_methylmorphinan_d_tartrate'
p1128
NsS'r(_)_n_allylnorapomorphine'
p1129
NsS'clobenpropit_dihydrobromide'
p1130
NsS'domperidone_maleate'
p1131
NsS'8_11_14_eicosatrienoic_acid'
p1132
NsS'brd_k56515112_(medrysone)'
p1133
NsS'diamicron'
p1134
NsS'hycanthone'
p1135
NsS'1_(2_tetrahydrofuryl)_5_fluorouracil'
p1136
NsS'digitoxin'
p1137
NsS'gbr_13069_dihydrochloride'
p1138
NsS'fenretinimide'
p1139
NsS'dihydrosamidin'
p1140
NsS'methyl_2_5_dihydroxycinnamate'
p1141
NsS'terfenadin_al'
p1142
NsS'8_cpt_2_me_camp'
p1143
NsS'olaparib'
p1144
NsS'candesartan'
p1145
((F1.0
S'candesartan_cilexetil'
p1146
tp1147
S"(st) matching: ratio , lcs, (key,drug) (keynorm,drugnorm 1.0 candesartan ('candesartan', 'candesartan_cilexetil') ('candesartan', 'candesartan_cilexetil')"
p1148
tp1149
sS'topotecan_hcl'
p1150
NsS'glianimon'
p1151
NsS'pirenperone'
p1152
NsS'masitinib'
p1153
NsS'mosapride'
p1154
NsS'lomefloxacin_hydrochloride'
p1155
NsS'dur_elix'
p1156
NsS'thomasin'
p1157
NsS'dabrafenib'
p1158
NsS'sunitinib'
p1159
((F1.0
S'sunitinib_malate'
p1160
tp1161
S"(st) matching: ratio , lcs, (key,drug) (keynorm,drugnorm 1.0 sunitinib ('sunitinib', 'sunitinib_malate') ('sunitinib', 'sunitinib_malate')"
p1162
tp1163
sS'iniparib_10'
p1164
NsS'serdemetan_10'
p1165
NsS'lanatoside_c'
p1166
NsS'helveticoside'
p1167
NsS'ctb_10'
p1168
NsS'nan_190_hydrobromide'
p1169
NsS'niprina'
p1170
NsS'flagecidin'
p1171
NsS'nicergobeta'
p1172
NsS'nafronyl_oxalate'
p1173
NsS'l_741_742_hydrochloride'
p1174
NsS'cinnarizin_ratiopharm'
p1175
NsS'rhodomyrtoxin'
p1176
NsS'antimycin_a1'
p1177
NsS'regorafenib'
p1178
NsS'etanidazole'
p1179
NsS'hydrochloride__cyclizine'
p1180
NsS'sr_59230a_hydrochloride'
p1181
NsS'pyrenzepine'
p1182
NsS'heliotrine'
p1183
NsS'calyculin_a'
p1184
NsS'dihydrexidine_hydrochloride'
p1185
NsS'indirubin_3_oxime'
p1186
NsS'cgp_20712_dihydrochloride'
p1187
NsS'hydrocortisone_hemisuccinate'
p1188
NsS'danthron'
p1189
NsS'ulgescum'
p1190
NsS'ethotoin'
p1191
NsS'17_beta_estradiol_17_valerate'
p1192
NsS'hydrastine_(1r__9s)'
p1193
NsS'moclix'
p1194
NsS'nifuroxazide'
p1195
NsS'cyclizine'
p1196
NsS'gastrozepin'
p1197
NsS'flunarizine_dihydrochloride'
p1198
NsS'scriptaid'
p1199
NsS'raclopride'
p1200
NsS'ouabain'
p1201
NsS'zearanol'
p1202
NsS'syk_inhibitor'
p1203
NsS'zd_7114_hydrochloride'
p1204
NsS'sulfacetamide_sodic_hydrate'
p1205
NsS'cyclosporin_a'
p1206
NsS'tosufloxacin_hydrochloride'
p1207
NsS'lenalidomide'
p1208
NsS'celastrol_10'
p1209
NsS'dequalinium'
p1210
NsS'4_aminosalicylic_acid'
p1211
NsS'nsc_632839_hydrochloride'
p1212
NsS'azacyclonol'
p1213
NsS'cgs_21680_hydrochloride'
p1214
NsS'moclobemide__genrx'
p1215
NsS'nbi_27914_hydrochloride'
p1216
NsS'bayluscide'
p1217
NsS'ethopropazine_hydrochloride'
p1218
NsS'(_)_gallocatechin_gallate'
p1219
NsS'racecadotril'
p1220
NsS'chlorphensin_carbamate'
p1221
NsS'capzasin'
p1222
NsS'lapatinib_10'
p1223
NsS'l_ornithine__n5_[imino(methylamino)methyl]_[cas]'
p1224
NsS'jak3_inhibitor_i'
p1225
NsS'ordiflazine'
p1226
NsS'dihydroxycinnamate'
p1227
NsS'cyanide_p_trifluoromethoxyphenylhydrazone__carbonyl'
p1228
NsS'dexbrompheniramine'
p1229
((F1.0
S'dexbrompheniramine_maleate'
p1230
tp1231
S"Suffix-based-exact-matching ('dexbrompheniramine', 'dexbrompheniramine_maleate') ('dexbrompheniramine', 'dexbrompheniramine_maleate')"
p1232
tp1233
sS'alclometazone_dipropionate'
p1234
NsS'naltrexone_hydrochloride_dihydrate'
p1235
NsS'jak3_inhibitor_v'
p1236
NsS'tridihexethyl_chloride'
p1237
NsS'norethynodrel'
p1238
NsS'cercosporin'
p1239
NsS'iodochloroxyquinoline'
p1240
NsS'3_deoxydenosine'
p1241
NsS'oftan_idu'
p1242
NsS'beclomethasone_dipropionate'
p1243
NsS'splitomicin'
p1244
NsS'mtw_molsidomin'
p1245
NsS'digitoxigenin'
p1246
NsS'tegafur'
p1247
NsS'deracoxib'
p1248
NsS'nicergolin_von_ct'
p1249
NsS'azelastine_hcl'
p1250
((F0.8571428571428571
S'azelastine_hydrochloride'
p1251
tp1252
S"(st) matching: ratio , lcs, (key,drug) (keynorm,drugnorm 0.857142857143 azelastine_h ('azelastine_hcl', 'azelastine_hydrochloride') ('azelastine_hcl', 'azelastine_hydrochloride')"
p1253
tp1254
sS'carprofen'
p1255
NsS'gsk_3b_inhibitor_viii'
p1256
NsS'roxatidine_acetate_hcl'
p1257
NsS'embonate__noscapine_hydrogen'
p1258
NsS'toltrazuril'
p1259
NsS'pi_103_hydrochloride'
p1260
NsS'rondual_kinase_inhibitor'
p1261
NsS'(16beta_17beta)_estra_1_3_5(10)_triene_3_16_17_triol'
p1262
NsS'dihydro_7_desacetyldeoxygedunin'
p1263
NsS'cucurbitacin_i'
p1264
NsS'hispidin'
p1265
NsS'chem_mart_moclobemide'
p1266
NsS'nvp_auy922_10'
p1267
NsS'methylandrostenediol'
p1268
NsS'rimcazole'
p1269
NsS'nitrendipino_ratiopharm'
p1270
NsS'4_demethoxydaunorubicin_hydrochloride_(65)'
p1271
NsS'valyltryptophan'
p1272
NsS'physostigmine_salicylate'
p1273
NsS'tozasertib_10'
p1274
NsS'2_(trifluoromethyl)_10h_phenothiazine'
p1275
NsS'vegf_receptor_2_kinase_inhibitor_iv'
p1276
NsS'manerix'
p1277
NsS'ntncb_hydrochloride'
p1278
NsS'tiotidine'
p1279
NsS'gabexate_mesylate'
p1280
NsS'ruxolitinib_10'
p1281
NsS'i_ome_ag_538'
p1282
NsS'linoelaidic_acid__(e_z)_isomer'
p1283
NsS'idoxuridine'
p1284
NsS'molsihexal'
p1285
NsS'norketamine_hydrochloride'
p1286
((F0.88
S'ketamine_hydrochloride'
p1287
tp1288
S"(st) matching: ratio , lcs, (key,drug) (keynorm,drugnorm 0.88 ketamine_hydrochloride ('norketamine_hydrochloride', 'ketamine_hydrochloride') ('norketamine_hydrochloride', 'ketamine_hydrochloride')"
p1289
tp1290
sS'fu_jmbii227b'
p1291
NsS'proscillaridin_a'
p1292
NsS'trolox'
p1293
NsS'dihydroergocristine'
p1294
NsS'norcyclobenzaprine'
p1295
NsS'desoxypeganine_hydrochloride'
p1296
NsS'leu(5)_enkephalin'
p1297
NsS'lidoflazine'
p1298
NsS'arecaidine_propargyl_ester_tosylate'
p1299
NsS'catechin_pentabenzoate'
p1300
NsS'vindesin'
p1301
NsS'isoeugenitol'
p1302
NsS'suloctidil_hydrochloride'
p1303
NsS'spectinomycin_dihydrochloride'
p1304
NsS'orlistat'
p1305
NsS'sodium_dehydrocholate'
p1306
NsS'nvp_bgj398_10'
p1307
NsS'buparlisib_10'
p1308
NsS'digitoxin_philo'
p1309
NsS'piplartine'
p1310
NsS'amp__dibutyryl_cyclic'
p1311
NsS'2_4_dideoxy_dc_45_a2'
p1312
NsS'syrosingopine'
p1313
NsS'protein_tyrosine_phosphatase_inhibitor_iv'
p1314
NsS'tyrphostin_46'
p1315
NsS'tyrphostin_47'
p1316
NsS'selinidin'
p1317
NsS'bjm_ctd2_9'
p1318
NsS'bntx_maleate'
p1319
NsS'molsidomine'
p1320
NsS'amperozide'
p1321
NsS'e6_berbamine'
p1322
NsS'benzoxiquine'
p1323
NsS'procarbazine_hydrochloride'
p1324
NsS'cymarigenin'
p1325
NsS'resocyanine'
p1326
NsS'bongkrekic_acid'
p1327
NsS'ritanserin'
p1328
NsS'16beta_bromoandrosterone'
p1329
NsS'geldanamycin'
p1330
NsS'stylomycin'
p1331
NsS'nonoxynol__1(4)_sulfate__sodium_salt'
p1332
NsS'zd_2079_hydrochloride'
p1333
NsS'mestanolone'
p1334
NsS'chemistry_1571'
p1335
NsS'brinzolamide'
p1336
NsS'brd_k67847053_(guanabenz_acetate)'
p1337
NsS'apigenin_triacetate'
p1338
NsS'fendiline_hydrochloride'
p1339
NsS'nitrendipin_atid'
p1340
NsS'trap_101'
p1341
NsS'mesylate__gabexate'
p1342
NsS'dibutyryl_adenosine_3__5__monophosphate'
p1343
NsS'methyldopa_(l__)'
p1344
NsS'roscovitine_10'
p1345
NsS'nintedanib_10'
p1346
NsS'trifluoperazine_dihydrochloride'
p1347
NsS'ethylphenylephrine'
p1348
NsS'pirenzepine'
p1349
NsS'fisetinidol'
p1350
NsS'gw_311616_hydrochloride'
p1351
NsS'endo_iwr_1'
p1352
NsS'afatinib_10'
p1353
NsS'hydrochloride__fendiline'
p1354
NsS'rhizocarpic_acid'
p1355
NsS'cosmosiin'
p1356
NsS'thiorphan__(r)_isomer'
p1357
NsS'fenobam'
p1358
NsS'cnqx_disodium_salt'
p1359
NsS'antimycin_a'
p1360
NsS'medroxyprogesterone'
p1361
((F1.0
S'medroxyprogesterone_acetate'
p1362
tp1363
S"Suffix-based-exact-matching ('medroxyprogesterone', 'medroxyprogesterone_acetate') ('medroxyprogesterone', 'medroxyprogesterone_acetate')"
p1364
tp1365
sS'buphenine'
p1366
NsS'er_27319_maleate'
p1367
NsS'canrenoic_acid_potassium_salt'
p1368
NsS'fostamatinib'
p1369
NsS'bucladesine'
p1370
NsS'nomegestrol_acetate'
p1371
((F0.8947368421052632
S'megestrol_acetate'
p1372
tp1373
S"(st) matching: ratio , lcs, (key,drug) (keynorm,drugnorm 0.894736842105 megestrol_acetate ('nomegestrol_acetate', 'megestrol_acetate') ('nomegestrol_acetate', 'megestrol_acetate')"
p1374
tp1375
sS'deoxycorticosterone'
p1376
NsS'nvp_aew541_10'
p1377
NsS'jak3_inhibitor_ii'
p1378
NsS'mdm2_inhibitor'
p1379
NsS'buddleoflavonoloside'
p1380
NsS'otssp167'
p1381
NsS'necrostatin_1'
p1382
NsS'digitoxin_b\xe3\xbcrger'
p1383
NsS'circupon'
p1384
NsS'elesclomol'
p1385
NsS'gibberellic_acid'
p1386
NsS'chelerythrine_chloride_10'
p1387
NsS'cinnarizine'
p1388
NsS'mephentermine'
p1389
NsS'carbazol_9_yl_p_tolyl_methanone'
p1390
NsS'methiazole'
p1391
NsS'blue__swiss'
p1392
NsS'periplocymarin'
p1393
NsS'gastrocure'
p1394
NsS'nilotinib'
p1395
NsS'phenolphthalein'
p1396
NsS'rofecoxib'
p1397
NsS'nicotine_ditartrate'
p1398
NsS'enrofloxacin'
p1399
NsS'2_chloroadenosine'
p1400
NsS'foretinib_10'
p1401
NsS'sorafenib_10'
p1402
NsS'isocarboxazid'
p1403
NsS'omdm_2'
p1404
NsS'tyrphostin_ag'
p1405
NsS'hyperoside'
p1406
NsS'phenoxazine'
p1407
NsS'vincimax'
p1408
NsS'tibolone'
p1409
NsS'bmy_7378_dihydrochloride'
p1410
NsS'cis_(z)_flupenthixol'
p1411
NsS'ketanserin_tartrate_hydrate'
p1412
NsS'zm_39923_hydrochloride'
p1413
NsS'ca_074_me'
p1414
NsS'brd_k87343924_(wortmannin)'
p1415
NsS'metrazol'
p1416
NsS'3_methyladenine'
p1417
NsS'narcotine'
p1418
NsS'ql_xii_47'
p1419
NsS'imperatorin'
p1420
NsS'penfluridol'
p1421
NsS'luteolin'
p1422
NsS'flavokawain_b'
p1423
NsS'oxantel_pamoate'
p1424
NsS'nocodazole'
p1425
NsS'3_rhamnosyl_glucosyl_quercetin'
p1426
NsS'opipramol_dihydrochloride'
p1427
NsS'nitrendepat'
p1428
NsS'ricinine'
p1429
NsS'gr_89696_fumarate'
p1430
NsS'ub_165_fumarate'
p1431
NsS'peucedanin'
p1432
NsS'linsitinib'
p1433
NsS'ethylmaleimide'
p1434
NsS'idoxuridine__radical_ion_(1_)'
p1435
NsS'phorbol_12_myristate_13_acetate_(pma)'
p1436
NsS'azaperone'
p1437
NsS'corticosterone'
p1438
NsS'quinidine_hydrochloride_monohydrate'
p1439
NsS'capsazepine'
p1440
NsS'brivanib'
p1441
NsS'dihomo_gamma_linolenic_acid'
p1442
NsS'benzyl'
p1443
NsS'cilostamide'
p1444
NsS'131i_labeled_idoxuridine'
p1445
NsS'von_ct__nicergolin'
p1446
NsS'amuvatinib'
p1447
NsS'xeranol'
p1448
NsS'sb_200646_hydrochloride'
p1449
NsS'deacetoxy_7_oxisogedunin'
p1450
NsS'bromhexin_bc'
p1451
NsS'azacitidine_10'
p1452
NsS'w_13_hydrochloride'
p1453
NsS'tranilast'
p1454
NsS'sutent_10'
p1455
NsS'altanserin_hydrochloride'
p1456
NsS'dau_5884_hydrochloride'
p1457
NsS'cjd_pla_20_1'
p1458
NsS'zm_306416_hydrochloride'
p1459
NsS'pregneninolone'
p1460
NsS'p_aminosalicylic_acid_monosodium_salt'
p1461
NsS'sulfaguanidine'
p1462
NsS'ikk_16'
p1463
NsS'tc_2559_difumarate'
p1464
NsS'quentan'
p1465
NsS'niguldipine_hydrochloride'
p1466
NsS'linoleic_acid__sodium_salt__(e_e)_isomer'
p1467
NsS'phenformin_hydrochloride'
p1468
NsS'thapsigargin'
p1469
NsS'bd_1063_dihydrochloride'
p1470
NsS'enkephalin__5_leucine'
p1471
NsS'nutlin_3'
p1472
NsS'ivachtin'
p1473
NsS'hypericin'
p1474
NsS'stugeron'
p1475
NsS'nylidrin_hydrochloride'
p1476
NsS'proadifen_hydrochloride'
p1477
NsS'2_(4_chlorophenoxy)_2_methylpropionic_acid'
p1478
NsS'dmab_anabaseine_dihydrochloride'
p1479
NsS'dihydroergocristine_monomesylate'
p1480
NsS'triciribine'
p1481
NsS'pik_93'
p1482
NsS'pik_90'
p1483
NsS'rhamnetin'
p1484
NsS'linsitinib_10'
p1485
NsS'sb_258585_hydrochloride'
p1486
NsS'ifenprodil_tartrate'
p1487
NsS'tocainide'
p1488
NsS'epigallocatechin'
p1489
NsS'ql_xi_92'
p1490
NsS'cortisone'
p1491
((F1.0
S'cortisone_acetate'
p1492
tp1493
S"Suffix-based-exact-matching ('cortisone', 'cortisone_acetate') ('cortisone', 'cortisone_acetate')"
p1494
tp1495
sS'auraptene'
p1496
NsS'auranofin'
p1497
NsS'xylazine_phosphate_(1:1)'
p1498
NsS'diacetate__dequalinium'
p1499
NsS'arachidonamide'
p1500
NsS'terry_white_chemists_moclobemide'
p1501
NsS'fluomycin'
p1502
NsS'trans_trans_9_12_octadecadienoic_acid'
p1503
NsS'hydrogen_embonate__noscapine'
p1504
NsS'nonylphenoxypolyethoxyethanols'
p1505
NsS'midazolam_hcl'
p1506
NsS'colforsin'
p1507
NsS'yellow__turmeric'
p1508
NsS'sibutramine_hcl'
p1509
NsS'cisapride'
p1510
NsS'dibutyrylcyclic_amp'
p1511
NsS'herniarin'
p1512
NsS'prikkelhoest__librochin'
p1513
NsS'n__o__dibutyryl_camp'
p1514
NsS'tivantinib_10'
p1515
NsS'dhpc8_buildingblockc04'
p1516
NsS'rs_100329_hydrochloride'
p1517
NsS'quinacrine_dihydrochloride_dihydrate'
p1518
NsS'jnj_10191584_maleate'
p1519
NsS'alw_ii_38_3'
p1520
NsS'prostaglandin_a1'
p1521
NsS'jak3_inhibitor_vi'
p1522
NsS'sinensetin'
p1523
NsS'radicicol'
p1524
NsS'jnk_9l_10'
p1525
NsS'barasertib'
p1526
NsS'8_{[2_oxo_2_(1_pyrrolidinyl)ethyl]thio}quinoline'
p1527
NsS'betamethasone'
p1528
((F1.0
S'betamethasone_dipropionate'
p1529
tp1530
S"Suffix-based-exact-matching ('betamethasone', 'betamethasone_dipropionate') ('betamethasone', 'betamethasone_dipropionate')"
p1531
tp1532
sS'19_norethindrone'
p1533
NsS'fraxidin_methyl_ether'
p1534
NsS'erastin'
p1535
NsS'pelitinib_10'
p1536
NsS'nafadotride'
p1537
NsS'moclobemid_puren'
p1538
NsS'dabrafenib_10'
p1539
NsS'thiorphan'
p1540
NsS'dl_pdmp'
p1541
NsS'tyloxapol'
p1542
NsS'cefatrizine_propylene_glycol'
p1543
NsS'sulpiride'
p1544
NsS'mendiaxon'
p1545
NsS'disodium_salt_bucladesine'
p1546
NsS'chloride__dequalinium'
p1547
NsS'thiocolchicoside'
p1548
NsS'irsogladine_maleate'
p1549
NsS'rottlerin_ncgc00025228_11'
p1550
NsS'cardiazol'
p1551
NsS'gliquidone'
p1552
NsS'sulphaguanidine'
p1553
NsS'camptothecin'
p1554
NsS'crotamiton'
p1555
NsS'labosept'
p1556
NsS'pkcbeta_inhibitor'
p1557
NsS'coumarin'
p1558
NsS'eugenol'
p1559
NsS'tocainide__(s)_isomer'
p1560
NsS'ethisterone'
p1561
NsS'decumbin'
p1562
NsS'pracinostat_10'
p1563
NsS'torasemide'
p1564
NsS'indatraline'
p1565
NsS'benperidol'
p1566
NsS'syn\xe3\xa9dil'
p1567
NsS'p_286_(contrast_media)'
p1568
NsS'ischemin_10'
p1569
NsS'propentofylline'
p1570
NsS'diphenylcyclopropenone'
p1571
NsS'cytosporone_b'
p1572
NsS'halofantrine_hydrochloride'
p1573
NsS'ipsapirone'
p1574
NsS'fti_276_trifluoroacetate'
p1575
NsS'estra_1_3_5(10)_triene_3_16beta_17beta_triol'
p1576
NsS'cinanserin_hydrochloride'
p1577
NsS'terbinafine_hcl'
p1578
((F0.8666666666666667
S'terbinafine_hydrochloride'
p1579
tp1580
S"(st) matching: ratio , lcs, (key,drug) (keynorm,drugnorm 0.866666666667 terbinafine_h ('terbinafine_hcl', 'terbinafine_hydrochloride') ('terbinafine_hcl', 'terbinafine_hydrochloride')"
p1581
tp1582
sS'n_(4_bromobenzyl)_5_methoxytryptamine'
p1583
NsS'embelin'
p1584
((F1.0
S'embeline'
p1585
tp1586
S"(st) matching: ratio , lcs, (key,drug) (keynorm,drugnorm 1.0 embelin ('embelin', 'embeline') ('embelin', 'embeline')"
p1587
tp1588
sS'amyleine_hydrochloride'
p1589
NsS'chlormezanone'
p1590
NsS'quipazine_dimaleate_salt'
p1591
NsS'nvp_bgt226'
p1592
NsS'chinoform'
p1593
NsS'r(_)_apomorphine_hydrochloride_hemihydrate'
p1594
NsS'carbonyl_cyanide_m_chlorophenyl_hydrazone'
p1595
NsS'dilatol'
p1596
NsS'l_733_060_hydrochloride'
p1597
NsS'nitre_puren'
p1598
NsS'biperiden_hydrochloride'
p1599
NsS'phetanol'
p1600
NsS'imatinib_10'
p1601
NsS'aminopentamide'
p1602
NsS'bo2_(inhibits_rad51)'
p1603
NsS'proscillaridin'
p1604
NsS'fenspiride_hydrochloride'
p1605
NsS'(4_(trifluoromethoxy)phenyl)hydrazonopropanedinitrile'
p1606
NsS'doramapimod'
p1607
NsS'heumann__molsidomin'
p1608
NsS'cgp_54626_hydrochloride'
p1609
NsS'dimitronal'
p1610
NsS'mianserine_hydrochloride'
p1611
NsS'akt_inhibitor_iv'
p1612
NsS'skf_86002_dihydrochloride'
p1613
NsS'hdac6_inhibitor_isox'
p1614
NsS'sertaconazole_nitrate'
p1615
NsS'angiogenesis_inhibitor'
p1616
NsS'idoxuridine__3h_labeled'
p1617
NsS'acetopromazine_maleate_salt'
p1618
NsS'gabexate_monomethanesulfonate__14c_labeled_cpd'
p1619
NsS'nvp_auy922'
p1620
NsS'thiostrepton'
p1621
NsS'thyroxine_(l)'
p1622
NsS'ipecine'
p1623
NsS'isoflupredone_acetate'
p1624
NsS'brd_a82238138_(budesonide)'
p1625
NsS'sant_1'
p1626
NsS'u_99194_maleate'
p1627
NsS'raf1_kinase_inhibitor_i'
p1628
NsS'gefitinib_10'
p1629
NsS'cl_82198_hydrochloride'
p1630
NsS'selamectin'
p1631
NsS'domperidon_teva'
p1632
NsS'bosutinib_10'
p1633
NsS'chemistry_2804'
p1634
NsS'compound_12'
p1635
NsS'piceatannol'
p1636
NsS'compound_10'
p1637
NsS'mibefradil_dihydrochloride'
p1638
NsS'fali_cor'
p1639
NsS'sb_216641_hydrochloride'
p1640
NsS'phensuximide'
p1641
NsS'jnk_in_5a_10'
p1642
NsS'chlormethazanone'
p1643
NsS'dehydroisoandosterone_3_acetate'
p1644
NsS'methylstat_10'
p1645
NsS'dehydrocholic_acid__sodium_salt'
p1646
NsS'von_ct__bromhexin'
p1647
NsS'mammea_a/ba_+_a/bb'
p1648
NsS'cyclo_[arg_gly_asp_d_phe_val]'
p1649
NsS'methoxy_6_harmalan'
p1650
NsS'proglumide'
p1651
NsS'devazepide'
p1652
NsS'tizanidine_hcl'
p1653
((F0.8571428571428571
S'tizanidine_hydrochloride'
p1654
tp1655
S"(st) matching: ratio , lcs, (key,drug) (keynorm,drugnorm 0.857142857143 tizanidine_h ('tizanidine_hcl', 'tizanidine_hydrochloride') ('tizanidine_hcl', 'tizanidine_hydrochloride')"
p1656
tp1657
sS'novo_moclobemide'
p1658
NsS'monomethanesulfonate__gabexate'
p1659
NsS'nitren_1a_pharma'
p1660
NsS'dehydrocholic_acid'
p1661
NsS'nelfinavir'
p1662
NsS'n_chlorophenyl_n_hexylpiperazine'
p1663
NsS'cyclopentyladenosine'
p1664
NsS'blue_n__methylene'
p1665
NsS'bromhexine'
p1666
NsS'n20c_hydrochloride'
p1667
NsS'cimaterol'
p1668
NsS'apo_moclobemide'
p1669
NsS'canertinib'
p1670
NsS's(_)_timolol'
p1671
NsS'rocilinostat'
p1672
NsS'brd_k91509126_(piceatannol)'
p1673
NsS'ridauran'
p1674
((F0.875
S'ridaura'
p1675
tp1676
S"(st) matching: ratio , lcs, (key,drug) (keynorm,drugnorm 0.875 ridaura ('ridauran', 'ridaura') ('ridauran', 'ridaura')"
p1677
tp1678
sS'ciba_32.644_ba'
p1679
NsS'vandetanib'
p1680
NsS'chlormadinone_acetate'
p1681
NsS'homoharringtonine'
p1682
NsS'dppe_fumarate'
p1683
NsS'chromosmon'
p1684
NsS'flubron'
p1685
NsS'prednisolone_hemisuccinate'
p1686
NsS'taxifolin_(+)'
p1687
NsS'brd_k77830450_(forskolin)'
p1688
NsS'3_3__4__5_7_pentahydroxyflavone'
p1689
NsS'ethyl_beta_carboline_3_carboxylate'
p1690
NsS'sb_206553_hydrochloride'
p1691
NsS'linifanib'
p1692
NsS'v_ama37'
p1693
NsS'cmpd_1'
p1694
NsS'hymecromone'
p1695
NsS'clenbuterol_hydrochloride'
p1696
NsS'terfenadin_von_ct'
p1697
NsS'terbutaline_hemisulfate'
p1698
NsS'flufenamic_acid'
p1699
NsS'fenoterol_hydrobromide'
p1700
NsS'orimeten'
p1701
NsS'sulfamethazine_sodium_salt'
p1702
NsS'chlorhexidine'
p1703
((F1.0
S'chlorhexidine_gluconate'
p1704
tp1705
S"Suffix-based-exact-matching ('chlorhexidine', 'chlorhexidine_gluconate') ('chlorhexidine', 'chlorhexidine_gluconate')"
p1706
tp1707
sS'n_ethylmaleimide'
p1708
NsS'alfacalcidol'
p1709
NsS'o_3m3fbs'
p1710
NsS'ikk_3_inhibitor_ix'
p1711
NsS'olaparib_10'
p1712
NsS'alfadolone_acetate'
p1713
NsS'guggulsterone'
p1714
NsS'hexylcaine_hydrochloride'
p1715
NsS'dihydroptaeroxylin'
p1716
NsS'fenbendazole'
p1717
NsS'pyrazolanthrone_10'
p1718
NsS'benzopurpurin_(b)'
p1719
NsS'baeomycesic_acid'
p1720
NsS'homosalate'
p1721
NsS'pepstatin_a'
p1722
NsS'dibutyryl_camp__sodium_salt'
p1723
NsS'ethyladrianol'
p1724
NsS'troglitazone'
p1725
NsS'amt_hydrochloride'
p1726
NsS'nvp_bgj398'
p1727
NsS'alosetron_hcl'
p1728
NsS'indirubin'
p1729
NsS'zm_323881_hydrochloride'
p1730
NsS'motesanib'
p1731
NsS'zd_7155_hydrochloride'
p1732
NsS'rs_102895_hydrochloride'
p1733
NsS'5_fluoro_1_(tetrahydro_2_furanyl)_2_4_pyrimidinedione'
p1734
NsS'allergan_211'
p1735
NsS'cinanserin'
p1736
NsS'daunorubicin'
p1737
((F1.0
S'daunorubicin_hydrochloride'
p1738
tp1739
S"Suffix-based-exact-matching ('daunorubicin', 'daunorubicin_hydrochloride') ('daunorubicin', 'daunorubicin_hydrochloride')"
p1740
tp1741
sS'bithionate_sodium'
p1742
NsS'nisoxetine_hydrochloride'
p1743
NsS'gelsemine'
p1744
NsS'neoeunomin'
p1745
NsS'para_aminosalicylic_acid'
p1746
NsS'(5beta)_3_7_12_trioxocholan_24_oic_acid'
p1747
NsS'chloroxine'
p1748
NsS'seldane'
p1749
NsS'domidon'
p1750
NsS'methylthionine_chloride'
p1751
NsS'hydrochloride__etilefrine'
p1752
NsS'ergodavur'
p1753
NsS'clopidogrel'
p1754
((F1.0
S'clopidogrel_bisulfate'
p1755
tp1756
S"(st) matching: ratio , lcs, (key,drug) (keynorm,drugnorm 1.0 clopidogrel ('clopidogrel', 'clopidogrel_bisulfate') ('clopidogrel', 'clopidogrel_bisulfate')"
p1757
tp1758
sS'7_nitroindazole'
p1759
NsS'vitexin'
p1760
NsS'tanespimycin_10'
p1761
NsS'glycocholate_sodium'
p1762
NsS'tremorine_dihydrochloride'
p1763
NsS'nonoxynol'
p1764
NsS'harpagoside'
p1765
NsS'lympholysin'
p1766
NsS'na_tosyl_phe_chloromethyl_ketone'
p1767
NsS'bms_182874_hydrochloride'
p1768
NsS'5_leucine_enkephalin'
p1769
NsS'ursolic_acid'
p1770
NsS'rocornal'
p1771
NsS'[imino(methylamino)methyl]_[cas]'
p1772
NsS'quinine_hemisulfate_salt_monohydrate'
p1773
NsS'pyrrolidinedithiocarbamate_ammonium'
p1774
NsS'amsacrine'
p1775
NsS'xylometazoline_hydrochloride'
p1776
NsS'amsacrina'
p1777
NsS'skf_81297_hydrobromide'
p1778
NsS'psoromic_acid'
p1779
NsS'etilefrine_hydrochloride'
p1780
NsS'fendiline'
p1781
NsS'mnitmt'
p1782
NsS'aristolochic_acid'
p1783
NsS'amoxicillin_crystalline'
p1784
NsS'calpeptin'
p1785
NsS'azlocillin_sodium_salt'
p1786
NsS'triptolide'
p1787
NsS'evodiamine'
p1788
NsS'digimed'
p1789
NsS'mek1/2_inhibitor'
p1790
NsS'chlormadinone_acetate__(9_beta_10_alpha)_isomer'
p1791
NsS'7b_cis'
p1792
NsS'gr_55562_dihydrochloride'
p1793
NsS'debrisoquin_sulfate'
p1794
NsS'gr_32191_hydrochloride'
p1795
NsS'decholin'
p1796
NsS'belinostat_10'
p1797
NsS'nitrendipin_von_ct'
p1798
NsS'flumethasone'
p1799
NsS'zk_93426_hydrochloride'
p1800
NsS'stat3_inhibitor_vi__s31_201'
p1801
NsS'oxindole_i'
p1802
NsS'nitrendipin_al'
p1803
NsS'n__(2_aminoethyl)_4_chlorobenzamide_(ro_16_6491)'
p1804
NsS'spiroperone'
p1805
NsS'mpmq_hydrochloride'
p1806
NsS'moclobeta'
p1807
NsS'sin_10'
p1808
NsS'korazole'
p1809
NsS'eburnamonine_(_)'
p1810
NsS'hemicholinium_bromide'
p1811
NsS'tensogradal'
p1812
NsS'nemonapride'
p1813
NsS'cinnarizine_l_tartrate_(1:1)'
p1814
NsS'cot_10b'
p1815
NsS'picrotoxinin'
p1816
NsS'gsk_j4'
p1817
NsS'dirithromycin'
p1818
NsS'nicergolin_lindo'
p1819
NsS'r(_)_propylnorapomorphine'
p1820
NsS'luzindole'
p1821
NsS'numoclobemide'
p1822
NsS'hydrochloride__cinanserin'
p1823
NsS'mesylate__nelfinavir'
p1824
NsS'polognost'
p1825
NsS'idoxuridine__131i_labeled'
p1826
NsS'carbacyclin'
p1827
NsS'buparlisib'
p1828
NsS'boldine'
p1829
NsS'xylazine'
p1830
NsS'dequalinium_chloride'
p1831
NsS'p\xe3\xa9ridys'
p1832
NsS'bilignost'
p1833
NsS'dequadin'
p1834
NsS'dinaciclib_10'
p1835
NsS'sulpitil'
p1836
NsS'darinaparsin'
p1837
NsS'vindesine'
p1838
NsS'mocetinostat_10'
p1839
NsS'monomesylate__dihydroergocristine'
p1840
NsS'ici_118_551_hydrochloride'
p1841
NsS'suloctidil'
p1842
NsS'bucladesine_sodium_salt'
p1843
NsS'oxfendazole'
p1844
NsS'gsk_j1'
p1845
NsS'narciclasine'
p1846
NsS'trichostatin_a'
p1847
NsS'crizotinib'
p1848
NsS'nintedanib'
p1849
NsS'tivozanib_10'
p1850
NsS'n_(4_hydroxyphenyl)_trans_retinamide'
p1851
NsS'olomoucine'
p1852
NsS'iproniazide_phosphate'
p1853
NsS'sedoval'
p1854
NsS'dnqx_disodium_salt'
p1855
NsS'tiaprofenic_acid'
p1856
NsS'sch_39166_hydrobromide'
p1857
NsS'pirenzepin_von_ct'
p1858
NsS'bongkrekate'
p1859
NsS'everolimus_10'
p1860
NsS'gw_583340_dihydrochloride'
p1861
NsS'cabozantinib'
p1862
NsS'linolenic_acid_(18:3_n_3)'
p1863
NsS'vertigo_meresa'
p1864
NsS'amsidyl'
p1865
NsS'azauridine'
p1866
NsS'linoleic_acid'
p1867
NsS'entero_septol'
p1868
NsS'metergoline'
p1869
NsS'nitrendipin_ratiopharm'
p1870
NsS'n(6)_0(2_)_dibutyryl_cyclic_amp'
p1871
NsS'rucaparib'
p1872
NsS'15_delta_prostaglandin_j2'
p1873
NsS'cilnidipine'
p1874
NsS'valerate'
p1875
NsS'esculin_hydrate'
p1876
NsS'synergisidin'
p1877
NsS'm_chlorophenylbiguanide_hydrochloride'
p1878
NsS'famel_bromhexine'
p1879
NsS'bioflutin'
p1880
NsS'imatinib'
p1881
((F1.0
S'imatinib_mesylate'
p1882
tp1883
S"Suffix-based-exact-matching ('imatinib', 'imatinib_mesylate') ('imatinib', 'imatinib_mesylate')"
p1884
tp1885
sS'lobendazole'
p1886
NsS'liothyronine_(l__isomer)_sodium'
p1887
NsS'n_desmethylclozapine'
p1888
NsS'picotamide_monohydrate'
p1889
NsS'salubrinal'
p1890
NsS'basic_blue_9'
p1891
NsS'temsirolimus_[ci779]'
p1892
NsS'tivantinib'
p1893
NsS'adenosine_5__monophosphate_monohydrate'
p1894
NsS'methapyrilene_hydrochloride'
p1895
NsS'carmofur'
p1896
NsS'curcubitacin_i'
p1897
NsS'strophantine_octahydrate'
p1898
NsS'nitrocaramiphen_hydrochloride'
p1899
NsS'dogmatil'
p1900
NsS'bmy_14802_hydrochloride'
p1901
NsS'gyki_52466_hydrochloride'
p1902
NsS'hinokitiol'
p1903
NsS'dequalinium_diundecenoate'
p1904
NsS'proadifen'
p1905
NsS'anpirtoline_hydrochloride'
p1906
NsS'androsta_1_4_dien_3_17_dione'
p1907
NsS'chloroguanide_hydrochloride'
p1908
NsS'gliclazide'
p1909
NsS'2_bromo_n_[3_(propionylamino)phenyl]benzamide'
p1910
NsS'selumetinib_10'
p1911
NsS'dehydrocholate'
p1912
NsS'syk_inhibitor_10'
p1913
NsS'methotrimeprazine_maleat_salt'
p1914
NsS'z_leu3_vs'
p1915
NsS'niridazole'
p1916
NsS'c11__raclopride'
p1917
NsS'nomifensine_maleate'
p1918
NsS'icilin'
p1919
NsS'brd_k47635719_(dexamethasone_acetate)'
p1920
NsS'vemurafenib_10'
p1921
NsS'thimerosal'
p1922
NsS'(+)_jq1'
p1923
NsS'rifaximin'
p1924
NsS'nimergoline'
p1925
NsS'motesanib_10'
p1926
NsS'beta_escin'
p1927
NsS'ponatinib_10'
p1928
NsS'terfenadine'
p1929
NsS'sericetin'
p1930
NsS'ryanodine'
p1931
NsS'dilazep_dihydrochloride'
p1932
NsS'pyrvinium_pamoate'
p1933
NsS'(_)_cotinine'
p1934
NsS'geldanamycin_10'
p1935
NsS'structure_possibly_contains_amino_acid_derivative_which_is_not_supported_in_current_version!'
p1936
NsS'bis_tyrphostin'
p1937
NsS'coramedan'
p1938
NsS'gamma_linolenic_acid_(18:3_n_6)'
p1939
NsS'xe_991_dihydrochloride'
p1940
NsS'enzastaurin_10'
p1941
NsS'eralzdin_practolol'
p1942
NsS'mapp__l_erythro'
p1943
NsS'p\xc3\xa9ridys'
p1944
NsS'parthenolide'
p1945
NsS'azacytidine_5'
p1946
NsS'tipifarnib_p1'
p1947
NsS'tipifarnib_p2'
p1948
NsS'biperiden__1s_(1_alpha_2_alpha(r*)_4_alpha)_isomer'
p1949
NsS'roscovitine'
p1950
NsS'apo_domperidone'
p1951
NsS'ku_0060648_trihydrochloride'
p1952
NsS'r_96544_hydrochloride'
p1953
NsS'fipronil'
p1954
NsS'radicicol_10'
p1955
NsS'ropinirole_hcl'
p1956
((F0.8571428571428571
S'ropinirole_hydrochloride'
p1957
tp1958
S"(st) matching: ratio , lcs, (key,drug) (keynorm,drugnorm 0.857142857143 ropinirole_h ('ropinirole_hcl', 'ropinirole_hydrochloride') ('ropinirole_hcl', 'ropinirole_hydrochloride')"
p1959
tp1960
sS'naloxone_benzoylhydrazone'
p1961
NsS'laxatone'
p1962
NsS'calycanthine'
p1963
NsS'gamanil'
p1964
NsS'diphenyleneiodonium_chloride'
p1965
NsS'mafenide_hydrochloride'
p1966
NsS'daphnetin'
p1967
NsS'aloisine_a'
p1968
NsS'cjd_pla_49_3'
p1969
NsS'nu_moclobemide'
p1970
NsS'cholan_hmb'
p1971
NsS'foliosidine'
p1972
NsS'benzamil_hydrochloride'
p1973
NsS'calcipotriol'
p1974
NsS'hustentabs_ratiopharm'
p1975
NsS'dovitinib'
p1976
NsS'brd_k80334323_(norethynodrel)'
p1977
NsS'estriol'
p1978
Ns.