(dp0
S'fentiazac'
p1
NsS'bromocryptine_mesylate'
p2
NsS'terfenadin_ratiopharm'
p3
NsS'meptazinol'
p4
NsS'cinnarizin_al'
p5
NsS'h_89_dihydrochloride'
p6
NsS'domperidon'
p7
NsS'thioproperazine_dimesylate'
p8
NsS'quercetin__3_rhamnosyl_glucosyl'
p9
NsS'idelalisib'
p10
NsS'vincamine'
p11
NsS'nvp_tae684'
p12
NsS'lawsone'
p13
NsS'carbetapentane_citrate'
p14
NsS'lofepramine'
p15
NsS'ritanserin_tartrate'
p16
NsS'c2_ceramide'
p17
NsS'pifithrin__a_hydrobromide'
p18
NsS'bc__bromhexin'
p19
NsS'endocistobil'
p20
NsS'phenamil'
p21
NsS'selumetinib'
p22
NsS'ioxaglic_acid'
p23
NsS'novo_gliclazide'
p24
NsS'chaetocin'
p25
NsS'marmesin'
p26
NsS'apoptosis_activator_2'
p27
NsS'cdk1/5_inhibitor'
p28
NsS'camptothecine'
p29
NsS'byssochlamic_acid'
p30
NsS'gefitinib'
p31
NsS'tanespimycin'
p32
NsS'dioxybenzone'
p33
NsS'naltrindole'
p34
NsS'nitrendipin_lindo'
p35
NsS'prima_1_met'
p36
NsS'molsidomin_stada'
p37
NsS'homo_gamma_linolenic_acid'
p38
NsS'gsk_3_inhibitor_ii'
p39
NsS'dequalinium_dichloride'
p40
NsS'karakoline'
p41
NsS'15_deoxy_?12_14_prostaglandin_j2'
p42
NsS'corvaton'
p43
NsS'ektebin'
p44
NsS'ed_csc_15'
p45
NsS'mercurothiolate'
p46
NsS'trequinsin_hydrochloride'
p47
NsS'cimaterol'
p48
NsS'cdk2/5_inhibitor'
p49
NsS'pyrantel_tartrate'
p50
NsS'sappanone_a_trimethyl_ether'
p51
NsS'advantage_s'
p52
NsS'cgp_71683_hydrochloride'
p53
NsS'rolipram'
p54
NsS'delcorine'
p55
NsS'nitrepuren'
p56
NsS'tiratricol__3_3__5_triiodothyroacetic_acid'
p57
NsS'ciprofibrate'
p58
NsS'chlorpromazine'
p59
((F1.0
S'chlorpromazine_hydrochloride'
p60
tp61
S"Suffix-based-exact-matching ('chlorpromazine', 'chlorpromazine_hydrochloride') ('chlorpromazine', 'chlorpromazine_hydrochloride')"
p62
tp63
sS's(+)_terguride'
p64
NsS'bu_239_hydrochloride'
p65
NsS'rifampicin'
p66
NsS'tegaserod'
p67
NsS'm_3m3fbs'
p68
NsS'serdemetan'
p69
NsS'senzit'
p70
NsS'azasetron'
p71
NsS'medrysone'
p72
NsS'linolenic_acid__homo_gamma'
p73
NsS'mgcd_265'
p74
NsS'enteroquinol'
p75
NsS'lfm_a13'
p76
NsS'vertigo_neogama'
p77
NsS'cuneatin_methyl_ether'
p78
NsS'prenylamine_lactate'
p79
NsS'hexylresorcinol'
p80
NsS'capsaicin'
p81
NsS'prostaglandin_e2'
p82
NsS'sr_57227_hydrochloride'
p83
NsS'etilefrin_ratiopharm'
p84
NsS'corazole'
p85
NsS'tivozanib'
p86
NsS'fludarabine'
p87
((F1.0
S'fludarabine_phosphate'
p88
tp89
S"Suffix-based-exact-matching ('fludarabine', 'fludarabine_phosphate') ('fludarabine', 'fludarabine_phosphate')"
p90
tp91
sS'quetiapine'
p92
((F1.0
S'quetiapine_fumarate'
p93
tp94
S"Suffix-based-exact-matching ('quetiapine', 'quetiapine_fumarate') ('quetiapine', 'quetiapine_fumarate')"
p95
tp96
sS'protionamide'
p97
NsS'prunetin'
p98
NsS'cinobufagin'
p99
NsS'fenasal'
p100
NsS'glycocholic_acid'
p101
NsS'talniflumate'
p102
NsS'bw_b_70c'
p103
NsS'pms_moclobemide'
p104
NsS'niguldipine'
p105
NsS'tpca_1'
p106
NsS'at_mlpcn_csc_006'
p107
NsS'syn\xc3\xa9dil'
p108
NsS'isoreserpine'
p109
NsS'fu_jmbii113b'
p110
NsS'bufalin'
p111
NsS'ingenol_3__20_dibenzoate'
p112
NsS'zaprinast'
p113
NsS'puromycin'
p114
NsS'brd_k42635745_(suloctidil)'
p115
NsS'cain_s_acridine'
p116
NsS'diphenylpyraline_hydrochloride'
p117
NsS'bcl_2_inhibitor'
p118
NsS'vatalanib'
p119
NsS'9_amino_1_2_3_4_tetrahydroacridine'
p120
NsS'brd_k37694030_(doxepin_hydrochloride)'
p121
NsS'dynexan_mhp'
p122
NsS'gabexate'
p123
NsS'embonate__noscapine_hydrogen'
p124
NsS'sericetin_dimethyl_ether'
p125
NsS'kanamycin_a_sulfate'
p126
NsS'(e)_capsaicin'
p127
NsS'gr_144053_trihydrochloride'
p128
NsS'pipamperone'
p129
NsS'flubendazole'
p130
NsS'17_alpha_testosterone'
p131
NsS'brd_k67847053_(guanabenz_acetate)'
p132
NsS'isorotenone'
p133
NsS'apigenin_triacetate'
p134
NsS'hydrochloride__biperiden'
p135
NsS'cyclopenthiazide'
p136
NsS'bucladesine__monosodium_salt'
p137
NsS'sulfaquinoxaline_sodium_salt'
p138
NsS'cyclopamine'
p139
NsS'gargon'
p140
NsS'aurorex'
p141
NsS'2_5_dideoxyadenosine'
p142
NsS'propyl_beta_carboline_3_carboxylate'
p143
NsS'fluvastatin_sodium_salt'
p144
NsS'forskolin'
p145
NsS'sulfate__vindesine'
p146
NsS'rhodomyrtoxin_b'
p147
NsS'2_beta_d_ribofuranosyl_1_2_4_triazine_3_5(2h_4h)_dione'
p148
NsS'naringenine'
p149
NsS'epibatidine_(+/_)'
p150
NsS'folinic_acid_calcium_salt'
p151
NsS'p_aminosalicylic_acid_monolithium_salt'
p152
NsS'r(_)_2_10_11_trihydroxyaporphine'
p153
NsS'sk&f_525_a'
p154
NsS'celastrol'
p155
NsS'dubinidine'
p156
NsS'bibx_1382_dihydrochloride'
p157
NsS'mdl_73005ef_hydrochloride'
p158
NsS'fenretinide'
p159
NsS'cinarizine'
p160
NsS'vinorelbine'
p161
((F1.0
S'vinorelbine_tartrate'
p162
tp163
S"(st) matching: ratio , lcs, (key,drug) (keynorm,drugnorm 1.0 vinorelbine ('vinorelbine', 'vinorelbine_tartrate') ('vinorelbine', 'vinorelbine_tartrate')"
p164
tp165
sS'sdm25n_hydrochloride'
p166
NsS'para_trifluoromethoxyphenylhydrazone__carbonyl_cyanide'
p167
NsS'methandriol'
p168
NsS'fluphenazine_n_2_chloroethane__dihydrochloride'
p169
NsS'trans_1_4_bis(2_chlorobenzaminomethyl)cyclohexane_dihydrochloride'
p170
NsS'prestw_550'
p171
NsS'h_9_dihydrochloride'
p172
NsS'brd_k23478508_(digoxin)'
p173
NsS'rimcazole_dihydrochloride'
p174
NsS'penicillic_acid'
p175
NsS'arlidin'
p176
NsS'tropisetron_hcl'
p177
NsS'modane'
p178
NsS'immethridine_dihydrobromide'
p179
NsS'akt_inhibitor_1_2'
p180
NsS'paxilline'
p181
NsS'desglucotransvaaline'
p182
NsS'erythrosine_sodium'
p183
NsS'alvocidib'
p184
NsS'ryuvidine'
p185
NsS'camptothecine_(s_+)'
p186
NsS'dephostatin'
p187
NsS'bapta_am'
p188
NsS'molsi_puren'
p189
NsS'skatole'
p190
NsS'iodopanoic_acid'
p191
NsS'cycloheximide'
p192
NsS'p_aminosalicylic_acid'
p193
NsS'scillarenin_rhamnoside'
p194
NsS'graveoline'
p195
NsS'tripelennamine_citrate'
p196
((F1.0
S'tripelennamine_hydrochloride'
p197
tp198
S"Suffix-based-exact-matching ('tripelennamine_citrate', 'tripelennamine_hydrochloride') ('tripelennamine_citrate', 'tripelennamine_hydrochloride')"
p199
tp200
sS'cp_93129_dihydrochloride'
p201
NsS'liserdol'
p202
NsS'papaverine_hydrochloride'
p203
NsS'(s)_(_)_bay_k_8644'
p204
NsS'butamben'
p205
NsS'fumonisin_b1'
p206
NsS'mw_ras12'
p207
NsS'rosiglitazone_hydrochloride'
p208
((F1.0
S'rosiglitazone_maleate'
p209
tp210
S"Suffix-based-exact-matching ('rosiglitazone_hydrochloride', 'rosiglitazone_maleate') ('rosiglitazone_hydrochloride', 'rosiglitazone_maleate')"
p211
tp212
sS'n_linoleoylglycine'
p213
NsS'2_bromo_n_[3_(butyrylamino)phenyl]benzamide'
p214
NsS'vorinostat'
p215
NsS'solvidont'
p216
NsS'ici_199_441_hydrochloride'
p217
NsS'ikk_inhibitor_x'
p218
NsS'rs_67333_hydrochloride'
p219
NsS'tranilast_wfm1.4'
p220
NsS'flurofamide'
p221
NsS'piren_basan'
p222
NsS'123i_labeled_idoxuridine'
p223
NsS'16_hydroxytriptolide'
p224
NsS'vincristine'
p225
((F1.0
S'vincristine_sulfate'
p226
tp227
S"Suffix-based-exact-matching ('vincristine', 'vincristine_sulfate') ('vincristine', 'vincristine_sulfate')"
p228
tp229
sS'enison'
p230
NsS'trioxocholate'
p231
NsS'actarit'
p232
NsS'resveratrol'
p233
NsS'fu_jmbii105b'
p234
NsS'avermectin_b1a'
p235
NsS'1_benzylimidazole'
p236
NsS'linolelaidic_acid'
p237
NsS'bromhexin_berlin_chemie'
p238
NsS'pracinostat'
p239
NsS'amlodipine_base'
p240
NsS'trametinib'
p241
NsS'cpccoet'
p242
NsS'nitrendidoc'
p243
NsS'3_6_diphenyl_1_2_4_triazin_5_yl_methyl_ether'
p244
NsS'orphenadrine_hydrochloride'
p245
((F1.0
S'orphenadrine_citrate'
p246
tp247
S"Suffix-based-exact-matching ('orphenadrine_hydrochloride', 'orphenadrine_citrate') ('orphenadrine_hydrochloride', 'orphenadrine_citrate')"
p248
tp249
sS'balminil'
p250
NsS'tuscalman'
p251
NsS'2_fluoropalmitic_acid'
p252
NsS'src_kinase_inhibitor_ii'
p253
NsS'meloxicam_sodium'
p254
((F1.0
S'meloxicam'
p255
tp256
S"Suffix-based-exact-matching ('meloxicam_sodium', 'meloxicam') ('meloxicam_sodium', 'meloxicam')"
p257
tp258
sS'triacetyloleandomycin'
p259
NsS'bisindolylmaleimide_iv'
p260
NsS'brd_k93754473_(tamoxifen_citrate)'
p261
NsS'kb_r7943_mesylate'
p262
NsS'metitepine'
p263
NsS'pifithrin__?'
p264
NsS'amethopterin_(r_s)'
p265
NsS'etilefrin'
p266
NsS'balsalazide'
p267
((F1.0
S'balsalazide_disodium'
p268
tp269
S"Suffix-based-exact-matching ('balsalazide', 'balsalazide_disodium') ('balsalazide', 'balsalazide_disodium')"
p270
tp271
sS'linolenic_acid_(18:3_n_3)'
p272
NsS'indirubin_3?_monoxime'
p273
NsS'5_iodo_2__deoxyuridine'
p274
NsS'gen_gliclazide'
p275
NsS'meglumine__ioxaglate'
p276
NsS'nvp_bez235'
p277
NsS'hydrocortisone_phosphate_triethylamine'
p278
NsS'alumino_4_aminosalicylic_acid'
p279
NsS'oligomycin_c'
p280
NsS'guastil'
p281
NsS'apo_domperidone'
p282
NsS'deguelin(_)'
p283
NsS'idoxuridine__125i_labeled'
p284
NsS'pregnenolone_succinate'
p285
NsS'troxipide'
p286
NsS'dichlorobenzamil'
p287
NsS'phosphodiesterase_v_inhibitor_ii'
p288
NsS'piretanide'
p289
NsS'mitoxantrone_dihydrochloride'
p290
((F1.0
S'mitoxantrone_hydrochloride'
p291
tp292
S"Suffix-based-exact-matching ('mitoxantrone_dihydrochloride', 'mitoxantrone_hydrochloride') ('mitoxantrone_dihydrochloride', 'mitoxantrone_hydrochloride')"
p293
tp294
sS'luteoline'
p295
NsS'ponatinib'
p296
NsS'purvalanol_a'
p297
NsS'p_chlorophenoxyisobutyric_acid'
p298
NsS'enzastaurin'
p299
NsS'alosetron_hcl'
p300
((F1.0
S'alosetron_hydrochloride'
p301
tp302
S"Suffix-based-exact-matching ('alosetron_hcl', 'alosetron_hydrochloride') ('alosetron_hcl', 'alosetron_hydrochloride')"
p303
tp304
sS'siguazodan'
p305
NsS'rutoside'
p306
NsS'brd_k62310379_(fluticasone_propionate)'
p307
NsS'n_n_hexamethyleneamiloride'
p308
NsS'telenzepine_dihydrochloride'
p309
NsS'lfm_a12'
p310
NsS'curcumin'
p311
NsS'etilefrine'
p312
NsS'piribedil_dihydrochloride'
p313
NsS'aminopurvalanol_a'
p314
NsS'domperidone'
p315
NsS'lofepramine_hydrochloride'
p316
NsS'yomesan'
p317
NsS'akti_1/2'
p318
NsS'tyrphostin_ag_1478'
p319
NsS'arminol'
p320
NsS'closantel'
p321
NsS'r(_)_2_11_dihydroxy_10_methoxyaporphine'
p322
NsS'arctigenin'
p323
NsS'palbociclib'
p324
NsS'sdz_nkt_343'
p325
NsS'nnc_05_2090_hydrochloride'
p326
NsS'racepinephrine_hcl'
p327
NsS'rompun'
p328
NsS'brd_k48970916_(danazol)'
p329
NsS'4_hexylresorcinol'
p330
NsS'nvp_tae226'
p331
NsS'oxymetholone'
p332
NsS'bh3i_1'
p333
NsS'riluzole_hydrochloride'
p334
((F1.0
S'riluzole'
p335
tp336
S"Suffix-based-exact-matching ('riluzole_hydrochloride', 'riluzole') ('riluzole_hydrochloride', 'riluzole')"
p337
tp338
sS'motilium'
p339
NsS'fosfosal'
p340
NsS'skf_77434_hydrobromide'
p341
NsS'arcyriaflavin_a'
p342
NsS'panacur'
p343
NsS'zeranol'
p344
NsS'puromycin_dihydrochloride'
p345
NsS'tiabendazole'
p346
NsS'deoxycorticosterone'
p347
NsS'inhibitor_bec_hydrochloride'
p348
NsS'meprylcaine_hydrochloride'
p349
NsS'rimexolone'
p350
NsS'l_cis_diltiazem'
p351
NsS'dicloxacillin_sodium_salt_hydrate'
p352
NsS'bilipolinum'
p353
NsS'n_acetyl_dl_homocysteine_thiolactone'
p354
NsS'2_chloro_7_methoxyphenothiazine'
p355
NsS'm_amsa'
p356
NsS'niclosamide__2_aminoethanol_(1:1)'
p357
NsS'erk_inhibitor_11e'
p358
NsS'saracatinib'
p359
NsS'zoxazolamine'
p360
NsS'brl_15572_hydrochloride'
p361
NsS'practolol__eralzdin'
p362
NsS'altrenogest'
p363
NsS'cerivastatin_na'
p364
NsS'salermide'
p365
NsS'nobiletin'
p366
NsS'cgp_12177_hydrochloride'
p367
NsS'seneciphylline'
p368
NsS'zolantidine_dimaleate'
p369
NsS'bromhexin_ratiopharm'
p370
NsS'akt_inhibitor_x'
p371
NsS'elesclomol'
p372
NsS'triludan'
p373
NsS'securinine'
p374
NsS'zstk_474'
p375
NsS'cyater'
p376
NsS'sodium_ethylmercurithiosalicylate'
p377
NsS'tetrahydropalmatine'
p378
NsS'4_fluoro_n_pyridin_3_yl_benzamide'
p379
NsS'epitestosterone'
p380
NsS'aminosalicylic_acid'
p381
NsS'homoveratrylamine'
p382
NsS'skf_96365_hydrochloride'
p383
NsS'nbqx_disodium_salt'
p384
NsS'brazilin'
p385
NsS'pentazol'
p386
NsS'benperidolneuraxpharm'
p387
NsS'carbonyl_cyanide_para_trifluoromethoxyphenylhydrazone'
p388
NsS'emetine'
p389
NsS'ciclopirox_ethanolamine'
p390
NsS'domperidon_hexal'
p391
NsS'dihydro_beta_tubaic_acid'
p392
NsS'bd_1008_dihydrobromide'
p393
NsS'diperodon_hydrochloride'
p394
NsS'betamethasone_17_21_dipropionate'
p395
NsS'equilin'
p396
NsS'dinaciclib'
p397
NsS'4_(bis(2_chloroethyl)amino)benzenebutanoic_acid'
p398
NsS'todralazine_hydrochloride'
p399
((F0.92
S'hydralazine_hydrochloride'
p400
tp401
S"(st) matching: ratio , lcs, (key,drug) (keynorm,drugnorm 0.92 dralazine_hydrochloride ('todralazine_hydrochloride', 'hydralazine_hydrochloride') ('todralazine_hydrochloride', 'hydralazine_hydrochloride')"
p402
tp403
sS'formoterol_hemifumarate'
p404
NsS'diphemanil_methylsulfate'
p405
NsS'diferuloylmethane'
p406
NsS'terfenidine'
p407
NsS'enteroseptol'
p408
NsS'darolan'
p409
NsS'9_trans_12_trans_octadecadienoic_acid'
p410
NsS'methiothepin'
p411
NsS'e_4031_dihydrochloride'
p412
NsS'n_formylmethionylalanine'
p413
NsS'temefos'
p414
NsS'abt_888_(veliparib)'
p415
NsS'homatropine_bromide'
p416
NsS'biperiden'
p417
NsS'amodiaquin_dihydrochloride_dihydrate'
p418
NsS'homatropine_hydrobromide_(r_s)'
p419
NsS'cinchonine'
p420
NsS'emetine_dihydrochloride_hydrate_(74)'
p421
NsS'hydroxytacrine_maleate_(r_s)'
p422
NsS'norethynodrel__(8_alpha)_(+_)_isomer'
p423
NsS'tracazolate_hydrochloride'
p424
NsS'sarmentogenin'
p425
NsS'capval_tropfen'
p426
NsS'cetirizine_dihydrochloride'
p427
((F1.0
S'cetirizine_hydrochloride'
p428
tp429
S"Suffix-based-exact-matching ('cetirizine_dihydrochloride', 'cetirizine_hydrochloride') ('cetirizine_dihydrochloride', 'cetirizine_hydrochloride')"
p430
tp431
sS'lomatin'
p432
NsS'9_12_octadecadienoic_acid'
p433
NsS'skf_89976a_hydrochloride'
p434
NsS'bucladesine__barium_(1:1)_salt'
p435
NsS'fgin_1_27'
p436
NsS'desacetylvinblastine_amide'
p437
NsS'dacomitinib'
p438
NsS'carbonyl_cyanide_meta_chlorophenyl_hydrazone'
p439
NsS'neo_eunomin'
p440
NsS'bulleyaconitine_a'
p441
NsS'p_aminosalicylic_acid_monopotassium_salt'
p442
NsS'methyl_benzethonium_chloride'
p443
NsS'eti_puren'
p444
NsS'zamifenacin_fumarate'
p445
NsS'tyrphostin_b44__(+)_enantiomer'
p446
NsS'pyrazolanthrone'
p447
NsS'molsicor'
p448
NsS'oxotremorine_sesquifumarate'
p449
NsS'phenolphthalein'
p450
NsS'ibudilast'
p451
NsS'methylergometrine_maleate'
p452
NsS'chromanol_293b'
p453
NsS'alprenolol_hydrochloride'
p454
NsS'nitrendipine'
p455
NsS'g_strophanthin'
p456
NsS'nicotine_ditartrate'
p457
NsS'thiophene_2_carboxylic_acid_benzothiazol_2_ylamide_mls_0446110.0001'
p458
NsS'thiethylperazine_dimalate'
p459
NsS'spiperone'
p460
NsS'cvf_csc_7_brd_a32595718'
p461
NsS'gw_3965_hydrochloride'
p462
NsS'gavestinel'
p463
NsS'cinnarizine__(e)_isomer'
p464
NsS'carbonyl_cyanide_p_trifluoromethoxyphenylhydrazone'
p465
NsS'dequalinium_diacetate'
p466
NsS'gant_58'
p467
NsS'ozagrel_hydrochloride'
p468
NsS'thonzonium_bromide'
p469
NsS'cymarin'
p470
NsS'ginsenoside_rc'
p471
NsS'ornidazole'
p472
NsS'vesamicol'
p473
NsS'diazooxonorleucine'
p474
NsS'parbendazole'
p475
NsS'moclobemid_ratiopharm'
p476
NsS'ethylestrenol'
p477
NsS'remacemide_hydrochloride'
p478
NsS'cilostamide'
p479
NsS'5_chloro_7_iodo_8_quinolinol'
p480
NsS'dorsomorphin_dihydrochloride'
p481
NsS'rs_17053_hydrochloride'
p482
NsS'moclobemide'
p483
NsS'emd_386088_hydrochloride'
p484
NsS'homochlorcyclizine_dihydrochloride'
p485
NsS'pentylenetetrazol'
p486
NsS'6_azauridine'
p487
NsS'pentylenetetrazole'
p488
NsS'brd_k68202742_(trichostatin_a)'
p489
NsS'mephentermine_sulfate'
p490
NsS'iniparib'
p491
NsS'rs_56812_hydrochloride'
p492
NsS'brd_k61496577_(flumethasone)'
p493
NsS'isoxsuprine_hydrochloride'
p494
NsS'brefeldin_a'
p495
NsS'nicergolin_ratiopharm'
p496
NsS'mesoridazine_besylate'
p497
NsS'chloroxine'
p498
NsS'fenbufen'
p499
NsS'diertine'
p500
NsS'lde225_(nvp_lde225)'
p501
NsS'foretinib'
p502
NsS'na_tosyl_lys_chloromethyl_ketone__hydrochloride'
p503
NsS'kirromycin'
p504
NsS'fluphenazine_dihydrochloride'
p505
((F1.0
S'fluphenazine_hydrochloride'
p506
tp507
S"Suffix-based-exact-matching ('fluphenazine_dihydrochloride', 'fluphenazine_hydrochloride') ('fluphenazine_dihydrochloride', 'fluphenazine_hydrochloride')"
p508
tp509
sS'neoeunomin'
p510
NsS'hydrochloride__lofepramine'
p511
NsS'leoidin_dimethyl_ether'
p512
NsS'salmeterol'
p513
NsS'loteprednol'
p514
((F1.0
S'loteprednol_etabonate'
p515
tp516
S"Suffix-based-exact-matching ('loteprednol', 'loteprednol_etabonate') ('loteprednol', 'loteprednol_etabonate')"
p517
tp518
sS'genistin'
p519
NsS'saquinavir_mesylate'
p520
NsS'bml_st330'
p521
NsS'anisomycin'
p522
NsS'baccatin_iii'
p523
NsS'xilamide'
p524
NsS'chrysene_1_4_quinone'
p525
NsS'veliparib'
p526
NsS'chlormadinone_acetate'
p527
NsS'ischemin'
p528
NsS'tenidap'
p529
NsS'zuclopenthixol_hydrochloride'
p530
NsS'nitrendipin_beta'
p531
NsS'molsidomin_heumann'
p532
NsS'idarubicin_hcl'
p533
((F1.0
S'idarubicin_hydrochloride'
p534
tp535
S"Suffix-based-exact-matching ('idarubicin_hcl', 'idarubicin_hydrochloride') ('idarubicin_hcl', 'idarubicin_hydrochloride')"
p536
tp537
sS'emulgin_913'
p538
NsS'procaterol_hydrochloride'
p539
NsS'ca_074_me'
p540
NsS'nitrensal'
p541
NsS'mocetinostat'
p542
NsS'atorvastatin'
p543
((F1.0
S'atorvastatin_calcium'
p544
tp545
S"Suffix-based-exact-matching ('atorvastatin', 'atorvastatin_calcium') ('atorvastatin', 'atorvastatin_calcium')"
p546
tp547
sS'4_(3_4_dimethoxyphenyl)pyridine_hydrobromide_wg_7'
p548
NsS'diloxanide_furoate'
p549
NsS'warfarin'
p550
((F1.0
S'warfarin_sodium'
p551
tp552
S"Suffix-based-exact-matching ('warfarin', 'warfarin_sodium') ('warfarin', 'warfarin_sodium')"
p553
tp554
sS'raf1_kinase_inhibitor_i'
p555
NsS'eglonyl'
p556
NsS'p_aminosalicylic_acid__calcium_(2:1)_salt'
p557
NsS'dihydrochloride__emetine'
p558
NsS'diethylaminoethyldiphenylpropyl_acetate'
p559
NsS'l_sulforophane'
p560
NsS'aloisine'
p561
NsS'efortil'
p562
NsS'6_diazo_5_oxo_l_norleucine'
p563
NsS'pelitinib'
p564
NsS'clopidogrel'
p565
((F1.0
S'clopidogrel_bisulfate'
p566
tp567
S"(st) matching: ratio , lcs, (key,drug) (keynorm,drugnorm 1.0 clopidogrel ('clopidogrel', 'clopidogrel_bisulfate') ('clopidogrel', 'clopidogrel_bisulfate')"
p568
tp569
sS'dipropyldopamine'
p570
NsS'neogama'
p571
NsS'cyclic_amp__dibutyryl'
p572
NsS'troleandomycin'
p573
NsS'n6__cyclopentyladenosine'
p574
NsS'naproxol'
p575
NsS'leptazole'
p576
NsS'pivmecillinam_hydrochloride'
p577
NsS'vinpocetine'
p578
NsS'psb_36'
p579
NsS'docosahexaenoic_acid_(22:6_n_3)'
p580
NsS'aceclidine_hydrochloride'
p581
NsS'methoprene_acid'
p582
NsS'clioquinol'
p583
NsS'cholestil'
p584
NsS'teniposide'
p585
NsS'dibenz(b_f)(1_4)oxazepine_10(11h)_carboxylic_acid__8_chloro___2_acetylhydrazide'
p586
NsS'eicosatrienoic_acid_(20:3_n_3)'
p587
NsS'13_cis_isomer_fenretinide'
p588
NsS'r(_)_2_10_11_trihydroxy_n_propyl_noraporphine'
p589
NsS'quercetin'
p590
NsS'pd_123319_ditrifluoroacetate'
p591
NsS'cyclopiazonic_acid'
p592
NsS'butoconazole'
p593
((F1.0
S'butoconazole_nitrate'
p594
tp595
S"Suffix-based-exact-matching ('butoconazole', 'butoconazole_nitrate') ('butoconazole', 'butoconazole_nitrate')"
p596
tp597
sS'dehydrocholic_acid__magnesium_salt'
p598
NsS'mirtazepine'
p599
NsS'tozasertib'
p600
NsS'acocantherin'
p601
NsS'dichloride__dequalinium'
p602
NsS'hoechst__33342_(cell_permeable)_(bisbenzimide)'
p603
NsS'ym_298198__desmethyl_'
p604
NsS'ruxolitinib'
p605
NsS'bibu_1361_dihydrochloride'
p606
NsS'ha_1100_hydrochloride'
p607
NsS'benperidol_neuraxpharm'
p608
NsS'ambilhar'
p609
NsS'ml_9_hydrochloride'
p610
NsS'olvanil'
p611
NsS'xaliproden_hydrochloride'
p612
NsS'n_[2_(piperidinylamino)ethyl]_4_iodobenzamide'
p613
NsS'oxymetholone__(17_beta)_isomer'
p614
NsS'norgestrel_(_)_d'
p615
NsS'meptazinol_hydrochloride'
p616
NsS'delta1_hydrocortisone_21_hemisuccinate'
p617
NsS'rifapentine'
p618
NsS'sulpor'
p619
NsS'malonoben'
p620
NsS'bromhexin_von_ct'
p621
NsS'nitrendipin_heumann'
p622
NsS'4_methylumbelliferone'
p623
NsS'convallatoxigenin'
p624
NsS'7_hydroxy_4_methyl_coumarin'
p625
NsS'dihydroergocristine_mesylate'
p626
NsS'mevastatin'
p627
NsS'purmorphamine'
p628
NsS'remoxipride_hydrochloride'
p629
NsS'eriodyctol'
p630
NsS'importazole'
p631
NsS'oxybenzone'
p632
NsS'baypress'
p633
NsS'psicocen'
p634
NsS'oxiconazole'
p635
((F1.0
S'oxiconazole_nitrate'
p636
tp637
S"Suffix-based-exact-matching ('oxiconazole', 'oxiconazole_nitrate') ('oxiconazole', 'oxiconazole_nitrate')"
p638
tp639
sS'indole_3_carbinol'
p640
NsS'bromhexine_hydrochloride'
p641
NsS'ethyloestrenol'
p642
NsS'deftan'
p643
NsS'ioxaglate__methylglucamine'
p644
NsS'novo_domperidone'
p645
NsS'sb_203186_hydrochloride'
p646
NsS'isoliquiritigenin'
p647
NsS'nitazoxanide'
p648
NsS'ethylmaleimide'
p649
NsS'diethylcarbamazine_citrate'
p650
NsS'fananserin'
p651
NsS'brd_a75409952_(wortmannin)'
p652
NsS'bromhexine__famel'
p653
NsS'bayer_2353'
p654
NsS'linoleic_acid__(z_e)_isomer'
p655
NsS'rondual_kinase_inhibitor'
p656
NsS'oxibendazole'
p657
NsS'trimetozine'
p658
NsS'cicloheximide'
p659
NsS'gangleoidin_acetate'
p660
NsS'solanine_alpha'
p661
NsS'meta_amsa'
p662
NsS'alaproclate'
p663
NsS'prothionamide'
p664
NsS'mucohexine'
p665
NsS'chloroquine_diphosphate'
p666
NsS'thalidomide'
p667
NsS'azu__moclobemid'
p668
NsS'linoleamide'
p669
NsS'talusin'
p670
NsS'honokiol'
p671
NsS'z_prolyl_prolinal'
p672
NsS'clebopride_maleate'
p673
NsS'halometasone'
p674
NsS'endecaphyllin_x'
p675
NsS'sb_205607_dihydrobromide'
p676
NsS'5_nonyloxytryptamine'
p677
NsS'moclonorm'
p678
NsS'nitrendipincorax'
p679
NsS'isoquercitrin'
p680
NsS'lopramine'
p681
NsS'bw_723c86_hydrochloride'
p682
NsS'gabexate_monomethanesulfonate'
p683
NsS'brd_k36055864_(cycloheximide)'
p684
NsS'vemurafenib'
p685
NsS'butein'
p686
NsS'mead_ethanolamide'
p687
NsS'genistein'
p688
NsS'tyrphostin_b44_(_)'
p689
NsS'ascotoxin'
p690
NsS'nylidrin'
p691
NsS'alfaxalone'
p692
NsS'molsi_1a_pharma'
p693
NsS'gurgell\xc3\xb6sung_ratiopharm'
p694
NsS'triflupromazine_hydrochloride'
p695
NsS'raltitrexed'
p696
NsS'rho_kinase_inhibitor_iii_[rockout]'
p697
NsS'leucine_enkephalin'
p698
NsS'caffeic_acid_phenethyl_ester'
p699
NsS'benzo[a]pyrene'
p700
NsS'wiskostatin'
p701
NsS'idebenone'
p702
NsS'irinotecan_hydrochloride_trihydrate'
p703
NsS'lupanine_perchlorate'
p704
NsS'morsydomine'
p705
NsS'withaferin_a'
p706
NsS'wortmannin'
p707
NsS'scopolamine_hydrobromide'
p708
((F1.0
S'scopolamine'
p709
tp710
S"Suffix-based-exact-matching ('scopolamine_hydrobromide', 'scopolamine') ('scopolamine_hydrobromide', 'scopolamine')"
p711
tp712
sS'linoleate'
p713
NsS'dequalinium_diundecenoate'
p714
NsS'afatinib'
p715
NsS'practolol'
p716
NsS'trapidil'
p717
NsS'methylene_blue'
p718
NsS'calpeptin'
p719
NsS'cefotaxime_sodium_salt'
p720
NsS'tocainide__(+_)_isomer'
p721
NsS'tremulacin'
p722
NsS'hydroquinine_hydrobromide_hydrate'
p723
NsS'bifemelane_hydrochloride'
p724
NsS'methysergide_maleate'
p725
NsS'methiothepin_maleate'
p726
NsS'hemado'
p727
NsS'amiloride_hydrochloride_dihydrate'
p728
NsS'metixene_hydrochloride'
p729
NsS'estradiol_benzoate'
p730
NsS'tetrindole_mesylate'
p731
NsS'fenretinide__13_cis_isomer'
p732
NsS'haloprogin'
p733
NsS'digophton'
p734
NsS'ethamivan'
p735
NsS'aminoglutethimide'
p736
NsS'entinostat'
p737
NsS'scoulerine'
p738
NsS'thm_i_94'
p739
NsS'maleate__domperidone'
p740
NsS'clofilium_tosylate'
p741
NsS'coumarinic_acid_methyl_ether'
p742
NsS'linomide'
p743
NsS'sto_609_acetate'
p744
NsS'belinostat'
p745
NsS'lomerizine_dihcl'
p746
NsS'tartrate__pyrantel'
p747
NsS'deoxyandirobin_lactone'
p748
NsS'alw_ii_49_7'
p749
NsS'epitiostanol'
p750
NsS'riboflavine'
p751
NsS'diundecenoate__dequalinium'
p752
NsS'erlotinib'
p753
((F1.0
S'erlotinib_hydrochloride'
p754
tp755
S"Suffix-based-exact-matching ('erlotinib', 'erlotinib_hydrochloride') ('erlotinib', 'erlotinib_hydrochloride')"
p756
tp757
sS'chlorbutin'
p758
NsS'clofibric_acid'
p759
NsS'thiomersal'
p760
NsS'debrisoquin_sulfate'
p761
NsS'l_803_087_trifluoroacetate'
p762
NsS'nu_domperidone'
p763
NsS'meclocycline_sulfosalicylate'
p764
NsS'bifonazole'
p765
NsS'bambuterol_hydrochloride'
p766
NsS'immepip_dihydrobromide'
p767
NsS'nitren_acis'
p768
NsS'moclobemide__chem_mart'
p769
NsS'rs_39604_hydrochloride'
p770
NsS'fu_jmbii127b'
p771
NsS'kynuramine'
p772
NsS'bayotensin'
p773
NsS'w_9_hydrochloride'
p774
NsS'tocainide_hydrochloride'
p775
NsS'mead_acid_(20:3_n_9)'
p776
NsS'delfen_cream'
p777
NsS'prl_3_inhibitor_i'
p778
NsS'hydrastinine_hydrochloride'
p779
NsS'mefexamide_hydrochloride'
p780
NsS'formoterol'
p781
((F1.0
S'formoterol_fumarate'
p782
tp783
S"Suffix-based-exact-matching ('formoterol', 'formoterol_fumarate') ('formoterol', 'formoterol_fumarate')"
p784
tp785
sS'gsk_j2'
p786
NsS'r(+)_6_bromo_apb'
p787
NsS'adrenam'
p788
NsS'k_strophanthidin'
p789
NsS'hydroxymetholone'
p790
NsS'torin_1'
p791
NsS'torin_2'
p792
NsS'duremesin'
p793
NsS'chlorambucil'
p794
NsS'brd_a68930007_(ouabain)'
p795
NsS'ftorafur'
p796
NsS'taxifolin_(+/_)'
p797
NsS'hexamethylmelamine'
p798
NsS'17_alpha_ethynyltestosterone'
p799
NsS'fendiline_hydrochloride'
p800
NsS'cyclizine_hydrochloride'
p801
NsS'trimipramine_maleate_salt'
p802
NsS'kerecide'
p803
NsS'pamisyl'
p804
NsS'acid__flufenamic'
p805
NsS'cinnarizine'
p806
NsS'strophanthidin'
p807
NsS'penicillin_v'
p808
((F1.0
S'penicillin_vk'
p809
tp810
S"(st) matching: ratio , lcs, (key,drug) (keynorm,drugnorm 1.0 penicillin_v ('penicillin_v', 'penicillin_vk') ('penicillin_v', 'penicillin_vk')"
p811
tp812
sS'(+)_3_hydroxy_n_methylmorphinan_d_tartrate'
p813
NsS'verteporfin'
p814
NsS'cortisol_acetate'
p815
NsS'digoxigenin'
p816
NsS'chlormethiazole_hydrochloride'
p817
NsS'tomoxetine_hydrochloride'
p818
((F1.0
S'atomoxetine_hydrochloride'
p819
tp820
S"(st) matching: ratio , lcs, (key,drug) (keynorm,drugnorm 1.0 tomoxetine_hydrochloride ('tomoxetine_hydrochloride', 'atomoxetine_hydrochloride') ('tomoxetine_hydrochloride', 'atomoxetine_hydrochloride')"
p821
tp822
sS'oleandocetin'
p823
NsS'psb_11'
p824
NsS'zardaverine'
p825
NsS'cjd_fun_4_2'
p826
NsS'lumicolchicine_gamma'
p827
NsS'ici_204_448_hydrochloride'
p828
NsS'clobenpropit_dihydrobromide'
p829
NsS'cholylglycine'
p830
NsS'valdecoxib'
p831
NsS'nimergoline'
p832
NsS'acid__iopanoic'
p833
NsS'htmt_dimaleate'
p834
NsS'jnk_9l'
p835
NsS'digitaline_nativelle'
p836
NsS'amsa_pd'
p837
NsS'dictamnine'
p838
NsS'venlafaxine_hcl'
p839
((F1.0
S'venlafaxine_hydrochloride'
p840
tp841
S"Suffix-based-exact-matching ('venlafaxine_hcl', 'venlafaxine_hydrochloride') ('venlafaxine_hcl', 'venlafaxine_hydrochloride')"
p842
tp843
sS'circo_maren'
p844
NsS'flucloxacillin_sodium'
p845
NsS'2_3_diaminopropiophenone'
p846
NsS'domperidone_maleate'
p847
NsS'lasalocid_sodium'
p848
NsS'tamoxifen__4_hydroxy___(z)_'
p849
NsS'ski_ii'
p850
NsS'clomiphene_citrate_(z_e)'
p851
NsS'benzethonium_chloride'
p852
NsS'methylstat'
p853
NsS'quizartinib'
p854
NsS'desoxymetasone'
p855
NsS'lasalocid_sodium_salt'
p856
NsS'levcromakalim'
p857
NsS'urapidil_hydrochloride'
p858
NsS'phenformin_hydrochloride'
p859
NsS'hydrochloride__bromhexine'
p860
NsS'sb_269970_hydrochloride'
p861
NsS'enkephalin__leucine'
p862
NsS'fenoldopam_hydrochloride'
p863
((F1.0
S'fenoldopam_mesylate'
p864
tp865
S"Suffix-based-exact-matching ('fenoldopam_hydrochloride', 'fenoldopam_mesylate') ('fenoldopam_hydrochloride', 'fenoldopam_mesylate')"
p866
tp867
sS'awd__digitoxin'
p868
NsS'tubaic_acid'
p869
NsS'pdgf_receptor_tyrosine_kinase_inhibitor_i'
p870
NsS'ex_lax'
p871
NsS'dihydrochloride__pirenzepine'
p872
NsS'pirenzepine_dihydrochloride'
p873
NsS'doxorubicin'
p874
((F1.0
S'doxorubicin_hydrochloride'
p875
tp876
S"Suffix-based-exact-matching ('doxorubicin', 'doxorubicin_hydrochloride') ('doxorubicin', 'doxorubicin_hydrochloride')"
p877
tp878
sS'phylloquinone'
p879
NsS'linoleic_acid__calcium_salt__(z_z)_isomer'
p880
NsS'ioxaglate_meglumine'
p881
NsS'robustic_acid'
p882
NsS'jnk_in_5a'
p883
NsS'meresa'
p884
NsS'icariin'
p885
NsS'sulfonate__nelfinavir_monomethane'
p886
NsS'desisulpid'
p887
NsS'chlorprothixene_hydrochloride'
p888
NsS'nf_kb_activation_inhibitor_ii__jsh_23'
p889
NsS'gr_127935_hydrochloride'
p890
NsS'tubocurarine_chloride_pentahydrate_(+)'
p891
NsS'bromhexin'
p892
NsS'metergoline'
p893
NsS'skf_525_a'
p894
NsS'austricine_hydrate'
p895
NsS'veto_centre'
p896
NsS'gitoxigenin'
p897
NsS'swiss_blue'
p898
NsS'16beta_hydroxy_estradiol'
p899
NsS'arvanil'
p900
NsS'nylidrin_hydrochloride'
p901
NsS'lonidamine'
p902
NsS'hexamethylquercetagetin'
p903
NsS'cfm_1571_hydrochloride'
p904
NsS'ratio_domperidone'
p905
NsS'triacsin_c'
p906
NsS'rilmenidine_hemifumarate'
p907
NsS'phentolamine_hydrochloride'
p908
((F1.0
S'phentolamine_mesylate'
p909
tp910
S"Suffix-based-exact-matching ('phentolamine_hydrochloride', 'phentolamine_mesylate') ('phentolamine_hydrochloride', 'phentolamine_mesylate')"
p911
tp912
sS'nafcillin_sodium_salt_monohydrate'
p913
NsS'ibrutinib'
p914
NsS'terfedura'
p915
NsS'phenothiazine'
p916
NsS'piperacetazine'
p917
NsS'inca_6'
p918
NsS'pizotyline_malate'
p919
NsS'bosutinib'
p920
NsS'idoxuridine__123i_labeled'
p921
NsS'skf_525a'
p922
NsS'lacidipine'
p923
NsS'bd_1047_dihydrobromide'
p924
NsS'genrx_moclobemide'
p925
NsS'cp_94253_hydrochloride'
p926
NsS'pronethalol_hydrochloride'
p927
NsS'deprenorm'
p928
NsS'ct_incb'
p929
NsS'fluprostenol'
p930
NsS'brl_37344__sodium_salt'
p931
NsS'chelerythrine_chloride'
p932
NsS'rho_kinase_inhibitor_ii'
p933
NsS'jutapress'
p934
NsS'levocetirizine'
p935
((F1.0
S'levocetirizine_dihydrochloride'
p936
tp937
S"Suffix-based-exact-matching ('levocetirizine', 'levocetirizine_dihydrochloride') ('levocetirizine', 'levocetirizine_dihydrochloride')"
p938
tp939
sS'n_benzylnaltrindole_hydrochloride'
p940
NsS'meclofenamic_acid_sodium_salt_monohydrate'
p941
NsS'morantel_tartrate'
p942
NsS'blebbistatin'
p943
NsS'fasudil_hydrochloride'
p944
NsS'tocainide_monohydrobromide__(r)_isomer'
p945
NsS'manumycin_a'
p946
NsS'chemistry_1735'
p947
NsS'radewerm'
p948
NsS'gastro_entericanis_biocanina'
p949
NsS'nicerium'
p950
NsS'nonoxynol_9'
p951
NsS'16_alpha_hydroxy_estradiol'
p952
NsS'toltrazuril'
p953
NsS'aq_ra_741'
p954
NsS'garcinol'
p955
NsS'coumestrol'
p956
NsS'ro_31_8220_mesylate'
p957
NsS'cirazoline_hydrochloride'
p958
NsS'vastensium'
p959
NsS'diaglyk'
p960
NsS'cinnarizin_siegfried'
p961
NsS'iopanoic_acid'
p962
NsS'i_bet151'
p963
NsS'iodophenpropit_dihydrobromide'
p964
NsS'linoleic_acid__(z_z)_isomer'
p965
NsS'reichstein/c_aeos_substance/c_*s'
p966
NsS'(_)_jq1'
p967
NsS'domperidona_gamir'
p968
NsS'brd_k93568044_(hydrocortisone)'
p969
NsS'hydroquinidine'
p970
NsS'glycocholic_acid__sodium_salt'
p971
NsS'bepridil_hydrochloride'
p972
NsS'ebselen'
p973
NsS'glyade'
p974
NsS'w_12__hydrochloride'
p975
NsS'ambroxol_hydrochloride'
p976
NsS'sertindole'
p977
NsS'epicatechin_monogallate'
p978
NsS'dipropyl_5ct'
p979
NsS'16alpha_17beta_estriol'
p980
NsS'anadrol'
p981
((F1.0
S'anadrol_50'
p982
tp983
S"(st) matching: ratio , lcs, (key,drug) (keynorm,drugnorm 1.0 anadrol ('anadrol', 'anadrol_50') ('anadrol', 'anadrol_50')"
p984
tp985
sS'nornicotine'
p986
NsS'3__4__5_7_tetrahydroxy_flavone'
p987
NsS'pterostilbene'
p988
NsS'ala_ala_phe_cmk'
p989
NsS'aminogenistein'
p990
NsS'nicergoline'
p991
NsS'thiazolopyrimidine'
p992
NsS'heat_hydrochloride'
p993
NsS'3_methylindole'
p994
NsS'arg_csc_91'
p995
NsS'ebt_or_(erichrome_black_t)'
p996
NsS'daminozide'
p997
NsS'methyl_7_desoxypurpurogallin_7_carboxylate_trimethyl_ether'
p998
NsS'compound_58'
p999
NsS'cisaken'
p1000
NsS'noscapine_hydrochloride'
p1001
NsS'pazopanib'
p1002
NsS'sulconazole_nitrate'
p1003
NsS'tianeptine'
p1004
NsS'cholanhmb'
p1005
NsS'noscapine'
p1006
NsS'digitoxin_b\xc3\xbcrger'
p1007
NsS'ys_035_hydrochloride'
p1008
NsS'austricine'
p1009
NsS'sydnopharm'
p1010
NsS'auraptene'
p1011
NsS'salsolinol_hydrobromide'
p1012
NsS'linopirdine_dihydrochloride'
p1013
NsS'nvp_aew541'
p1014
NsS'mapp__d_erythro'
p1015
NsS'itavastatin_ca'
p1016
((F1.0
S'pitavastatin_calcium'
p1017
tp1018
S"(st) matching: ratio , lcs, (key,drug) (keynorm,drugnorm 1.0 itavastatin_ca ('itavastatin_ca', 'pitavastatin_calcium') ('itavastatin_ca', 'pitavastatin_calcium')"
p1019
tp1020
sS'nelfinavir_mesylate'
p1021
NsS'thioguanosine'
p1022
NsS'naltrindole_hydrochloride'
p1023
NsS'fluvastatin'
p1024
((F1.0
S'fluvastatin_sodium'
p1025
tp1026
S"Suffix-based-exact-matching ('fluvastatin', 'fluvastatin_sodium') ('fluvastatin', 'fluvastatin_sodium')"
p1027
tp1028
sS'arachidonyl_trifluoro_methyl_ketone'
p1029
NsS'chelidonine_(+)'
p1030
NsS'rhamnoside__scillarenin'
p1031
NsS'pifithrin_a__cyclic_'
p1032
NsS'oxymetazoline_hydrochloride'
p1033
NsS'perhexiline_maleate'
p1034
NsS'altretamine'
p1035
NsS'primaquine_diphosphate'
p1036
NsS'rs_67506_hydrochloride'
p1037
NsS'hexinawas'
p1038
NsS'molsidomin_ratiopharm'
p1039
NsS'bp_554_maleate'
p1040
NsS'penitrem_a'
p1041
NsS'tocainide_monohydrochloride__(s)_isomer'
p1042
NsS'w_7_hydrochloride'
p1043
NsS'nor_binaltorphimine_dihydrochloride'
p1044
NsS'niclosamide'
p1045
NsS'neratinib'
p1046
NsS'brd_k37270826_(mifepristone)'
p1047
NsS'etazolate_hydrochloride'
p1048
NsS'amsa_p_d'
p1049
NsS'pms_domperidone'
p1050
NsS'cycloheximide_n_ethylethanoate'
p1051
NsS'r(_)_n_allylnorapomorphine'
p1052
NsS'bay_va_1470'
p1053
NsS'fexaramine'
p1054
NsS'8_11_14_eicosatrienoic_acid'
p1055
NsS'brd_k56515112_(medrysone)'
p1056
NsS'diamicron'
p1057
NsS'hycanthone'
p1058
NsS'digitoxin'
p1059
NsS'ioxaglic_acid_monosodium_salt'
p1060
NsS'gbr_13069_dihydrochloride'
p1061
NsS'fenretinimide'
p1062
NsS'dihydrosamidin'
p1063
NsS'methyl_2_5_dihydroxycinnamate'
p1064
NsS'terfenadin_al'
p1065
NsS'8_cpt_2_me_camp'
p1066
NsS'olaparib'
p1067
NsS'candesartan'
p1068
((F1.0
S'candesartan_cilexetil'
p1069
tp1070
S"(st) matching: ratio , lcs, (key,drug) (keynorm,drugnorm 1.0 candesartan ('candesartan', 'candesartan_cilexetil') ('candesartan', 'candesartan_cilexetil')"
p1071
tp1072
sS'topotecan_hcl'
p1073
((F1.0
S'topotecan_hydrochloride'
p1074
tp1075
S"Suffix-based-exact-matching ('topotecan_hcl', 'topotecan_hydrochloride') ('topotecan_hcl', 'topotecan_hydrochloride')"
p1076
tp1077
sS'glianimon'
p1078
NsS'pirenperone'
p1079
NsS'masitinib'
p1080
NsS'mosapride'
p1081
NsS'lomefloxacin_hydrochloride'
p1082
NsS'dur_elix'
p1083
NsS'thomasin'
p1084
NsS'dabrafenib'
p1085
NsS'sunitinib'
p1086
((F1.0
S'sunitinib_malate'
p1087
tp1088
S"(st) matching: ratio , lcs, (key,drug) (keynorm,drugnorm 1.0 sunitinib ('sunitinib', 'sunitinib_malate') ('sunitinib', 'sunitinib_malate')"
p1089
tp1090
sS'lanatoside_c'
p1091
NsS'helveticoside'
p1092
NsS'nan_190_hydrobromide'
p1093
NsS'niprina'
p1094
NsS'flagecidin'
p1095
NsS'nicergobeta'
p1096
NsS'nafronyl_oxalate'
p1097
NsS'l_741_742_hydrochloride'
p1098
NsS'cinnarizin_ratiopharm'
p1099
NsS'rhodomyrtoxin'
p1100
NsS'antimycin_a1'
p1101
NsS'regorafenib'
p1102
NsS'etanidazole'
p1103
NsS'hydrochloride__cyclizine'
p1104
NsS'pyrenzepine'
p1105
NsS'heliotrine'
p1106
NsS'calyculin_a'
p1107
NsS'dihydrexidine_hydrochloride'
p1108
NsS'indirubin_3_oxime'
p1109
NsS'cgp_20712_dihydrochloride'
p1110
NsS'hydrocortisone_hemisuccinate'
p1111
NsS'danthron'
p1112
NsS'ulgescum'
p1113
NsS'ethotoin'
p1114
NsS'17_beta_estradiol_17_valerate'
p1115
NsS'hydrastine_(1r__9s)'
p1116
NsS'moclix'
p1117
NsS'nifuroxazide'
p1118
NsS'cyclizine'
p1119
NsS'gastrozepin'
p1120
NsS'flunarizine_dihydrochloride'
p1121
NsS'scriptaid'
p1122
NsS'raclopride'
p1123
NsS'ouabain'
p1124
NsS'syk_inhibitor'
p1125
NsS'zd_7114_hydrochloride'
p1126
NsS'sulfacetamide_sodic_hydrate'
p1127
NsS'cyclosporin_a'
p1128
NsS'tosufloxacin_hydrochloride'
p1129
NsS'lenalidomide'
p1130
NsS'dequalinium'
p1131
NsS'4_aminosalicylic_acid'
p1132
NsS'nsc_632839_hydrochloride'
p1133
NsS'azacyclonol'
p1134
NsS'cgs_21680_hydrochloride'
p1135
NsS'moclobemide__genrx'
p1136
NsS'nbi_27914_hydrochloride'
p1137
NsS'bayluscide'
p1138
NsS'ethopropazine_hydrochloride'
p1139
NsS'(_)_gallocatechin_gallate'
p1140
NsS'racecadotril'
p1141
NsS'chlorphensin_carbamate'
p1142
NsS'l_ornithine__n5_[imino(methylamino)methyl]_[cas]'
p1143
NsS'jak3_inhibitor_i'
p1144
NsS'ordiflazine'
p1145
NsS'cyanide_p_trifluoromethoxyphenylhydrazone__carbonyl'
p1146
NsS'dexbrompheniramine'
p1147
((F1.0
S'dexbrompheniramine_maleate'
p1148
tp1149
S"Suffix-based-exact-matching ('dexbrompheniramine', 'dexbrompheniramine_maleate') ('dexbrompheniramine', 'dexbrompheniramine_maleate')"
p1150
tp1151
sS'alclometazone_dipropionate'
p1152
NsS'naltrexone_hydrochloride_dihydrate'
p1153
NsS'jak3_inhibitor_v'
p1154
NsS'tridihexethyl_chloride'
p1155
NsS'cercosporin'
p1156
NsS'iodochloroxyquinoline'
p1157
NsS'3_deoxydenosine'
p1158
NsS'oftan_idu'
p1159
NsS'beclomethasone_dipropionate'
p1160
NsS'splitomicin'
p1161
NsS'mtw_molsidomin'
p1162
NsS'digitoxigenin'
p1163
NsS'deracoxib'
p1164
NsS'nicergolin_von_ct'
p1165
NsS'azelastine_hcl'
p1166
((F1.0
S'azelastine_hydrochloride'
p1167
tp1168
S"Suffix-based-exact-matching ('azelastine_hcl', 'azelastine_hydrochloride') ('azelastine_hcl', 'azelastine_hydrochloride')"
p1169
tp1170
sS'gsk_3b_inhibitor_viii'
p1171
NsS'roxatidine_acetate_hcl'
p1172
NsS'gsk_j1'
p1173
NsS'pi_103_hydrochloride'
p1174
NsS'nnc_55_0396_dihydrochloride'
p1175
NsS'(16beta_17beta)_estra_1_3_5(10)_triene_3_16_17_triol'
p1176
NsS'dihydro_7_desacetyldeoxygedunin'
p1177
NsS'cucurbitacin_i'
p1178
NsS'hispidin'
p1179
NsS'chem_mart_moclobemide'
p1180
NsS'methylandrostenediol'
p1181
NsS'rimcazole'
p1182
NsS'4_demethoxydaunorubicin_hydrochloride_(65)'
p1183
NsS'valyltryptophan'
p1184
NsS'physostigmine_salicylate'
p1185
NsS'2_(trifluoromethyl)_10h_phenothiazine'
p1186
NsS'vegf_receptor_2_kinase_inhibitor_iv'
p1187
NsS'manerix'
p1188
NsS'ntncb_hydrochloride'
p1189
NsS'tiotidine'
p1190
NsS'gabexate_mesylate'
p1191
NsS'i_ome_ag_538'
p1192
NsS'linoelaidic_acid__(e_z)_isomer'
p1193
NsS'idoxuridine'
p1194
NsS'molsihexal'
p1195
NsS'norketamine_hydrochloride'
p1196
((F0.88
S'ketamine_hydrochloride'
p1197
tp1198
S"(st) matching: ratio , lcs, (key,drug) (keynorm,drugnorm 0.88 ketamine_hydrochloride ('norketamine_hydrochloride', 'ketamine_hydrochloride') ('norketamine_hydrochloride', 'ketamine_hydrochloride')"
p1199
tp1200
sS'fu_jmbii227b'
p1201
NsS'proscillaridin_a'
p1202
NsS'trolox'
p1203
NsS'dihydroergocristine'
p1204
NsS'norcyclobenzaprine'
p1205
NsS'desoxypeganine_hydrochloride'
p1206
NsS'leu(5)_enkephalin'
p1207
NsS'lidoflazine'
p1208
NsS'arecaidine_propargyl_ester_tosylate'
p1209
NsS'catechin_pentabenzoate'
p1210
NsS'vindesin'
p1211
NsS'isoeugenitol'
p1212
NsS'suloctidil_hydrochloride'
p1213
NsS'spectinomycin_dihydrochloride'
p1214
NsS'orlistat'
p1215
NsS'sodium_dehydrocholate'
p1216
NsS'digitoxin_philo'
p1217
NsS'diphenyleneiodonium_chloride'
p1218
NsS'amp__dibutyryl_cyclic'
p1219
NsS'2_4_dideoxy_dc_45_a2'
p1220
NsS'syrosingopine'
p1221
NsS'protein_tyrosine_phosphatase_inhibitor_iv'
p1222
NsS'tyrphostin_46'
p1223
NsS'tyrphostin_47'
p1224
NsS'selinidin'
p1225
NsS'bjm_ctd2_9'
p1226
NsS'bntx_maleate'
p1227
NsS'molsidomine'
p1228
NsS'amperozide'
p1229
NsS'e6_berbamine'
p1230
NsS'benzoxiquine'
p1231
NsS'procarbazine_hydrochloride'
p1232
NsS'cymarigenin'
p1233
NsS'resocyanine'
p1234
NsS'bongkrekic_acid'
p1235
NsS'ritanserin'
p1236
NsS'16beta_bromoandrosterone'
p1237
NsS'geldanamycin'
p1238
NsS'stylomycin'
p1239
NsS'nonoxynol__1(4)_sulfate__sodium_salt'
p1240
NsS'zd_2079_hydrochloride'
p1241
NsS'mestanolone'
p1242
NsS'chemistry_1571'
p1243
NsS'brinzolamide'
p1244
NsS'moclobemid_1a_pharma'
p1245
NsS'oval__patentex'
p1246
NsS'brd_k00824317_(flurandrenolide)'
p1247
NsS'nitrendipin_atid'
p1248
NsS'trap_101'
p1249
NsS'indirubin'
p1250
NsS'dibutyryl_adenosine_3__5__monophosphate'
p1251
NsS'methyldopa_(l__)'
p1252
NsS'trifluoperazine_dihydrochloride'
p1253
((F1.0
S'trifluoperazine_hydrochloride'
p1254
tp1255
S"Suffix-based-exact-matching ('trifluoperazine_dihydrochloride', 'trifluoperazine_hydrochloride') ('trifluoperazine_dihydrochloride', 'trifluoperazine_hydrochloride')"
p1256
tp1257
sS'ethylphenylephrine'
p1258
NsS'pirenzepine'
p1259
NsS'fisetinidol'
p1260
NsS'gw_311616_hydrochloride'
p1261
NsS'endo_iwr_1'
p1262
NsS'hydrochloride__fendiline'
p1263
NsS'rhizocarpic_acid'
p1264
NsS'cosmosiin'
p1265
NsS'fenobam'
p1266
NsS'cnqx_disodium_salt'
p1267
NsS'antimycin_a'
p1268
NsS'medroxyprogesterone'
p1269
((F1.0
S'medroxyprogesterone_acetate'
p1270
tp1271
S"Suffix-based-exact-matching ('medroxyprogesterone', 'medroxyprogesterone_acetate') ('medroxyprogesterone', 'medroxyprogesterone_acetate')"
p1272
tp1273
sS'buphenine'
p1274
NsS'er_27319_maleate'
p1275
NsS'canrenoic_acid_potassium_salt'
p1276
NsS'fostamatinib'
p1277
NsS'bucladesine'
p1278
NsS'nomegestrol_acetate'
p1279
((F0.8947368421052632
S'megestrol_acetate'
p1280
tp1281
S"(st) matching: ratio , lcs, (key,drug) (keynorm,drugnorm 0.894736842105 megestrol_acetate ('nomegestrol_acetate', 'megestrol_acetate') ('nomegestrol_acetate', 'megestrol_acetate')"
p1282
tp1283
sS'haematoxylone__tetramethyl_'
p1284
NsS'jak3_inhibitor_ii'
p1285
NsS'mdm2_inhibitor'
p1286
NsS'buddleoflavonoloside'
p1287
NsS'otssp167'
p1288
NsS'necrostatin_1'
p1289
NsS'circupon'
p1290
NsS'cardiazol'
p1291
NsS'gibberellic_acid'
p1292
NsS'nonoxinol'
p1293
NsS'mephentermine'
p1294
NsS'carbazol_9_yl_p_tolyl_methanone'
p1295
NsS'methiazole'
p1296
NsS'blue__swiss'
p1297
NsS'periplocymarin'
p1298
NsS'gastrocure'
p1299
NsS'nilotinib'
p1300
NsS'ciglitazone'
p1301
NsS'rofecoxib'
p1302
NsS'puromycin_hydrochloride'
p1303
NsS'enrofloxacin'
p1304
NsS'2_chloroadenosine'
p1305
NsS'isocarboxazid'
p1306
NsS'omdm_2'
p1307
NsS'hyperoside'
p1308
NsS'phenoxazine'
p1309
NsS'tibolone'
p1310
NsS'bmy_7378_dihydrochloride'
p1311
NsS'cis_(z)_flupenthixol'
p1312
NsS'ketanserin_tartrate_hydrate'
p1313
NsS'zm_39923_hydrochloride'
p1314
NsS'felamidin'
p1315
NsS'brd_k87343924_(wortmannin)'
p1316
NsS'metrazol'
p1317
NsS'3_methyladenine'
p1318
NsS'narcotine'
p1319
NsS'ql_xii_47'
p1320
NsS'imperatorin'
p1321
NsS'penfluridol'
p1322
NsS'luteolin'
p1323
NsS'flavokawain_b'
p1324
NsS'oxantel_pamoate'
p1325
NsS'nocodazole'
p1326
NsS'3_rhamnosyl_glucosyl_quercetin'
p1327
NsS'opipramol_dihydrochloride'
p1328
NsS'nitrendepat'
p1329
NsS'tocainide__(s)_isomer'
p1330
NsS'gr_89696_fumarate'
p1331
NsS'ub_165_fumarate'
p1332
NsS'peucedanin'
p1333
NsS'linsitinib'
p1334
NsS'cinarizina_inkey'
p1335
NsS'idoxuridine__radical_ion_(1_)'
p1336
NsS'phorbol_12_myristate_13_acetate_(pma)'
p1337
NsS'azaperone'
p1338
NsS'corticosterone'
p1339
NsS'capsazepine'
p1340
NsS'brivanib'
p1341
NsS'genestein'
p1342
NsS'131i_labeled_idoxuridine'
p1343
NsS'von_ct__nicergolin'
p1344
NsS'amuvatinib'
p1345
NsS'sb_200646_hydrochloride'
p1346
NsS'deacetoxy_7_oxisogedunin'
p1347
NsS'rottlerin'
p1348
NsS'bromhexin_bc'
p1349
NsS'w_13_hydrochloride'
p1350
NsS'tranilast'
p1351
NsS'azlocillin_sodium_salt'
p1352
NsS'altanserin_hydrochloride'
p1353
NsS'dau_5884_hydrochloride'
p1354
NsS'cjd_pla_20_1'
p1355
NsS'zm_306416_hydrochloride'
p1356
NsS'torasemide'
p1357
NsS'p_aminosalicylic_acid_monosodium_salt'
p1358
NsS'sulfaguanidine'
p1359
NsS'temsirolimus_[ci779]'
p1360
NsS'tc_2559_difumarate'
p1361
NsS'quentan'
p1362
NsS'niguldipine_hydrochloride'
p1363
NsS'linoleic_acid__sodium_salt__(e_e)_isomer'
p1364
NsS'aminopurine__6_benzyl'
p1365
NsS'thapsigargin'
p1366
NsS'bd_1063_dihydrochloride'
p1367
NsS'enkephalin__5_leucine'
p1368
NsS'nutlin_3'
p1369
NsS'lobelanidine_hydrochloride'
p1370
NsS'hypericin'
p1371
NsS'stugeron'
p1372
NsS'dcebio'
p1373
NsS'proadifen_hydrochloride'
p1374
NsS'2_(4_chlorophenoxy)_2_methylpropionic_acid'
p1375
NsS'dihydroergocristine_monomesylate'
p1376
NsS'triciribine'
p1377
NsS'pik_93'
p1378
NsS'pik_90'
p1379
NsS'rhamnetin'
p1380
NsS'sb_258585_hydrochloride'
p1381
NsS'tocainide'
p1382
NsS'epigallocatechin'
p1383
NsS'ql_xi_92'
p1384
NsS'cortisone'
p1385
((F1.0
S'cortisone_acetate'
p1386
tp1387
S"Suffix-based-exact-matching ('cortisone', 'cortisone_acetate') ('cortisone', 'cortisone_acetate')"
p1388
tp1389
sS'bacampicillin_hydrochloride'
p1390
NsS'auranofin'
p1391
NsS'xylazine_phosphate_(1:1)'
p1392
NsS'diacetate__dequalinium'
p1393
NsS'arachidonamide'
p1394
NsS'terry_white_chemists_moclobemide'
p1395
NsS'fluomycin'
p1396
NsS'trans_trans_9_12_octadecadienoic_acid'
p1397
NsS'hydrogen_embonate__noscapine'
p1398
NsS'nonylphenoxypolyethoxyethanols'
p1399
NsS'midazolam_hcl'
p1400
((F1.0
S'midazolam_hydrochloride'
p1401
tp1402
S"Suffix-based-exact-matching ('midazolam_hcl', 'midazolam_hydrochloride') ('midazolam_hcl', 'midazolam_hydrochloride')"
p1403
tp1404
sS'colforsin'
p1405
NsS'yellow__turmeric'
p1406
NsS'sibutramine_hcl'
p1407
NsS'cisapride'
p1408
NsS'dibutyrylcyclic_amp'
p1409
NsS'herniarin'
p1410
NsS'prikkelhoest__librochin'
p1411
NsS'n__o__dibutyryl_camp'
p1412
NsS'dhpc8_buildingblockc04'
p1413
NsS'rs_100329_hydrochloride'
p1414
NsS'quinacrine_dihydrochloride_dihydrate'
p1415
NsS'jnj_10191584_maleate'
p1416
NsS'alw_ii_38_3'
p1417
NsS'prostaglandin_a1'
p1418
NsS'jak3_inhibitor_vi'
p1419
NsS'ipsapirone'
p1420
NsS'radicicol'
p1421
NsS'nitrendipino_ratiopharm'
p1422
NsS'barasertib'
p1423
NsS'8_{[2_oxo_2_(1_pyrrolidinyl)ethyl]thio}quinoline'
p1424
NsS'betamethasone'
p1425
((F1.0
S'betamethasone_dipropionate'
p1426
tp1427
S"Suffix-based-exact-matching ('betamethasone', 'betamethasone_dipropionate') ('betamethasone', 'betamethasone_dipropionate')"
p1428
tp1429
sS'19_norethindrone'
p1430
NsS'fraxidin_methyl_ether'
p1431
NsS'erastin'
p1432
NsS'nafadotride'
p1433
NsS'moclobemid_puren'
p1434
NsS'mesylate__gabexate'
p1435
NsS'thiorphan'
p1436
NsS'dl_pdmp'
p1437
NsS'tyloxapol'
p1438
NsS'cefatrizine_propylene_glycol'
p1439
NsS'sulpiride'
p1440
NsS'mendiaxon'
p1441
NsS'disodium_salt_bucladesine'
p1442
NsS'chloride__dequalinium'
p1443
NsS'thiocolchicoside'
p1444
NsS'irsogladine_maleate'
p1445
NsS'rottlerin_ncgc00025228_11'
p1446
NsS'norethynodrel'
p1447
NsS'gliquidone'
p1448
NsS'sulphaguanidine'
p1449
NsS'camptothecin'
p1450
NsS'crotamiton'
p1451
NsS'labosept'
p1452
NsS'pkcbeta_inhibitor'
p1453
NsS'coumarin'
p1454
NsS'eugenol'
p1455
NsS'ricinine'
p1456
NsS'ethisterone'
p1457
NsS'decumbin'
p1458
NsS'pregneninolone'
p1459
NsS'indatraline'
p1460
NsS'proadifen'
p1461
NsS'benperidol'
p1462
NsS'p_286_(contrast_media)'
p1463
NsS'ifenprodil_tartrate'
p1464
NsS'propentofylline'
p1465
NsS'diphenylcyclopropenone'
p1466
NsS'cytosporone_b'
p1467
NsS'halofantrine_hydrochloride'
p1468
NsS'sinensetin'
p1469
NsS'fti_276_trifluoroacetate'
p1470
NsS'estra_1_3_5(10)_triene_3_16beta_17beta_triol'
p1471
NsS'cinanserin_hydrochloride'
p1472
NsS'terbinafine_hcl'
p1473
((F1.0
S'terbinafine_hydrochloride'
p1474
tp1475
S"Suffix-based-exact-matching ('terbinafine_hcl', 'terbinafine_hydrochloride') ('terbinafine_hcl', 'terbinafine_hydrochloride')"
p1476
tp1477
sS'n_(4_bromobenzyl)_5_methoxytryptamine'
p1478
NsS'embelin'
p1479
((F1.0
S'embeline'
p1480
tp1481
S"(st) matching: ratio , lcs, (key,drug) (keynorm,drugnorm 1.0 embelin ('embelin', 'embeline') ('embelin', 'embeline')"
p1482
tp1483
sS'amyleine_hydrochloride'
p1484
NsS'chlormezanone'
p1485
NsS'quipazine_dimaleate_salt'
p1486
NsS'nvp_bgt226'
p1487
NsS'chinoform'
p1488
NsS'r(_)_apomorphine_hydrochloride_hemihydrate'
p1489
NsS'carbonyl_cyanide_m_chlorophenyl_hydrazone'
p1490
NsS'dilatol'
p1491
NsS'l_733_060_hydrochloride'
p1492
NsS'nitre_puren'
p1493
NsS'biperiden_hydrochloride'
p1494
NsS'phetanol'
p1495
NsS'aminopentamide'
p1496
NsS'bo2_(inhibits_rad51)'
p1497
NsS'fenspiride_hydrochloride'
p1498
NsS'(4_(trifluoromethoxy)phenyl)hydrazonopropanedinitrile'
p1499
NsS'doramapimod'
p1500
NsS'heumann__molsidomin'
p1501
NsS'cgp_54626_hydrochloride'
p1502
NsS'dimitronal'
p1503
NsS'mianserine_hydrochloride'
p1504
NsS'akt_inhibitor_iv'
p1505
NsS'skf_86002_dihydrochloride'
p1506
NsS'hdac6_inhibitor_isox'
p1507
NsS'sertaconazole_nitrate'
p1508
NsS'angiogenesis_inhibitor'
p1509
NsS'idoxuridine__3h_labeled'
p1510
NsS'acetopromazine_maleate_salt'
p1511
NsS'gabexate_monomethanesulfonate__14c_labeled_cpd'
p1512
NsS'nvp_auy922'
p1513
NsS'thiostrepton'
p1514
NsS'thyroxine_(l)'
p1515
NsS'ipecine'
p1516
NsS'isoflupredone_acetate'
p1517
NsS'brd_a82238138_(budesonide)'
p1518
NsS'sant_1'
p1519
NsS'u_99194_maleate'
p1520
NsS'pj_34_hydrochloride'
p1521
NsS'cl_82198_hydrochloride'
p1522
NsS'selamectin'
p1523
NsS'domperidon_teva'
p1524
NsS'monomesylate__dihydroergocristine'
p1525
NsS'chemistry_2804'
p1526
NsS'compound_12'
p1527
NsS'piceatannol'
p1528
NsS'compound_10'
p1529
NsS'mibefradil_dihydrochloride'
p1530
NsS'fali_cor'
p1531
NsS'sb_216641_hydrochloride'
p1532
NsS'phensuximide'
p1533
NsS'chlormethazanone'
p1534
NsS'dehydroisoandosterone_3_acetate'
p1535
NsS'dehydrocholic_acid__sodium_salt'
p1536
NsS'von_ct__bromhexin'
p1537
NsS'mammea_a/ba_+_a/bb'
p1538
NsS'cyclo_[arg_gly_asp_d_phe_val]'
p1539
NsS'methoxy_6_harmalan'
p1540
NsS'proglumide'
p1541
NsS'devazepide'
p1542
NsS'tizanidine_hcl'
p1543
((F1.0
S'tizanidine_hydrochloride'
p1544
tp1545
S"Suffix-based-exact-matching ('tizanidine_hcl', 'tizanidine_hydrochloride') ('tizanidine_hcl', 'tizanidine_hydrochloride')"
p1546
tp1547
sS'novo_moclobemide'
p1548
NsS'monomethanesulfonate__gabexate'
p1549
NsS'nitren_1a_pharma'
p1550
NsS'dehydrocholic_acid'
p1551
NsS'nelfinavir'
p1552
NsS'n_chlorophenyl_n_hexylpiperazine'
p1553
NsS'blue_n__methylene'
p1554
NsS'bromhexine'
p1555
NsS'n20c_hydrochloride'
p1556
NsS'kenpaullone'
p1557
NsS'apo_moclobemide'
p1558
NsS'canertinib'
p1559
NsS's(_)_timolol'
p1560
NsS'rocilinostat'
p1561
NsS'brd_k91509126_(piceatannol)'
p1562
NsS'ridauran'
p1563
((F0.875
S'ridaura'
p1564
tp1565
S"(st) matching: ratio , lcs, (key,drug) (keynorm,drugnorm 0.875 ridaura ('ridauran', 'ridaura') ('ridauran', 'ridaura')"
p1566
tp1567
sS'ciba_32.644_ba'
p1568
NsS'vandetanib'
p1569
NsS'homoharringtonine'
p1570
NsS'dppe_fumarate'
p1571
NsS'chromosmon'
p1572
NsS'flubron'
p1573
NsS'prednisolone_hemisuccinate'
p1574
NsS'fluspirilen'
p1575
NsS'brd_k77830450_(forskolin)'
p1576
NsS'3_3__4__5_7_pentahydroxyflavone'
p1577
NsS'ethyl_beta_carboline_3_carboxylate'
p1578
NsS'sb_206553_hydrochloride'
p1579
NsS'linifanib'
p1580
NsS'v_ama37'
p1581
NsS'cmpd_1'
p1582
NsS'hymecromone'
p1583
NsS'clenbuterol_hydrochloride'
p1584
NsS'terfenadin_von_ct'
p1585
NsS'terbutaline_hemisulfate'
p1586
NsS'flufenamic_acid'
p1587
NsS'fenoterol_hydrobromide'
p1588
NsS'orimeten'
p1589
NsS'sulfamethazine_sodium_salt'
p1590
NsS'chlorhexidine'
p1591
((F1.0
S'chlorhexidine_gluconate'
p1592
tp1593
S"Suffix-based-exact-matching ('chlorhexidine', 'chlorhexidine_gluconate') ('chlorhexidine', 'chlorhexidine_gluconate')"
p1594
tp1595
sS'n_ethylmaleimide'
p1596
NsS'alfacalcidol'
p1597
NsS'o_3m3fbs'
p1598
NsS'ikk_3_inhibitor_ix'
p1599
NsS'alfadolone_acetate'
p1600
NsS'guggulsterone'
p1601
NsS'hexylcaine_hydrochloride'
p1602
NsS'dihydroptaeroxylin'
p1603
NsS'fenbendazole'
p1604
NsS'benzopurpurin_(b)'
p1605
NsS'baeomycesic_acid'
p1606
NsS'homosalate'
p1607
NsS'pepstatin_a'
p1608
NsS'dibutyryl_camp__sodium_salt'
p1609
NsS'ethyladrianol'
p1610
NsS'troglitazone'
p1611
NsS'amt_hydrochloride'
p1612
NsS'nvp_bgj398'
p1613
NsS'zm_323881_hydrochloride'
p1614
NsS'motesanib'
p1615
NsS'zd_7155_hydrochloride'
p1616
NsS'rs_102895_hydrochloride'
p1617
NsS'domidon'
p1618
NsS'allergan_211'
p1619
NsS'cinanserin'
p1620
NsS'daunorubicin'
p1621
((F1.0
S'daunorubicin_hydrochloride'
p1622
tp1623
S"Suffix-based-exact-matching ('daunorubicin', 'daunorubicin_hydrochloride') ('daunorubicin', 'daunorubicin_hydrochloride')"
p1624
tp1625
sS'bithionate_sodium'
p1626
NsS'nisoxetine_hydrochloride'
p1627
NsS'gelsemine'
p1628
NsS'para_aminosalicylic_acid'
p1629
NsS'(5beta)_3_7_12_trioxocholan_24_oic_acid'
p1630
NsS'fr_122047_hydrochloride'
p1631
NsS'seldane'
p1632
NsS'methoxamine_hydrochloride'
p1633
NsS'methylthionine_chloride'
p1634
NsS'hydrochloride__etilefrine'
p1635
NsS'ergodavur'
p1636
NsS'proscillaridin'
p1637
NsS'vitexin'
p1638
NsS'glycocholate_sodium'
p1639
NsS'tremorine_dihydrochloride'
p1640
NsS'nonoxynol'
p1641
NsS'structure_possibly_contains_amino_acid_derivative_which_is_not_supported_in_current_version!'
p1642
NsS'lympholysin'
p1643
NsS'na_tosyl_phe_chloromethyl_ketone'
p1644
NsS'bms_182874_hydrochloride'
p1645
NsS'5_leucine_enkephalin'
p1646
NsS'ursolic_acid'
p1647
NsS'rocornal'
p1648
NsS'quinine_hemisulfate_salt_monohydrate'
p1649
NsS'pyrrolidinedithiocarbamate_ammonium'
p1650
NsS'amsacrine'
p1651
NsS'xylometazoline_hydrochloride'
p1652
NsS'amsacrina'
p1653
NsS'skf_81297_hydrobromide'
p1654
NsS'etilefrine_hydrochloride'
p1655
NsS'fendiline'
p1656
NsS'aristolochic_acid'
p1657
NsS'amoxicillin_crystalline'
p1658
NsS'iodipamide'
p1659
NsS'triptolide'
p1660
NsS'evodiamine'
p1661
NsS'digimed'
p1662
NsS'mek1/2_inhibitor'
p1663
NsS'chlormadinone_acetate__(9_beta_10_alpha)_isomer'
p1664
NsS'7b_cis'
p1665
NsS'gr_55562_dihydrochloride'
p1666
NsS'vegf_receptor_3_kinase_inhibitor__maz51'
p1667
NsS'gr_32191_hydrochloride'
p1668
NsS'decholin'
p1669
NsS'nitrendipin_von_ct'
p1670
NsS'flumethasone'
p1671
NsS'stat3_inhibitor_vi__s31_201'
p1672
NsS'oxindole_i'
p1673
NsS'nitrendipin_al'
p1674
NsS'n__(2_aminoethyl)_4_chlorobenzamide_(ro_16_6491)'
p1675
NsS'spiroperone'
p1676
NsS'mpmq_hydrochloride'
p1677
NsS'moclobeta'
p1678
NsS'sin_10'
p1679
NsS'korazole'
p1680
NsS'eburnamonine_(_)'
p1681
NsS'hemicholinium_bromide'
p1682
NsS'tensogradal'
p1683
NsS'nemonapride'
p1684
NsS'cinnarizine_l_tartrate_(1:1)'
p1685
NsS'cot_10b'
p1686
NsS'tipifarnib_p2'
p1687
NsS'gsk_j4'
p1688
NsS'dirithromycin'
p1689
NsS'nicergolin_lindo'
p1690
NsS'r(_)_propylnorapomorphine'
p1691
NsS'luzindole'
p1692
NsS'numoclobemide'
p1693
NsS'hydrochloride__cinanserin'
p1694
NsS'mesylate__nelfinavir'
p1695
NsS'polognost'
p1696
NsS'idoxuridine__131i_labeled'
p1697
NsS'carbacyclin'
p1698
NsS'buparlisib'
p1699
NsS'boldine'
p1700
NsS'xylazine'
p1701
NsS'dequalinium_chloride'
p1702
NsS'bilignost'
p1703
NsS'dequadin'
p1704
NsS'sulpitil'
p1705
NsS'darinaparsin'
p1706
NsS'vindesine'
p1707
NsS'ici_118_551_hydrochloride'
p1708
NsS'suloctidil'
p1709
NsS'bucladesine_sodium_salt'
p1710
NsS'oxfendazole'
p1711
NsS'narciclasine'
p1712
NsS'trichostatin_a'
p1713
NsS'crizotinib'
p1714
NsS'nintedanib'
p1715
NsS'n_(4_hydroxyphenyl)_trans_retinamide'
p1716
NsS'olomoucine'
p1717
NsS'iproniazide_phosphate'
p1718
NsS'sedoval'
p1719
NsS'dnqx_disodium_salt'
p1720
NsS'tiaprofenic_acid'
p1721
NsS'sch_39166_hydrobromide'
p1722
NsS'pirenzepin_von_ct'
p1723
NsS'bongkrekate'
p1724
NsS'ivachtin'
p1725
NsS'gw_583340_dihydrochloride'
p1726
NsS'cabozantinib'
p1727
NsS'dibenzepine_hydrochloride'
p1728
NsS'vertigo_meresa'
p1729
NsS'amsidyl'
p1730
NsS'azauridine'
p1731
NsS'linoleic_acid'
p1732
NsS'entero_septol'
p1733
NsS'pre_084_hydrochloride'
p1734
NsS'nitrendipin_ratiopharm'
p1735
NsS'n(6)_0(2_)_dibutyryl_cyclic_amp'
p1736
NsS'rucaparib'
p1737
NsS'15_delta_prostaglandin_j2'
p1738
NsS'cilnidipine'
p1739
NsS'esculin_hydrate'
p1740
NsS'synergisidin'
p1741
NsS'm_chlorophenylbiguanide_hydrochloride'
p1742
NsS'famel_bromhexine'
p1743
NsS'bioflutin'
p1744
NsS'imatinib'
p1745
((F1.0
S'imatinib_mesylate'
p1746
tp1747
S"Suffix-based-exact-matching ('imatinib', 'imatinib_mesylate') ('imatinib', 'imatinib_mesylate')"
p1748
tp1749
sS'lobendazole'
p1750
NsS'liothyronine_(l__isomer)_sodium'
p1751
NsS'n_desmethylclozapine'
p1752
NsS'picotamide_monohydrate'
p1753
NsS'salubrinal'
p1754
NsS'calycanthine'
p1755
NsS'ikk_16'
p1756
NsS'tivantinib'
p1757
NsS'adenosine_5__monophosphate_monohydrate'
p1758
NsS'methapyrilene_hydrochloride'
p1759
NsS'carmofur'
p1760
NsS'curcubitacin_i'
p1761
NsS'strophantine_octahydrate'
p1762
NsS'nitrocaramiphen_hydrochloride'
p1763
NsS'dogmatil'
p1764
NsS'bmy_14802_hydrochloride'
p1765
NsS'gyki_52466_hydrochloride'
p1766
NsS'hinokitiol'
p1767
NsS'dihomo_gamma_linolenic_acid'
p1768
NsS'anpirtoline_hydrochloride'
p1769
NsS'androsta_1_4_dien_3_17_dione'
p1770
NsS'chloroguanide_hydrochloride'
p1771
NsS'gliclazide'
p1772
NsS'2_bromo_n_[3_(propionylamino)phenyl]benzamide'
p1773
NsS'dehydrocholate'
p1774
NsS'methotrimeprazine_maleat_salt'
p1775
NsS'z_leu3_vs'
p1776
NsS'niridazole'
p1777
NsS'c11__raclopride'
p1778
NsS'icilin'
p1779
NsS'brd_k47635719_(dexamethasone_acetate)'
p1780
NsS'taxifolin_(+)'
p1781
NsS'thimerosal'
p1782
NsS'(+)_jq1'
p1783
NsS'rifaximin'
p1784
NsS'beta_escin'
p1785
NsS'terfenadine'
p1786
NsS'sericetin'
p1787
NsS'ryanodine'
p1788
NsS'dilazep_dihydrochloride'
p1789
NsS'pyrvinium_pamoate'
p1790
NsS'(_)_cotinine'
p1791
NsS'harpagoside'
p1792
NsS'bis_tyrphostin'
p1793
NsS'coramedan'
p1794
NsS'gamma_linolenic_acid_(18:3_n_6)'
p1795
NsS'xe_991_dihydrochloride'
p1796
NsS'eralzdin_practolol'
p1797
NsS'p\xc3\xa9ridys'
p1798
NsS'parthenolide'
p1799
NsS'azacytidine_5'
p1800
NsS'tipifarnib_p1'
p1801
NsS'picrotoxinin'
p1802
NsS'biperiden__1s_(1_alpha_2_alpha(r*)_4_alpha)_isomer'
p1803
NsS'roscovitine'
p1804
NsS'ku_0060648_trihydrochloride'
p1805
NsS'r_96544_hydrochloride'
p1806
NsS'fipronil'
p1807
NsS'ropinirole_hcl'
p1808
((F1.0
S'ropinirole_hydrochloride'
p1809
tp1810
S"Suffix-based-exact-matching ('ropinirole_hcl', 'ropinirole_hydrochloride') ('ropinirole_hcl', 'ropinirole_hydrochloride')"
p1811
tp1812
sS'naloxone_benzoylhydrazone'
p1813
NsS'laxatone'
p1814
NsS'basic_blue_9'
p1815
NsS'gamanil'
p1816
NsS'piplartine'
p1817
NsS'mafenide_hydrochloride'
p1818
((F1.0
S'mafenide_acetate'
p1819
tp1820
S"Suffix-based-exact-matching ('mafenide_hydrochloride', 'mafenide_acetate') ('mafenide_hydrochloride', 'mafenide_acetate')"
p1821
tp1822
sS'daphnetin'
p1823
NsS'aloisine_a'
p1824
NsS'cjd_pla_49_3'
p1825
NsS'nu_moclobemide'
p1826
NsS'cholan_hmb'
p1827
NsS'foliosidine'
p1828
NsS'benzamil_hydrochloride'
p1829
NsS'calcipotriol'
p1830
NsS'hustentabs_ratiopharm'
p1831
NsS'dovitinib'
p1832
NsS'brd_k80334323_(norethynodrel)'
p1833
NsS'estriol'
p1834
Ns.